_ZTVN2nn2sf6detail38ObjectImplFactoryWithStatefulAllocatorINS0_4cmif6client6detail9CmifProxyINS_7friends6detail3ipc14IFriendServiceENS4_19CmifDomainProxyKindINS0_4hipc6client38Hipc2ClientSessionManagedProxyKindBaseINSD_18Hipc2ProxyKindBaseILNSC_6detail11MessageTypeE6EEEEEEENS0_30MemoryResourceAllocationPolicyENS5_19ProcessModifierImplINS4_21DefaultProxyFilterTagEEEvEESL_E6ObjectE = 0x0000000000bd26e8 + __sdk_start;
_ZN2nn3mii6detail16Ver3StoreDataRaw16SetFavoriteColorEi = 0x00000000002f0b70 + __sdk_start;
_ZN2nn8irsensor6detail15IrSensorSession28IsVersionCheckRequestEnabledERKNS0_14IrCameraHandleE = 0x000000000029aab0 + __sdk_start;
_ZN2nn8irsensor25RunImageTransferProcessorERKNS0_14IrCameraHandleERKNS0_28ImageTransferProcessorConfigEPvm = 0x000000000029d6f0 + __sdk_start;
_ZN2nn2sf4cmif6client6detail13CmifProxyImplINS_7account31IAccountServiceForSystemServiceENS2_19CmifDomainProxyKindINS0_4hipc6client38Hipc2ClientSessionManagedProxyKindBaseINS9_18Hipc2ProxyKindBaseILNS8_6detail11MessageTypeE6EEEEEEENS0_25StatelessAllocationPolicyINS0_22ExpHeapStaticAllocatorILm2048ENS5_6detail12ObjectHolder24ObjectHolderAllocatorTagEEEEENS5_31IAccountServiceForAdministratorENS3_19ProcessModifierImplINS2_21DefaultProxyFilterTagEEEE33_nn_sf_sync_DebugSetUserStateOpenERKNS5_3UidE = 0x0000000000044bb0 + __sdk_start;
_ZN2nn2sf4cmif6client6detail13CmifProxyImplINS_2am7service15ISelfControllerENS0_4hipc6client18Hipc2ProxyKindBaseILNS8_6detail11MessageTypeE6EEENS0_30MemoryResourceAllocationPolicyES7_NS3_19ProcessModifierImplINS2_21DefaultProxyFilterTagEEEE35_nn_sf_sync_SetWirelessPriorityModeEi = 0x000000000006a410 + __sdk_start;
_ZN2nn2sf4cmif6client6detail13CmifProxyImplINS_2am7service18IDisplayControllerENS2_19CmifDomainProxyKindINS0_4hipc6client38Hipc2ClientSessionManagedProxyKindBaseINSA_18Hipc2ProxyKindBaseILNS9_6detail11MessageTypeE6EEEEEEENS0_30MemoryResourceAllocationPolicyES7_NS3_19ProcessModifierImplINS2_21DefaultProxyFilterTagEEEE52_nn_sf_sync_ReleaseLastForegroundCaptureSharedBufferEv = 0x000000000005a9b0 + __sdk_start;
_ZNK2nn3mii13ImageDatabase9LoadImageEPvmRKNS_4util4UuidE = 0x00000000002f3df0 + __sdk_start;
_ZNKSt3__112strstreambuf6pcountEv = 0x000000000049cb78 + __sdk_start;
_ZN2nn2sf4cmif6client6detail13CmifProxyImplINS_8settings21ISystemSettingsServerENS0_4hipc6client18Hipc2ProxyKindBaseILNS7_6detail11MessageTypeE6EEENS0_30MemoryResourceAllocationPolicyES6_NS3_19ProcessModifierImplINS2_21DefaultProxyFilterTagEEEE29_nn_sf_sync_GetLockScreenFlagENS0_3OutIbvEE = 0x0000000000341750 + __sdk_start;
_ZN2nn6hidbus6system28RegisterAppletResourceUserIdERKNS_6applet20AppletResourceUserIdENS2_8AppletIdE = 0x000000000025b910 + __sdk_start;
_ZN2nn2fs22SetGlobalAccessLogModeEj = 0x00000000001e5310 + __sdk_start;
_ZN2nn2fs22QueryMountRomCacheSizeEPm = 0x00000000002122d0 + __sdk_start;
_ZN2nn7account26GetNetworkServiceAccountIdEPNS0_23NetworkServiceAccountIdERKNS0_10UserHandleE = 0x000000000004a6a0 + __sdk_start;
_ZN2nn2sf4cmif6client6detail13CmifProxyImplINS_2am7service21IApplicationFunctionsENS2_19CmifDomainProxyKindINS0_4hipc6client38Hipc2ClientSessionManagedProxyKindBaseINSA_18Hipc2ProxyKindBaseILNS9_6detail11MessageTypeE6EEEEEEENS0_30MemoryResourceAllocationPolicyES7_NS3_19ProcessModifierImplINS2_21DefaultProxyFilterTagEEEE27_nn_sf_sync_RequestToRebootEv = 0x0000000000062520 + __sdk_start;
_ZN2nn2sf4cmif6client6detail13CmifProxyImplINS_3hid16IHidSystemServerENS0_4hipc6client18Hipc2ProxyKindBaseILNS7_6detail11MessageTypeE6EEENS0_25StatelessAllocationPolicyINS0_22ExpHeapStaticAllocatorILm16384ENS5_6detail15HidSystemServerEEEEES6_NS3_19ProcessModifierImplINS2_21DefaultProxyFilterTagEEEE56_nn_sf_sync_GetSixAxisSensorAccurateUserCalibrationStateENS0_3OutINS5_6system41SixAxisSensorAccurateUserCalibrationStateEvEENSO_25UniqueSixAxisSensorHandleENS_6applet20AppletResourceUserIdE = 0x00000000002594e0 + __sdk_start;
pthread_barrier_init = 0x00000000004bcfb0 + __sdk_start;
_ZN2nn2fs32SetDefaultFsContextResultHandlerEPFNS0_14AbortSpecifierENS_6ResultEE = 0x00000000001e6990 + __sdk_start;
_ZN2nn2ec33InitializeForShopServiceAccessorsEPvmNS_13ApplicationIdE = 0x000000000018ae30 + __sdk_start;
_ZN22nerd_gillette_internal5otete7jaimev118DecodeHandCountROKERmPKhmPm = 0x00000000002a0710 + __sdk_start;
_ZN2nn2sf4hipc6client24Hipc2ClientCoreProcessorILNS1_6detail11MessageTypeE6ENS0_4cmif6detail14CoreMethodInfoINSt3__15tupleIJNS7_18BufferArgumentInfoILi0ELi34ELm0EEENS7_18OutRawArgumentInfoILm4ELm4ELl0EEEEEELm0ELm4ELb0EEESF_E7ProcessEPNS2_26Hipc2ClientProxyBaseObjectENS6_6client24BufferClientArgumentTypeENSK_24OutRawClientArgumentTypeILm4ELm4EEEj = 0x0000000000091970 + __sdk_start;
_ZN2nn4nifm17NetworkConnectionD2Ev = 0x000000000031a940 + __sdk_start;
_ZN2nn2sf4cmif6client6detail13CmifProxyImplINS_8settings21ISystemSettingsServerENS0_4hipc6client18Hipc2ProxyKindBaseILNS7_6detail11MessageTypeE6EEENS0_30MemoryResourceAllocationPolicyES6_NS3_19ProcessModifierImplINS2_21DefaultProxyFilterTagEEEE23_nn_sf_sync_GetThemeKeyENS0_3OutINS_8fssystem13ArchiveMacKeyEvEE = 0x0000000000342fe0 + __sdk_start;
_ZThn16_N2nn2sf4cmif6client6detail13CmifProxyImplINS_2am7service18ICommonStateGetterENS0_4hipc6client18Hipc2ProxyKindBaseILNS8_6detail11MessageTypeE6EEENS0_30MemoryResourceAllocationPolicyES7_NS3_19ProcessModifierImplINS2_21DefaultProxyFilterTagEEEE17GetCmifBaseObjectEv = 0x0000000000068f20 + __sdk_start;
_ZNK2nn3mii6detail11CoreDataRaw8GetMoleYEv = 0x00000000002e75f0 + __sdk_start;
_ZNSt3__125__libcpp_thread_sleep_forERKNS_6chrono8durationIxNS_5ratioILl1ELl1000000000EEEEE = 0x000000000049ea20 + __sdk_start;
unw_set_fpreg = 0x000000000050bcb0 + __sdk_start;
_ZTINSt12experimental19bad_optional_accessE = 0x0000000000bee5f0 + __sdk_start;
_ZN2nn2sf4cmif6server6detail34CmifProcessFunctionTableGetterImplINS0_4hipc6detail12IHipcManagerEE29Process_CopyFromCurrentDomainEPPNS1_13CmifOutHeaderEPS7_PNS2_17CmifServerMessageEONS0_6detail14PointerAndSizeE = 0x000000000035a560 + __sdk_start;
_ZNK2nn3mii21ParamCharInfoAccessor13GetMouthScaleEv = 0x00000000002e1ed0 + __sdk_start;
_ZN2nn2sf4cmif6client6detail13CmifProxyImplINS_8settings21ISystemSettingsServerENS0_4hipc6client18Hipc2ProxyKindBaseILNS7_6detail11MessageTypeE6EEENS0_30MemoryResourceAllocationPolicyES6_NS3_19ProcessModifierImplINS2_21DefaultProxyFilterTagEEEE36_nn_sf_sync_SetInitialLaunchSettingsERKNS5_6system21InitialLaunchSettingsE = 0x00000000003421a0 + __sdk_start;
_ZN2nn6hidbus6detail20ClientResourceHolder6AttachEjb = 0x000000000025d110 + __sdk_start;
_ZN7android5Fence5mergeERKNS_7String8ERKNS_2spIS0_EES7_ = 0x000000000002ded0 + __sdk_start;
_ZN2nn2os15ClearLightEventEPNS0_14LightEventTypeE = 0x0000000000324c20 + __sdk_start;
_ZN2nn8settings5fwdbg12ReadSettingsEPhmNS1_14SettingsTargetE = 0x000000000033f790 + __sdk_start;
_ZN7android6Parcel15restoreAllowFdsEb = 0x0000000000008260 + __sdk_start;
_ZN2nn2sf4cmif6client6detail13CmifProxyImplINS_2am7service18IDisplayControllerENS2_19CmifDomainProxyKindINS0_4hipc6client38Hipc2ClientSessionManagedProxyKindBaseINSA_18Hipc2ProxyKindBaseILNS9_6detail11MessageTypeE6EEEEEEENS0_30MemoryResourceAllocationPolicyES7_NS3_19ProcessModifierImplINS2_21DefaultProxyFilterTagEEEE30_nn_sf_sync_ClearCaptureBufferEibj = 0x000000000005a8f0 + __sdk_start;
_ZN2nn2sf4cmif6client6detail13CmifProxyImplINS_2am7service26ILibraryAppletSelfAccessorENS2_19CmifDomainProxyKindINS0_4hipc6client38Hipc2ClientSessionManagedProxyKindBaseINSA_18Hipc2ProxyKindBaseILNS9_6detail11MessageTypeE6EEEEEEENS0_30MemoryResourceAllocationPolicyES7_NS3_19ProcessModifierImplINS2_21DefaultProxyFilterTagEEEE34_nn_sf_sync_CreateGameMovieTrimmerENS0_3OutINS0_13SharedPointerINS_6grcsrv17IGameMovieTrimmerEEEvEEONS0_12NativeHandleEm = 0x000000000005f830 + __sdk_start;
_ZN2nn5prepo10PlayReport4SaveERKNS_7account3UidE = 0x000000000033a330 + __sdk_start;
_ZN2nn2fs30GetGameCardDeviceIdForProdCardEPvmS1_m = 0x000000000020e0a0 + __sdk_start;
_ZN2nn2sf6detail38ObjectImplFactoryWithStatefulAllocatorINS0_4cmif6client6detail9CmifProxyINS_2am7service15IStorageChannelENS4_19CmifDomainProxyKindINS0_4hipc6client38Hipc2ClientSessionManagedProxyKindBaseINSC_18Hipc2ProxyKindBaseILNSB_6detail11MessageTypeE6EEEEEEENS0_30MemoryResourceAllocationPolicyENS5_19ProcessModifierImplINS4_21DefaultProxyFilterTagEEEvEESK_E6Object7ReleaseEv = 0x0000000000058fb0 + __sdk_start;
_ZNK2nn3err14SystemErrorArg15GetErrorContextEv = 0x0000000000196a60 + __sdk_start;
_ZN2nn3mii6detail12StoreDataRaw8SetMoleXEi = 0x00000000002ea840 + __sdk_start;
_ZN22nerd_gillette_internal5otete7jaimev215IdentifyClusterEPKNS1_23FullSilhouetteCodecData7SegmentEhNS_15NumericalVectorIsLm2EEE = 0x00000000002afb70 + __sdk_start;
_ZN2nn2sf4cmif6client6detail13CmifProxyImplINS_7account29IAccountServiceForApplicationENS2_19CmifDomainProxyKindINS0_4hipc6client38Hipc2ClientSessionManagedProxyKindBaseINS9_18Hipc2ProxyKindBaseILNS8_6detail11MessageTypeE6EEEEEEENS0_25StatelessAllocationPolicyINS0_22ExpHeapStaticAllocatorILm2048ENS5_6detail12ObjectHolder24ObjectHolderAllocatorTagEEEEES6_NS3_19ProcessModifierImplINS2_21DefaultProxyFilterTagEEEE37_nn_sf_sync_InitializeApplicationInfoEm = 0x000000000003e700 + __sdk_start;
_ZN2nn5audio6server12DetailAspectC1EPNS1_16CommandGeneratorENS0_20PerformanceEntryTypeEjNS0_21PerformanceDetailTypeE = 0x00000000000a1ff0 + __sdk_start;
_ZN2nn6socket6detail9InetNtohsEt = 0x000000000036b090 + __sdk_start;
_ZN2nn3hid5debug24UnsetMouseAutoPilotStateEv = 0x00000000002467f0 + __sdk_start;
_ZTIN2nn5fssrv2sf27ISaveDataTransferProhibiterE = 0x0000000000bd52a0 + __sdk_start;
_ZN2nn2fs14VerifySaveDataEPbmPvm = 0x0000000000218200 + __sdk_start;
nnmem_nlib_memspn = 0x00000000002c0520 + __sdk_start;
_ZN2nn2vi8profiler13GetVsyncEventEPNS_2os15SystemEventTypeE = 0x00000000003b14d0 + __sdk_start;
_ZN2nn9bluetooth24SetLeConnectionParameterENS0_18LeConnectionParamsE = 0x00000000000cb580 + __sdk_start;
_ZN2nn5codec22CChannelElement_DecodeEPPNS0_22CAacDecoderChannelInfoEPPNS0_28CAacDecoderStaticChannelInfoEPNS0_16SamplingRateInfoEji = 0x00000000001302f0 + __sdk_start;
_ZN2nn4time13ClockSnapshot31CreateWithAdjustableSystemClockEPS1_ = 0x0000000000384720 + __sdk_start;
_ZNSt3__16stoullERKNS_12basic_stringIcNS_11char_traitsIcEENS_9allocatorIcEEEEPmi = 0x00000000004996a8 + __sdk_start;
_ZN2nn2os20InitializeTimerEventEPNS0_14TimerEventTypeENS0_14EventClearModeE = 0x0000000000325320 + __sdk_start;
NvDdkVicExecute = 0x00000000003ec1f0 + __sdk_start;
_ZNSt3__121__libcpp_thread_yieldEv = 0x000000000049ea18 + __sdk_start;
_ZN2nn5audio6server17PerfMeasureAspectD2Ev = 0x00000000000a0000 + __sdk_start;
_ZNKSt3__117moneypunct_bynameIcLb0EE11do_groupingEv = 0x0000000000474570 + __sdk_start;
_ZN2nn3ngc6detail15NullInputStream6Close_Ev = 0x000000000030d550 + __sdk_start;
_ZN2nn7friends13FriendSetting18ChangeFavoriteFlagEPNS0_12AsyncContextEb = 0x00000000001dca30 + __sdk_start;
_ZN2nn3web20LobbyPageReturnValueC2Ev = 0x00000000002bdbc0 + __sdk_start;
_ZN2nn3hid5debug29StartFirmwareUpdateIndividualEPNS0_6system26FirmwareUpdateDeviceHandleENS2_11UniquePadIdENS1_24FirmwareUpdateTargetChipEPcm = 0x0000000000244100 + __sdk_start;
_ZN7android7String8C1ERKS0_ = 0x0000000000034dd0 + __sdk_start;
_ZNSt16invalid_argumentD0Ev = 0x00000000004b55a0 + __sdk_start;
strcmp = 0x00000000004b8d80 + __sdk_start;
_ZNK2nn3mii6detail12StoreDataRaw12GetMoleScaleEv = 0x00000000002ea040 + __sdk_start;
NvRmSyncExtractSemaphore = 0x00000000003d1480 + __sdk_start;
nvgr_get_write_count = 0x00000000003ee030 + __sdk_start;
_ZN7android6Region7andSelfERKNS_4RectE = 0x0000000000030e30 + __sdk_start;
_ZN2nn9bluetooth23EnableBleAutoConnectionERKNS0_27BleAdvertisePacketParameterE = 0x00000000000cefb0 + __sdk_start;
nncodecLibopus_silk_lin2log = 0x00000000000ff2f0 + __sdk_start;
_ZNK2nn3mii11AppletInput7GetModeEv = 0x00000000002f7a80 + __sdk_start;
_ZN2nn2sf4cmif6client34CmifDomainProxyClientCoreProcessorINS0_4hipc6client38Hipc2ClientSessionManagedProxyKindBaseINS5_18Hipc2ProxyKindBaseILNS4_6detail11MessageTypeE6EEEEENS1_6detail14CoreMethodInfoINSt3__15tupleIJNSC_17InRawArgumentInfoILm8ELm8ELl8EEENSC_20InObjectArgumentInfoILi0ELi0EEENSG_ILm4ELm4ELl0EEENSG_ILm4ELm4ELl4EEEEEELm16ELm0ELb0EEESM_E7ProcessEPNS2_23CmifDomainClientMessageISB_E15ProxyBaseObjectENS2_23InRawClientArgumentTypeILm8ELm8EvEENS2_26InObjectClientArgumentTypeENST_ILm4ELm4EvEESW_j = 0x00000000000628d0 + __sdk_start;
_ZN2nn2sf4cmif6client6detail13CmifProxyImplINS_2am7service15ISelfControllerENS0_4hipc6client18Hipc2ProxyKindBaseILNS8_6detail11MessageTypeE6EEENS0_30MemoryResourceAllocationPolicyES7_NS3_19ProcessModifierImplINS2_21DefaultProxyFilterTagEEEE34_nn_sf_sync_IsIlluminanceAvailableENS0_3OutIbvEE = 0x000000000006a350 + __sdk_start;
_ZN2nn2sf4cmif6client6detail13CmifProxyImplINS_2am7service18ICommonStateGetterENS0_4hipc6client18Hipc2ProxyKindBaseILNS8_6detail11MessageTypeE6EEENS0_30MemoryResourceAllocationPolicyES7_NS3_19ProcessModifierImplINS2_21DefaultProxyFilterTagEEEE23_nn_sf_sync_GetBootModeENS0_3OutIhvEE = 0x0000000000068950 + __sdk_start;
_ZN2nn5album24MovieMakerMovieParameter18SetAudioSampleRateEi = 0x00000000000503b0 + __sdk_start;
_ZNSt3__111__libcpp_dbD2Ev = 0x000000000044e538 + __sdk_start;
_ZN2nn4pctl6detail17EventObjectHolderD2Ev = 0x00000000003303d0 + __sdk_start;
_ZN2nn4pctl6detail3ipc35InitializeWatcherIpcSessionIfNeededEv = 0x00000000003334c0 + __sdk_start;
_ZNSt3__124__libcpp_debug_exceptionC2ERKNS_19__libcpp_debug_infoE = 0x000000000044e170 + __sdk_start;
_ZN2nn4diag6detail20GetAllModuleInfoImplEPmPvmb = 0x0000000000180c70 + __sdk_start;
_ZN2nn3mem19NumberLineAllocator11RemoveRangeEii = 0x00000000002df230 + __sdk_start;
_ZTIN2nn5audio6server12SinkInfoBaseE = 0x0000000000bcd8f8 + __sdk_start;
_ZN2nn3hid15VibrationTargetD2Ev = 0x000000000024dde0 + __sdk_start;
_ZNSt3__114collate_bynameIwED2Ev = 0x0000000000484dc0 + __sdk_start;
nnosSignalEvent = 0x0000000000329410 + __sdk_start;
_ZN2nn2sf4cmif6client6detail13CmifProxyImplINS_7account19IAccountServiceBaseENS2_19CmifDomainProxyKindINS0_4hipc6client38Hipc2ClientSessionManagedProxyKindBaseINS9_18Hipc2ProxyKindBaseILNS8_6detail11MessageTypeE6EEEEEEENS0_25StatelessAllocationPolicyINS0_22ExpHeapStaticAllocatorILm2048ENS5_6detail12ObjectHolder24ObjectHolderAllocatorTagEEEEENS5_31IAccountServiceForSystemServiceENS3_19ProcessModifierImplINS2_21DefaultProxyFilterTagEEEE28_nn_sf_sync_GetUserExistenceENS0_3OutIbvEERKNS5_3UidE = 0x00000000000417c0 + __sdk_start;
_ZN2nn8settings6detail15GetSerialNumberEPNS0_7factory12SerialNumberE = 0x000000000034eb10 + __sdk_start;
_ZN7android8Composer17getDisplaySurfaceERKNS_2spINS_7IBinderEEERNS1_INS_22IGraphicBufferProducerEEERNS1_INS_22IGraphicBufferConsumerEEE = 0x0000000000029870 + __sdk_start;
_ZNSt3__111timed_mutexC2Ev = 0x0000000000492620 + __sdk_start;
__pthread_exit = 0x00000000004bcff8 + __sdk_start;
_ZN2nn2sf4cmif6client6detail13CmifProxyImplINS_2am7service15IAppletAccessorENS0_4hipc6client18Hipc2ProxyKindBaseILNS8_6detail11MessageTypeE6EEENS0_30MemoryResourceAllocationPolicyENS6_20IApplicationAccessorENS3_19ProcessModifierImplINS2_21DefaultProxyFilterTagEEEE23_nn_sf_sync_RequestExitEv = 0x000000000006d8b0 + __sdk_start;
NvRmMemPin = 0x00000000003cf780 + __sdk_start;
__string_read = 0x00000000004f5a10 + __sdk_start;
_ZN2nn2os11SetTlsValueENS0_7TlsSlotEm = 0x0000000000327fa0 + __sdk_start;
_ZTIN2nn2am7service30IAllSystemAppletProxiesServiceE = 0x0000000000bc3b70 + __sdk_start;
nvgr_alloc_ext = 0x00000000003ee570 + __sdk_start;
_ZTIN2nn2sf6detail19InterfaceInfoBottomINS0_14IServiceObjectEE4_tABINS0_13InterfaceInfoINS_5audio6detail21IAudioRendererManagerEE5_tO2NINS7_6server24AudioRendererManagerImplEE4typeES9_E4typeE = 0x0000000000bcdaa0 + __sdk_start;
_ZN2nn4htcs14GetPeerNameAnyEv = 0x000000000026a280 + __sdk_start;
_ZN2nn3hid6system10HasBatteryERKj = 0x00000000002479b0 + __sdk_start;
_ZN2nn2sf4cmif6client6detail13CmifProxyImplINS_3hid16IHidSystemServerENS0_4hipc6client18Hipc2ProxyKindBaseILNS7_6detail11MessageTypeE6EEENS0_30MemoryResourceAllocationPolicyES6_NS3_19ProcessModifierImplINS2_21DefaultProxyFilterTagEEEE37_nn_sf_sync_EndPermitVibrationSessionEv = 0x000000000025e970 + __sdk_start;
_ZN2nn2fs13ReadDirectoryEPlPNS0_14DirectoryEntryENS0_15DirectoryHandleEl = 0x00000000001f0da0 + __sdk_start;
nncodecLibopus_opus_get_version_string = 0x00000000000dc4a0 + __sdk_start;
_ZN2nn2lm6detail24LogPacketTransmitterBase11PushUleb128Em = 0x00000000002b9e30 + __sdk_start;
copy_outline = 0x00000000001c78c0 + __sdk_start;
__powisf2 = 0x00000000005015d0 + __sdk_start;
pcmDmx_SetParam = 0x000000000014f570 + __sdk_start;
_ZN2nn3hid24GetSupportedNpadStyleSetEv = 0x0000000000246d20 + __sdk_start;
_ZN2nn2fs19RegisterExternalKeyERKNS0_8RightsIdERKNS_3spl9AccessKeyE = 0x0000000000212080 + __sdk_start;
_ZN2nn7account42NintendoAccountAuthorizationRequestContext14GetSystemEventEPNS_2os11SystemEventE = 0x000000000004caa0 + __sdk_start;
_ZN2nn8irsensor6detail7Session10DeactivateEv = 0x000000000029a3a0 + __sdk_start;
fileno_unlocked = 0x00000000004f27a0 + __sdk_start;
_ZNK2nn3ngc6detail9SbvSelect6ExportEPNS1_12BinaryWriterE = 0x000000000030ea40 + __sdk_start;
_ZdlPv = 0x0000000000492ca8 + __sdk_start;
_ZZN2nn2sf40SimpleAllInOneHipcSubDomainClientManagerILm5EE27InitializeShimLibraryHolderINS_7timesrv6detail7service14IStaticServiceENS0_4cmif6client6detail19ProcessModifierImplINS9_21DefaultProxyFilterTagEEEEENS_6ResultEPNS0_23ShimLibraryObjectHolderIT_EEPKcPNS_14MemoryResourceEENUlPNS0_13SharedPointerIS7_EEE_clESP_ = 0x00000000003879b0 + __sdk_start;
_ZN2nn3hid6system13DeactivateNfcEjNS_6applet20AppletResourceUserIdE = 0x0000000000246bb0 + __sdk_start;
__muloti4 = 0x0000000000500608 + __sdk_start;
_ZN2nn2sf4cmif6client6detail13CmifProxyImplINS_2am7service22IGlobalStateControllerENS0_4hipc6client18Hipc2ProxyKindBaseILNS8_6detail11MessageTypeE6EEENS0_30MemoryResourceAllocationPolicyES7_NS3_19ProcessModifierImplINS2_21DefaultProxyFilterTagEEEE31_nn_sf_sync_RequestToEnterSleepEv = 0x0000000000070600 + __sdk_start;
_ZN2nn2sf4cmif6client6detail13CmifProxyImplINS_7account4baas12IManagerBaseENS2_19CmifDomainProxyKindINS0_4hipc6client38Hipc2ClientSessionManagedProxyKindBaseINSA_18Hipc2ProxyKindBaseILNS9_6detail11MessageTypeE6EEEEEEENS0_25StatelessAllocationPolicyINS0_22ExpHeapStaticAllocatorILm2048ENS5_6detail12ObjectHolder24ObjectHolderAllocatorTagEEEEENS6_24IManagerForSystemServiceENS3_19ProcessModifierImplINS2_21DefaultProxyFilterTagEEEE29_nn_sf_sync_CheckAvailabilityEv = 0x00000000000422a0 + __sdk_start;
_ZN2nn2sf4cmif6client34CmifDomainProxyClientCoreProcessorINS0_4hipc6client38Hipc2ClientSessionManagedProxyKindBaseINS5_18Hipc2ProxyKindBaseILNS4_6detail11MessageTypeE6EEEEENS1_6detail14CoreMethodInfoINSt3__15tupleIJNSC_18OutRawArgumentInfoILm8ELm8ELl0EEENSC_17InRawArgumentInfoILm32ELm8ELl0EEEEEELm32ELm8ELb0EEESK_E7ProcessEPNS2_23CmifDomainClientMessageISB_E15ProxyBaseObjectENS2_24OutRawClientArgumentTypeILm8ELm8EEENS2_23InRawClientArgumentTypeILm32ELm8EvEEj = 0x0000000000389df0 + __sdk_start;
_ZN7android13GraphicBuffer8initSizeEjjij = 0x000000000002e7b0 + __sdk_start;
nnmem_nlib_memchr_not = 0x00000000002d44c0 + __sdk_start;
nnmem_nlib_strrchr_simd = 0x00000000002d4080 + __sdk_start;
_ZN2nn2sf4cmif6client34CmifDomainProxyClientCoreProcessorINS0_4hipc6client38Hipc2ClientSessionManagedProxyKindBaseINS5_18Hipc2ProxyKindBaseILNS4_6detail11MessageTypeE6EEEEENS1_6detail14CoreMethodInfoINSt3__15tupleIJNSC_18OutRawArgumentInfoILm4ELm4ELl0EEENSG_ILm4ELm4ELl4EEENSC_17InRawArgumentInfoILm4ELm4ELl0EEENSC_18BufferArgumentInfoILi0ELi6ELm0EEENSJ_ILm4ELm4ELl4EEENSJ_ILm4ELm4ELl8EEEEEELm12ELm8ELb0EEESP_E7ProcessEPNS2_23CmifDomainClientMessageISB_E15ProxyBaseObjectENS2_24OutRawClientArgumentTypeILm4ELm4EEESX_NS2_23InRawClientArgumentTypeILm4ELm4EvEENS2_24BufferClientArgumentTypeESZ_SZ_j = 0x0000000000372440 + __sdk_start;
_ZN2nn5codec6detail21GetOpusBandwidthValueENS0_13OpusBandwidthE = 0x000000000011f290 + __sdk_start;
_ZTIN2nn3nim6detail20IShopServiceAccessorE = 0x0000000000bd1950 + __sdk_start;
_ZN2nn5audio6common11SupportTags38VoicePlayedSampleCountResetAtLoopPointE = 0x0000000000bcb480 + __sdk_start;
_ZN2nn5codec35Hcr_State_BODY_SIGN_ESC__ESC_PREFIXEPNS0_13FDK_BITSTREAMEPv = 0x0000000000128450 + __sdk_start;
_ZN2nn4nifm6detail13RequestClientD1Ev = 0x0000000000312f80 + __sdk_start;
_ZN2nn4edid6detail21AudioDataBlockVisitorEPKhmNS0_6cea8618BlockTagEPv = 0x0000000000193fa0 + __sdk_start;
_ZN2nn2fs15RomFsFileSystem28DoDeleteDirectoryRecursivelyEPKc = 0x00000000001ed0f0 + __sdk_start;
_ZN2nn2sf4cmif6client6detail13CmifProxyImplINS_8settings21ISystemSettingsServerENS0_4hipc6client18Hipc2ProxyKindBaseILNS7_6detail11MessageTypeE6EEENS0_30MemoryResourceAllocationPolicyES6_NS3_19ProcessModifierImplINS2_21DefaultProxyFilterTagEEEE42_nn_sf_sync_SetHeadphoneVolumeWarningCountEi = 0x0000000000342680 + __sdk_start;
_ZN2nn4util16BinaryFileHeader11SetFileSizeEm = 0x0000000000398700 + __sdk_start;
_ZN2nn2sf4cmif6client6detail13CmifProxyImplINS_2am7service17IWindowControllerENS2_19CmifDomainProxyKindINS0_4hipc6client38Hipc2ClientSessionManagedProxyKindBaseINSA_18Hipc2ProxyKindBaseILNS9_6detail11MessageTypeE6EEEEEEENS0_30MemoryResourceAllocationPolicyES7_NS3_19ProcessModifierImplINS2_21DefaultProxyFilterTagEEEE37_nn_sf_sync_SetAppletWindowVisibilityEb = 0x0000000000059fb0 + __sdk_start;
_ZN2nn6applet21CreateTransferStorageEPNS0_13StorageHandleEPvm = 0x000000000007d700 + __sdk_start;
_ZN2nn8settings6detail32CreateFactorySettingsServerProxyEPNS_2sf13SharedPointerINS0_22IFactorySettingsServerEEE = 0x00000000003513a0 + __sdk_start;
_ZN2nn2sf4hipc6client24Hipc2ClientCoreProcessorILNS1_6detail11MessageTypeE6ENS0_4cmif6detail14CoreMethodInfoINSt3__15tupleIJNS7_21OutObjectArgumentInfoILi0ELi0EEENS7_18BufferArgumentInfoILi0ELi25ELm72EEEEEELm0ELm0ELb0EEESF_E21ProcessWithOutObjectsEPNS2_26Hipc2ClientProxyBaseObjectENS6_6client27OutObjectClientArgumentTypeENSK_24BufferClientArgumentTypeEjPNS0_13SharedPointerINS0_14IServiceObjectEEE = 0x0000000000340ae0 + __sdk_start;
_ZN2nn3web6detail40WebSessionSendSystemMessageGroupIncludesENS1_25WebSessionSendMessageKindE = 0x00000000003b6290 + __sdk_start;
_ZN2nn2sf4hipc6client24Hipc2ClientCoreProcessorILNS1_6detail11MessageTypeE6ENS0_4cmif6detail14CoreMethodInfoINSt3__15tupleIJNS7_17InRawArgumentInfoILm8ELm8ELl8EEENSB_ILm1ELm1ELl0EEEEEELm16ELm0ELb1EEESE_E7ProcessEPNS2_26Hipc2ClientProxyBaseObjectENS6_6client23InRawClientArgumentTypeILm8ELm8EvEENSK_ILm1ELm1EvEEj = 0x0000000000256e50 + __sdk_start;
NvRmChipGetCapabilityBool = 0x00000000003c9b70 + __sdk_start;
_ZNK7android6Region4dumpEPKcj = 0x0000000000032390 + __sdk_start;
_ZN2nn5audio15PerformanceInfo9SetBufferEPKvm = 0x0000000000086b80 + __sdk_start;
_ZNSt3__113basic_istreamIwNS_11char_traitsIwEEE6sentryC2ERS3_b = 0x00000000004568c0 + __sdk_start;
_ZNK2nn3mii6detail24NfpStoreDataExtentionRaw7IsValidEv = 0x00000000002e8090 + __sdk_start;
_ZN2nn2oe35BeginBlockingHomeButtonShortPressedEv = 0x0000000000321810 + __sdk_start;
_ZTVN7android17BnSurfaceComposerE = 0x0000000000bbaaa8 + __sdk_start;
__udivdi3 = 0x0000000000501b70 + __sdk_start;
_ZN2nn2fs11FileStorageD0Ev = 0x00000000001eabd0 + __sdk_start;
_ZN2nn4bcat26DeleteDeliveryCacheStorageENS_13ApplicationIdE = 0x00000000000bfb80 + __sdk_start;
_ZNK2nn3mii6detail12StoreDataRaw11GetCreateIdEv = 0x00000000002e9d50 + __sdk_start;
_ZN2nn2sf4cmif6client6detail13CmifProxyImplINS_2am7service18ICommonStateGetterENS2_19CmifDomainProxyKindINS0_4hipc6client38Hipc2ClientSessionManagedProxyKindBaseINSA_18Hipc2ProxyKindBaseILNS9_6detail11MessageTypeE6EEEEEEENS0_30MemoryResourceAllocationPolicyES7_NS3_19ProcessModifierImplINS2_21DefaultProxyFilterTagEEEE37_nn_sf_sync_RequestToAcquireSleepLockEv = 0x0000000000057190 + __sdk_start;
_ZN2nn2sf4hipc6client24Hipc2ClientCoreProcessorILNS1_6detail11MessageTypeE6ENS0_4cmif6detail14CoreMethodInfoINSt3__15tupleIJNS7_18OutRawArgumentInfoILm4ELm4ELl0EEENSB_ILm4ELm4ELl4EEENS7_18BufferArgumentInfoILi0ELi6ELm0EEENSE_ILi1ELi5ELm0EEEEEELm0ELm8ELb0EEESH_E7ProcessEPNS2_26Hipc2ClientProxyBaseObjectENS6_6client24OutRawClientArgumentTypeILm4ELm4EEESO_NSM_24BufferClientArgumentTypeESP_j = 0x0000000000120060 + __sdk_start;
_ZN2nn2sf4hipc6client24Hipc2ClientCoreProcessorILNS1_6detail11MessageTypeE6ENS0_4cmif6detail14CoreMethodInfoINSt3__15tupleIJNS7_18BufferArgumentInfoILi0ELi33ELm0EEEEEELm0ELm0ELb0EEESD_E7ProcessEPNS2_26Hipc2ClientProxyBaseObjectENS6_6client24BufferClientArgumentTypeEj = 0x00000000002bae50 + __sdk_start;
_ZN2nn2sf4cmif6client6detail13CmifProxyImplINS_3hid16IHidSystemServerENS0_4hipc6client18Hipc2ProxyKindBaseILNS7_6detail11MessageTypeE6EEENS0_25StatelessAllocationPolicyINS0_22ExpHeapStaticAllocatorILm16384ENS5_6detail15HidSystemServerEEEEES6_NS3_19ProcessModifierImplINS2_21DefaultProxyFilterTagEEEE46_nn_sf_sync_CancelSixAxisSensorUserCalibrationENS5_6system25UniqueSixAxisSensorHandleE = 0x0000000000258f80 + __sdk_start;
_ZNSt3__127__insertion_sort_incompleteIRNS_6__lessIddEEPdEEbT0_S5_T_ = 0x000000000044c020 + __sdk_start;
_ZNSt3__16__sortIRNS_6__lessIddEEPdEEvT0_S5_T_ = 0x000000000044b810 + __sdk_start;
_ZNKSt3__117moneypunct_bynameIwLb0EE13do_neg_formatEv = 0x0000000000475398 + __sdk_start;
_ZNK2nn5audio6server12VoiceContext8GetCountEv = 0x00000000000ad580 + __sdk_start;
_ZN2nn5audio3dsp7MailBox5CloseEv = 0x00000000000b2ef0 + __sdk_start;
_ZN2nn5swkbd28SetLeftOptionalSymbolKeyUtf8EPNS0_14KeyboardConfigEPKc = 0x000000000037fe70 + __sdk_start;
__fesetround = 0x00000000004b8bbc + __sdk_start;
_ZN2nn2os23SignalConditionVariableEPNS0_21ConditionVariableTypeE = 0x0000000000324460 + __sdk_start;
nnsocketGetHostByAddrWithOptions = 0x0000000000360e30 + __sdk_start;
_ZN2nn7account32CompleteUserRegistrationForciblyERKNS0_3UidE = 0x000000000003d6f0 + __sdk_start;
_ZN2nn3hid19SuspendPalmaFeatureERKNS0_21PalmaConnectionHandleERKNS_4util10BitFlagSetILi32ENS0_12PalmaFeatureEEE = 0x0000000000248e70 + __sdk_start;
_ZN2nn2sf4hipc6client24Hipc2ClientCoreProcessorILNS1_6detail11MessageTypeE6ENS0_4cmif6detail14CoreMethodInfoINSt3__15tupleIJNS7_17InRawArgumentInfoILm8ELm8ELl8EEENSB_ILm4ELm4ELl0EEENSB_ILm32ELm8ELl16EEENS7_20InHandleArgumentInfoILi0ELi1EEENSB_ILm8ELm8ELl48EEEEEELm56ELm0ELb1EEESI_E7ProcessEPNS2_26Hipc2ClientProxyBaseObjectENS6_6client23InRawClientArgumentTypeILm8ELm8EvEENSO_ILm4ELm4EvEENSO_ILm32ELm8EvEENSN_26InHandleClientArgumentTypeESP_j = 0x000000000029fa50 + __sdk_start;
_ZNSt3__122__libcpp_mutex_destroyEPN2nn2os9MutexTypeE = 0x000000000049eb68 + __sdk_start;
_ZN2nn9bluetooth22GetIsManufacturingModeEv = 0x00000000000ca620 + __sdk_start;
_ZN2nn5codec22CAacDecoder_AncDataGetEPNS0_8CAncDataEiPPhPi = 0x000000000012a8f0 + __sdk_start;
_ZN2nn5prepo16SystemPlayReport4SaveEv = 0x000000000033ab00 + __sdk_start;
_ZN2nn6crypto21GenerateHmacSha256MacEPvmPKvmS3_m = 0x0000000000173510 + __sdk_start;
_ZN2nn5image6detail4jpeg17jpeg_write_tablesEPNS2_20jpeg_compress_structE = 0x000000000026ca00 + __sdk_start;
_ZN2nn2sf4hipc6client28Hipc2ClientCoreProcessorImpl19WriteBufferDataImplEPNS1_6detail17HipcMessageWriterEiPKNS0_6detail14PointerAndSizeEPKimm = 0x000000000017e180 + __sdk_start;
_ZN2nn7account44EnsureNetworkServiceAccountIdTokenCacheAsyncEPNS0_12AsyncContextERKNS0_10UserHandleE = 0x000000000004a6d0 + __sdk_start;
_ZNSt3__111__money_getIwE13__gather_infoEbRKNS_6localeERNS_10money_base7patternERwS8_RNS_12basic_stringIcNS_11char_traitsIcEENS_9allocatorIcEEEERNS9_IwNSA_IwEENSC_IwEEEESJ_SJ_Ri = 0x0000000000479a68 + __sdk_start;
_ZNSt3__18__sp_mut4lockEv = 0x00000000004922c8 + __sdk_start;
_ZNKSt3__18time_getIwNS_19istreambuf_iteratorIwNS_11char_traitsIwEEEEE10__get_hourERiRS4_S4_RjRKNS_5ctypeIwEE = 0x000000000046f260 + __sdk_start;
_ZTIN2nn2am7service8IStorageE = 0x0000000000bc45b0 + __sdk_start;
nvgr_get_video_metadata = 0x00000000003ee0b0 + __sdk_start;
_ZN2nn2sf4cmif6client6detail13CmifProxyImplINS_5visrv2sf22IManagerDisplayServiceENS0_4hipc6client18Hipc2ProxyKindBaseILNS8_6detail11MessageTypeE6EEENS0_30MemoryResourceAllocationPolicyES7_NS3_19ProcessModifierImplINS2_21DefaultProxyFilterTagEEEE31_nn_sf_sync_DestroyManagedLayerEm = 0x00000000003a7200 + __sdk_start;
_ZN2nn3web10WebSessionD2Ev = 0x00000000003b5a60 + __sdk_start;
_ZTv0_n24_NSt3__113basic_ostreamIwNS_11char_traitsIwEEED1Ev = 0x000000000045b4f0 + __sdk_start;
_ZN2nn4nifm6detail17ScanRequestClientC2ENS_2os14EventClearModeE = 0x00000000003139a0 + __sdk_start;
_ZTIN2nn2sf4cmif6client6detail9CmifProxyINS_4nifm6detail14IStaticServiceENS2_19CmifDomainProxyKindINS0_4hipc6client38Hipc2ClientSessionManagedProxyKindBaseINSA_18Hipc2ProxyKindBaseILNS9_6detail11MessageTypeE6EEEEEEENS0_30MemoryResourceAllocationPolicyENS3_19ProcessModifierImplINS2_21DefaultProxyFilterTagEEEvEE = 0x0000000000bddda0 + __sdk_start;
_ZN2nn2sf4cmif6client6detail13CmifProxyImplINS_3ntc6detail7service14IStaticServiceENS0_4hipc6client18Hipc2ProxyKindBaseILNS9_6detail11MessageTypeE6EEENS0_30MemoryResourceAllocationPolicyES8_NS3_19ProcessModifierImplINS2_21DefaultProxyFilterTagEEEE41_nn_sf_sync_ResumeAutonomicTimeCorrectionEv = 0x000000000038b7f0 + __sdk_start;
_ZNK7android6Region14mergeExclusiveERKS0_ = 0x0000000000031690 + __sdk_start;
nnmem_nlib_strrchr_generic = 0x00000000002c1700 + __sdk_start;
_ZN2nn2sf4cmif6client6detail36GetClientProcessorImplWithObjectBaseINS0_4hipc6client18Hipc2ProxyKindBaseILNS5_6detail11MessageTypeE6EEENS3_19ProcessModifierImplINS2_21DefaultProxyFilterTagEEEE14ObjectAssignerINS0_30MemoryResourceAllocationPolicyENS_14MemoryResourceEE14AllocateObjectINS_2am7service18IDisplayControllerEEEvi = 0x000000000006c660 + __sdk_start;
_ZNSt20bad_array_new_lengthD0Ev = 0x00000000004b5358 + __sdk_start;
encrypt = 0x00000000004d6670 + __sdk_start;
_Z26nnmem_nlib_thread_exit_cppv = 0x00000000002d33a0 + __sdk_start;
_ZN2nn5swkbd14InlineKeyboard6LaunchEv = 0x00000000003806f0 + __sdk_start;
_ZN2nn6socket4PollEPNS0_6PollFdEmi = 0x00000000003604a0 + __sdk_start;
_ZN2nn7account32DebugInvalidateUserResourceCacheERKNS0_3UidE = 0x000000000003dc80 + __sdk_start;
nnsocketEventFd = 0x0000000000360f40 + __sdk_start;
_ZN2nn4nifm26EnumerateNetworkInterfacesEPNS0_20NetworkInterfaceInfoEPiij = 0x00000000003199a0 + __sdk_start;
_ZN2nn2os6detail27InterruptEventImplByHorizonC2EiNS0_14EventClearModeE = 0x000000000032e780 + __sdk_start;
_ZTVN2nn2sf6detail38ObjectImplFactoryWithStatefulAllocatorINS0_4cmif6client6detail9CmifProxyINS_2am7service16IAudioControllerENS0_4hipc6client18Hipc2ProxyKindBaseILNSA_6detail11MessageTypeE6EEENS0_30MemoryResourceAllocationPolicyENS5_19ProcessModifierImplINS4_21DefaultProxyFilterTagEEEvEESG_E6ObjectE = 0x0000000000bc8348 + __sdk_start;
_ZN2nn5audio6server14MemoryPoolInfoC2ENS2_8LocationE = 0x00000000000a89a0 + __sdk_start;
nnsslFinalize = 0x000000000037af80 + __sdk_start;
_ZN2nn3hid17StopSixAxisSensorERKNS0_19SixAxisSensorHandleE = 0x0000000000249830 + __sdk_start;
__subvti3 = 0x00000000005016e8 + __sdk_start;
_ZN2nn4diag27InitializeLogObserverHolderEPNS0_17LogObserverHolderEPFvRKNS0_11LogMetaDataERKNS0_7LogBodyEPvES9_ = 0x000000000017f7d0 + __sdk_start;
nnmem_nlib_thread_setpriority = 0x00000000002d3350 + __sdk_start;
NvOsInterruptUnregister = 0x00000000003c47f0 + __sdk_start;
_ZN2nn2sf4cmif6client34CmifDomainProxyClientCoreProcessorINS0_4hipc6client38Hipc2ClientSessionManagedProxyKindBaseINS5_18Hipc2ProxyKindBaseILNS4_6detail11MessageTypeE6EEEEENS1_6detail14CoreMethodInfoINSt3__15tupleIJNSC_21OutObjectArgumentInfoILi0ELi0EEENSC_17InRawArgumentInfoILm8ELm8ELl8EEENSI_ILm1ELm1ELl0EEEEEELm16ELm0ELb0EEESL_E21ProcessWithOutObjectsEPNS2_23CmifDomainClientMessageISB_E15ProxyBaseObjectENS2_27OutObjectClientArgumentTypeENS2_23InRawClientArgumentTypeILm8ELm8EvEENST_ILm1ELm1EvEEjPNS0_13SharedPointerINS0_14IServiceObjectEEE = 0x0000000000206180 + __sdk_start;
_ZTIN2nn2sf6detail39ObjectImplFactoryWithStatelessAllocatorINS0_4cmif6client6detail9CmifProxyINS_7account7profile8IProfileENS4_19CmifDomainProxyKindINS0_4hipc6client38Hipc2ClientSessionManagedProxyKindBaseINSC_18Hipc2ProxyKindBaseILNSB_6detail11MessageTypeE6EEEEEEENS0_25StatelessAllocationPolicyINS0_22ExpHeapStaticAllocatorILm2048ENS7_6detail12ObjectHolder24ObjectHolderAllocatorTagEEEEENS5_19ProcessModifierImplINS4_21DefaultProxyFilterTagEEEvEESQ_E6ObjectE = 0x0000000000bbd8e0 + __sdk_start;
_ZN2nn2sf6detail38ObjectImplFactoryWithStatefulAllocatorINS0_4cmif6client6detail9CmifProxyINS_2am7service31ISystemAppletControllerForDebugENS0_4hipc6client18Hipc2ProxyKindBaseILNSA_6detail11MessageTypeE6EEENS0_30MemoryResourceAllocationPolicyENS5_19ProcessModifierImplINS4_21DefaultProxyFilterTagEEEvEESG_E6Object12AddReferenceEv = 0x0000000000077de0 + __sdk_start;
_ZN2nn5codec4fPowEiiiiPi = 0x0000000000141a80 + __sdk_start;
_ZN2nn5codec40InitializeHardwareOpusMultiStreamDecoderEPNS0_34HardwareOpusMultiStreamDecoderTypeEiiiiPKhPvmi = 0x000000000011db40 + __sdk_start;
_ZN2nn3nfp6detail10CheckErrorERKNS_6ResultE = 0x00000000002ff4a0 + __sdk_start;
_ZNSt3__18__get_dbEv = 0x000000000044e3a0 + __sdk_start;
_ZN2nn4lmem6detail14SetHeapFillValEij = 0x00000000002bc080 + __sdk_start;
_ZTVN2nn2sf6detail38ObjectImplFactoryWithStatefulAllocatorINS0_4cmif6client6detail9CmifProxyINS_3nim6detail24IShopServiceAccessServerENS0_4hipc6client18Hipc2ProxyKindBaseILNSA_6detail11MessageTypeE6EEENS0_30MemoryResourceAllocationPolicyENS5_19ProcessModifierImplINS4_21DefaultProxyFilterTagEEEvEESG_E6ObjectE = 0x0000000000bd17d8 + __sdk_start;
_ZN7android8String165setToEPKDs = 0x0000000000034410 + __sdk_start;
_ZNKSt3__117moneypunct_bynameIwLb0EE16do_negative_signEv = 0x0000000000475378 + __sdk_start;
_ZN2nn5swkbd6detail18InlineKeyboardImpl22SetMovedCursorCallbackEPFvPKNS0_14MovedCursorArgEE = 0x0000000000382690 + __sdk_start;
_ZN2nn2sf4cmif6client6detail13CmifProxyImplINS_5visrv2sf21ISystemDisplayServiceENS0_4hipc6client18Hipc2ProxyKindBaseILNS8_6detail11MessageTypeE6EEENS0_30MemoryResourceAllocationPolicyES7_NS3_19ProcessModifierImplINS2_21DefaultProxyFilterTagEEEE32_nn_sf_sync_ListDisplayRgbRangesENS0_3OutIlvEERKNS0_8OutArrayIjEEm = 0x00000000003a59e0 + __sdk_start;
_ZNK7android6Parcel11readCStringEv = 0x000000000000a5d0 + __sdk_start;
_ZN2nn5image6detail4jpeg13jpeg_mem_destEPNS2_20jpeg_compress_structEPPhPm = 0x00000000002906d0 + __sdk_start;
_ZN2nn7account13ProfileEditorC1EOS1_ = 0x000000000004d970 + __sdk_start;
_ZN2nn2sf4cmif6client6detail13CmifProxyImplINS_2am7service15ISelfControllerENS0_4hipc6client18Hipc2ProxyKindBaseILNS8_6detail11MessageTypeE6EEENS0_30MemoryResourceAllocationPolicyES7_NS3_19ProcessModifierImplINS2_21DefaultProxyFilterTagEEEE38_nn_sf_sync_SetInputDetectionSourceSetEj = 0x000000000006a2e0 + __sdk_start;
_ZN2nn5audio11OpenAudioInEPNS0_7AudioInEPKcRKNS0_16AudioInParameterE = 0x0000000000098540 + __sdk_start;
_ZN2nn3hid5debug21FinalizeInputDetectorEv = 0x0000000000244b70 + __sdk_start;
NvWsiNativeDisplayUnref = 0x00000000003fd460 + __sdk_start;
_ZNKSt3__18time_getIcNS_19istreambuf_iteratorIcNS_11char_traitsIcEEEEE9__get_dayERiRS4_S4_RjRKNS_5ctypeIcEE = 0x000000000046d358 + __sdk_start;
ferror_unlocked = 0x00000000004f1ff8 + __sdk_start;
_ZNK2nn5audio3dsp20CommandListProcessor14GetBufferCountEv = 0x00000000000b0610 + __sdk_start;
wmemcpy = 0x00000000004f98a8 + __sdk_start;
_ZN2nn2fs23SaveDataTransferManager20OpenSaveDataExporterEPNSt3__110unique_ptrINS0_16SaveDataExporterENS2_14default_deleteIS4_EEEENS0_15SaveDataSpaceIdEm = 0x000000000021ce80 + __sdk_start;
_ZN2nn2sf4hipc6client24Hipc2ClientCoreProcessorILNS1_6detail11MessageTypeE6ENS0_4cmif6detail14CoreMethodInfoINSt3__15tupleIJNS7_17InRawArgumentInfoILm4ELm4ELl4EEENSB_ILm24ELm4ELl8EEENSB_ILm1ELm1ELl0EEENSB_ILm24ELm4ELl32EEENS7_18BufferArgumentInfoILi0ELi9ELm0EEENSB_ILm1ELm1ELl1EEENSB_ILm1ELm1ELl2EEEEEELm56ELm0ELb0EEESK_E7ProcessEPNS2_26Hipc2ClientProxyBaseObjectENS6_6client23InRawClientArgumentTypeILm4ELm4EvEENSQ_ILm24ELm4EvEENSQ_ILm1ELm1EvEESS_NSP_24BufferClientArgumentTypeEST_ST_j = 0x00000000000c9da0 + __sdk_start;
_ZN2nn2vi6buffer11BufferQueueD1Ev = 0x00000000003b0a60 + __sdk_start;
tanhf = 0x00000000004e4810 + __sdk_start;
_ZN2nn4util6detail7msgpack29GetRequiredSizeForWriteBinaryEj = 0x000000000039c250 + __sdk_start;
_ZN2nn4bcat25ClearDeliveryCacheStorageENS_13ApplicationIdE = 0x00000000000c0760 + __sdk_start;
_ZN2nn8settings6detail22GetUsb30HostEnableFlagEPb = 0x00000000003507b0 + __sdk_start;
_ZN2nn4time36SetStandardSteadyClockInternalOffsetENS_8TimeSpanE = 0x0000000000385d40 + __sdk_start;
_ZN2nn2sf4cmif6client6detail13CmifProxyImplINS_5visrv2sf21ISystemDisplayServiceENS0_4hipc6client18Hipc2ProxyKindBaseILNS8_6detail11MessageTypeE6EEENS0_30MemoryResourceAllocationPolicyES7_NS3_19ProcessModifierImplINS2_21DefaultProxyFilterTagEEEE39_nn_sf_sync_GetDisplayLogicalResolutionENS0_3OutIivEESK_m = 0x00000000003a5800 + __sdk_start;
_ZN2nn3hid6detail19GetTouchScreenStateILm9EEENS_6ResultEPNS0_16TouchScreenStateIXT_EEE = 0x000000000023c590 + __sdk_start;
_ZN2nn5image6detail4jpeg15jpeg_fdct_islowEPiPPhi = 0x0000000000288db0 + __sdk_start;
nnmem_nlib_log_print = 0x00000000002c40e0 + __sdk_start;
_ZN2nn2sf4cmif6client6detail13CmifProxyImplINS_2am7service8IStorageENS2_19CmifDomainProxyKindINS0_4hipc6client38Hipc2ClientSessionManagedProxyKindBaseINSA_18Hipc2ProxyKindBaseILNS9_6detail11MessageTypeE6EEEEEEENS0_30MemoryResourceAllocationPolicyES7_NS3_19ProcessModifierImplINS2_21DefaultProxyFilterTagEEEE17GetCmifBaseObjectEv = 0x0000000000059450 + __sdk_start;
_ZNK2nn2sf13SharedPointerINS_3btm12IBtmUserCoreEE19FunctionForBoolTypeEv = 0x00000000000d47b0 + __sdk_start;
_ZNKSt3__112basic_stringIcNS_11char_traitsIcEENS_9allocatorIcEEE4copyEPcmm = 0x00000000004959d0 + __sdk_start;
_ZN2nn2fs11FileStorageC1EPNS0_3fsa5IFileE = 0x00000000001ea080 + __sdk_start;
_ZN2nn2sf4cmif6client34CmifDomainProxyClientCoreProcessorINS0_4hipc6client38Hipc2ClientSessionManagedProxyKindBaseINS5_18Hipc2ProxyKindBaseILNS4_6detail11MessageTypeE6EEEEENS1_6detail14CoreMethodInfoINSt3__15tupleIJNSC_18BufferArgumentInfoILi0ELi10ELm0EEENSC_17InRawArgumentInfoILm8ELm8ELl0EEEEEELm8ELm0ELb0EEESK_E7ProcessEPNS2_23CmifDomainClientMessageISB_E15ProxyBaseObjectENS2_24BufferClientArgumentTypeENS2_23InRawClientArgumentTypeILm8ELm8EvEEj = 0x0000000000043db0 + __sdk_start;
_ZN2nn3err21ReportMultimediaErrorENS_6ResultERKN5movie25MultimediaTelemetryReportE = 0x00000000001964c0 + __sdk_start;
_ZTIN2nn2sf6detail38ObjectImplFactoryWithStatefulAllocatorINS0_4cmif6client6detail9CmifProxyINS_3mii6detail16IDatabaseServiceENS4_19CmifDomainProxyKindINS0_4hipc6client38Hipc2ClientSessionManagedProxyKindBaseINSC_18Hipc2ProxyKindBaseILNSB_6detail11MessageTypeE6EEEEEEENS0_30MemoryResourceAllocationPolicyENS5_19ProcessModifierImplINS4_21DefaultProxyFilterTagEEEvEESK_E6ObjectE = 0x0000000000bdc080 + __sdk_start;
_ZN2nn3ldn10DisconnectEv = 0x00000000002b6950 + __sdk_start;
_ZN2nn4lmem20ResizeFrameHeapBlockEPNS0_6detail8HeapHeadEPvm = 0x00000000002bbad0 + __sdk_start;
nnmem_nlib_double_from_chars = 0x00000000002cf620 + __sdk_start;
_ZN2nn2sf4cmif6client6detail13CmifProxyImplINS_3ssl2sf14ISslConnectionENS2_19CmifDomainProxyKindINS0_4hipc6client38Hipc2ClientSessionManagedProxyKindBaseINSA_18Hipc2ProxyKindBaseILNS9_6detail11MessageTypeE6EEEEEEENS0_24StatefulAllocationPolicyINS0_16ExpHeapAllocatorEEES7_NS3_19ProcessModifierImplINS2_21DefaultProxyFilterTagEEEE17_nn_sf_sync_WriteENS0_3OutIjvEERKNS0_8InBufferE = 0x000000000037cb60 + __sdk_start;
nanf = 0x00000000004e2710 + __sdk_start;
_ZNK2nn3mii13AppletManager22GetValidUuidArrayCountEv = 0x00000000002f7df0 + __sdk_start;
_ZN2nn2oe17RequestToShutdownEv = 0x00000000003233c0 + __sdk_start;
_ZN2nn3kpr15KeyCodeComposer6RemoveEPti = 0x00000000002b3d40 + __sdk_start;
__nnmusl_FinalizeConditionVariable = 0x0000000000507470 + __sdk_start;
tanhl = 0x00000000004e48f0 + __sdk_start;
_ZN2nn3mii6detail12StoreDataRaw13SetFontRegionEi = 0x00000000002ea550 + __sdk_start;
strtoumax = 0x00000000004f6cb8 + __sdk_start;
_ZN2nn2sf4cmif6client6detail13CmifProxyImplINS_2am7service19IOverlayAppletProxyENS2_19CmifDomainProxyKindINS0_4hipc6client38Hipc2ClientSessionManagedProxyKindBaseINSA_18Hipc2ProxyKindBaseILNS9_6detail11MessageTypeE6EEEEEEENS0_30MemoryResourceAllocationPolicyES7_NS3_19ProcessModifierImplINS2_21DefaultProxyFilterTagEEEE31_nn_sf_sync_GetOverlayFunctionsENS0_3OutINS0_13SharedPointerINS6_17IOverlayFunctionsEEEvEE = 0x00000000000613a0 + __sdk_start;
_ZN2nn3hid15VibrationPlayerD1Ev = 0x000000000024d7b0 + __sdk_start;
_ZN7android21SurfaceComposerClient11getRGBRangeERKNS_2spINS_7IBinderEEERi = 0x000000000002c070 + __sdk_start;
nnmem_nlib_debug_backtrace_gettext = 0x00000000002d3430 + __sdk_start;
_ZN2nn3hid6detail27EnablePairedPalmaConnectionEv = 0x0000000000238c70 + __sdk_start;
memmove = 0x00000000004cbb90 + __sdk_start;
_ZNSt3__114collate_bynameIwEC2ERKNS_12basic_stringIcNS_11char_traitsIcEENS_9allocatorIcEEEEm = 0x0000000000484d08 + __sdk_start;
___errno_location = 0x00000000004b9470 + __sdk_start;
__isprint_l = 0x00000000004d6cf0 + __sdk_start;
nanl = 0x00000000004e2720 + __sdk_start;
_ZN2nn7account33ExternalNetworkServiceAccountInfoC2Ev = 0x0000000000049d80 + __sdk_start;
_ZNSt3__112strstreambuf9underflowEv = 0x000000000049cd30 + __sdk_start;
_ZN2nn9bluetooth14CircularBufferC1Ev = 0x00000000000cdd30 + __sdk_start;
_ZN2nn4pctl25GetPlayTimerRemainingTimeEv = 0x0000000000331640 + __sdk_start;
_ZN2nn3hid6detail16GetUniquePadTypeEPNS0_6system13UniquePadTypeENS2_11UniquePadIdE = 0x0000000000240670 + __sdk_start;
_ZN2nn2sf4cmif6client6detail13CmifProxyImplINS_2am7service18ICommonStateGetterENS2_19CmifDomainProxyKindINS0_4hipc6client38Hipc2ClientSessionManagedProxyKindBaseINSA_18Hipc2ProxyKindBaseILNS9_6detail11MessageTypeE6EEEEEEENS0_30MemoryResourceAllocationPolicyES7_NS3_19ProcessModifierImplINS2_21DefaultProxyFilterTagEEEE25_nn_sf_sync_BeginVrModeExEv = 0x0000000000057500 + __sdk_start;
nncodecLibopus_silk_CNG_Reset = 0x00000000000f11f0 + __sdk_start;
_ZN2nn2sf4cmif6client6detail13CmifProxyImplINS_3hid10IHidServerENS0_4hipc6client18Hipc2ProxyKindBaseILNS7_6detail11MessageTypeE6EEENS0_25StatelessAllocationPolicyINS0_22ExpHeapStaticAllocatorILm16384ENS5_6detail9HidServerEEEEES6_NS3_19ProcessModifierImplINS2_21DefaultProxyFilterTagEEEE36_nn_sf_sync_SetAccelerometerPlayModeENS_6applet20AppletResourceUserIdENS5_19SixAxisSensorHandleEj = 0x0000000000254c40 + __sdk_start;
_ZN2nn2sf4cmif6client34CmifDomainProxyClientCoreProcessorINS0_4hipc6client38Hipc2ClientSessionManagedProxyKindBaseINS5_18Hipc2ProxyKindBaseILNS4_6detail11MessageTypeE6EEEEENS1_6detail14CoreMethodInfoINSt3__15tupleIJNSC_18OutRawArgumentInfoILm16ELm8ELl0EEENSC_18BufferArgumentInfoILi0ELi25ELm769EEEEEELm0ELm16ELb0EEESK_E7ProcessEPNS2_23CmifDomainClientMessageISB_E15ProxyBaseObjectENS2_24OutRawClientArgumentTypeILm16ELm8EEENS2_24BufferClientArgumentTypeEj = 0x0000000000208b80 + __sdk_start;
_ZN2nn5audio20SetSubMixDestinationEPNS0_19AudioRendererConfigEPNS0_10SubMixTypeES4_ = 0x0000000000088fe0 + __sdk_start;
_ZN2nn2sf6detail38ObjectImplFactoryWithStatefulAllocatorINS0_4cmif6client6detail9CmifProxyINS_4bcat6detail3ipc30IDeliveryCacheDirectoryServiceENS4_19CmifDomainProxyKindINS0_4hipc6client38Hipc2ClientSessionManagedProxyKindBaseINSD_18Hipc2ProxyKindBaseILNSC_6detail11MessageTypeE6EEEEEEENS0_30MemoryResourceAllocationPolicyENS5_19ProcessModifierImplINS4_21DefaultProxyFilterTagEEEvEESL_E6Object7ReleaseEv = 0x00000000000c4c40 + __sdk_start;
_ZN7android6Parcel11finishWriteEm = 0x00000000000087a0 + __sdk_start;
_ZNSt3__113__tree_removeIPNS_16__tree_node_baseIPvEEEEvT_S5_ = 0x0000000000508248 + __sdk_start;
nnosInitializeMultiWaitHolderForMessageQueue = 0x0000000000329590 + __sdk_start;
_ZNK2nn5audio17MemoryPoolManager12IsOverlappedEPvm = 0x0000000000086050 + __sdk_start;
_ZN2nn2sf4cmif6client6detail13CmifProxyImplINS_5visrv2sf22IManagerDisplayServiceENS0_4hipc6client18Hipc2ProxyKindBaseILNS8_6detail11MessageTypeE6EEENS0_30MemoryResourceAllocationPolicyES7_NS3_19ProcessModifierImplINS2_21DefaultProxyFilterTagEEEE45_nn_sf_sync_SetDetachedSharedFrameBufferImageENS_2vi7fbshare18SharedBufferHandleElRKNS0_8InBufferERKNSK_19SharedTextureOptionEj = 0x00000000003a7aa0 + __sdk_start;
_ZTIN2nn2sf6detail38ObjectImplFactoryWithStatefulAllocatorINS0_4cmif6client6detail9CmifProxyINS_6capsrv2sf24IAlbumApplicationServiceENS0_4hipc6client18Hipc2ProxyKindBaseILNSA_6detail11MessageTypeE6EEENS0_30MemoryResourceAllocationPolicyENS5_19ProcessModifierImplINS4_21DefaultProxyFilterTagEEEvEESG_E6ObjectE = 0x0000000000bcf990 + __sdk_start;
_ZN2nn3hid6detail37GetPalmaDataBaseIdentificationVersionERKNS0_21PalmaConnectionHandleE = 0x0000000000238ac0 + __sdk_start;
nnsslContextCreate = 0x000000000037afa0 + __sdk_start;
_ZN2nn6fontll6detail15PickKernXValuesEPiPNS0_15OtfKerningTableEPKvttt = 0x00000000001984a0 + __sdk_start;
nndiagStartup = 0x0000000000180190 + __sdk_start;
_ZN2nn2os30GetWritableHandleOfSystemEventEPKNS0_15SystemEventTypeE = 0x0000000000325cb0 + __sdk_start;
_ZN2nn2sf4hipc6server6detail29HipcAllInOneServerManagerBase18WaitAndProcessAutoEv = 0x000000000035ba80 + __sdk_start;
_ZN2nn2sf4cmif6client6detail13CmifProxyImplINS_2am7service18IAppletProxyCommonENS2_19CmifDomainProxyKindINS0_4hipc6client38Hipc2ClientSessionManagedProxyKindBaseINSA_18Hipc2ProxyKindBaseILNS9_6detail11MessageTypeE6EEEEEEENS0_30MemoryResourceAllocationPolicyENS6_18ISystemAppletProxyENS3_19ProcessModifierImplINS2_21DefaultProxyFilterTagEEEE30_nn_sf_sync_GetAudioControllerENS0_3OutINS0_13SharedPointerINS6_16IAudioControllerEEEvEE = 0x0000000000056960 + __sdk_start;
_ZN2nn5audio22RequestResumeAudioOutsENS_6applet20AppletResourceUserIdENS_8TimeSpanE = 0x000000000008eb80 + __sdk_start;
_ZN2nn5audio3dsp24ApplyLinearEnvelopeGain4ILi23EEEvPiPKiiii = 0x00000000000bc300 + __sdk_start;
_ZN2nn2sf4cmif6client6detail13CmifProxyImplINS_8settings15ISettingsServerENS0_4hipc6client18Hipc2ProxyKindBaseILNS7_6detail11MessageTypeE6EEENS0_30MemoryResourceAllocationPolicyES6_NS3_19ProcessModifierImplINS2_21DefaultProxyFilterTagEEEE37_nn_sf_sync_GetAvailableLanguageCodesENS0_3OutIivEERKNS0_8OutArrayINS5_12LanguageCodeEEE = 0x00000000003533e0 + __sdk_start;
NvRmChannelSetSubmitTimeout = 0x00000000003d52a0 + __sdk_start;
InitLibc0 = 0x0000000000296c20 + __sdk_start;
_ZN2nn7account6detail18OAuthProcedureBaseC2ERKNS0_3UidEPNS0_4http15IOAuthProcedureE = 0x000000000003a810 + __sdk_start;
vasprintf = 0x00000000004f42a0 + __sdk_start;
InitLibc1 = 0x0000000000296c30 + __sdk_start;
_ZN2nn2sf4cmif6client6detail13CmifProxyImplINS_2am7service11IMovieMakerENS0_4hipc6client18Hipc2ProxyKindBaseILNS8_6detail11MessageTypeE6EEENS0_30MemoryResourceAllocationPolicyES7_NS3_19ProcessModifierImplINS2_21DefaultProxyFilterTagEEEE12GetProxyInfoEv = 0x0000000000076380 + __sdk_start;
_ZN2nn6applet26PushToInteractiveInChannelENS0_19LibraryAppletHandleENS0_13StorageHandleE = 0x000000000007c350 + __sdk_start;
_ZN2nn2sf4hipc6client24Hipc2ClientCoreProcessorILNS1_6detail11MessageTypeE6ENS0_4cmif6detail14CoreMethodInfoINSt3__15tupleIJNS7_17InRawArgumentInfoILm1ELm1ELl0EEENSB_ILm20ELm4ELl4EEENSB_ILm20ELm4ELl24EEENSB_ILm2ELm2ELl2EEENSB_ILm1ELm1ELl1EEEEEELm44ELm0ELb0EEESH_E7ProcessEPNS2_26Hipc2ClientProxyBaseObjectENS6_6client23InRawClientArgumentTypeILm1ELm1EvEENSN_ILm20ELm4EvEESP_NSN_ILm2ELm2EvEESO_j = 0x00000000000c9200 + __sdk_start;
FSS_load_font_with_offset = 0x00000000001a0b30 + __sdk_start;
_ZN2nn3hid6system13DeactivateNfcEj = 0x0000000000246b40 + __sdk_start;
_ZN2nn2sf4cmif6client6detail13CmifProxyImplINS_3hid10IHidServerENS0_4hipc6client18Hipc2ProxyKindBaseILNS7_6detail11MessageTypeE6EEENS0_25StatelessAllocationPolicyINS0_22ExpHeapStaticAllocatorILm16384ENS5_6detail9HidServerEEEEES6_NS3_19ProcessModifierImplINS2_21DefaultProxyFilterTagEEEE40_nn_sf_sync_ResetAccelerometerParametersENS_6applet20AppletResourceUserIdENS5_19SixAxisSensorHandleE = 0x0000000000254c10 + __sdk_start;
NvOsSemaphoreClone = 0x00000000003c4830 + __sdk_start;
_ZN7android13GraphicBuffer11free_handleEv = 0x000000000002eb50 + __sdk_start;
_ZTINSt3__117moneypunct_bynameIwLb0EEE = 0x0000000000bede90 + __sdk_start;
InitLibc2 = 0x0000000000296c40 + __sdk_start;
_ZN2nn2sf4cmif6client6detail13CmifProxyImplINS_7account4baas22IManagerForApplicationENS2_19CmifDomainProxyKindINS0_4hipc6client38Hipc2ClientSessionManagedProxyKindBaseINSA_18Hipc2ProxyKindBaseILNS9_6detail11MessageTypeE6EEEEEEENS0_25StatelessAllocationPolicyINS0_22ExpHeapStaticAllocatorILm2048ENS5_6detail12ObjectHolder24ObjectHolderAllocatorTagEEEEES7_NS3_19ProcessModifierImplINS2_21DefaultProxyFilterTagEEEE38_nn_sf_sync_CreateAuthorizationRequestENS0_3OutINS0_13SharedPointerINS5_3nas21IAuthorizationRequestEEEvEERKNS5_45NintendoAccountAuthorizationRequestParametersEONS0_12NativeHandleEj = 0x000000000003fdf0 + __sdk_start;
_ZTIN2nn2sf4cmif6client6detail13CmifProxyImplINS_7account6detail13IAsyncContextENS2_19CmifDomainProxyKindINS0_4hipc6client38Hipc2ClientSessionManagedProxyKindBaseINSA_18Hipc2ProxyKindBaseILNS9_6detail11MessageTypeE6EEEEEEENS0_25StatelessAllocationPolicyINS0_22ExpHeapStaticAllocatorILm2048ENS6_12ObjectHolder24ObjectHolderAllocatorTagEEEEENS5_4baas34IAsyncContextForLoginForOnlinePlayENS3_19ProcessModifierImplINS2_21DefaultProxyFilterTagEEEEE = 0x0000000000bbdf00 + __sdk_start;
_ZN2nn5audio6server12SinkInfoBaseC2Ev = 0x00000000000aa9a0 + __sdk_start;
_ZN2nn3mii6detail12StoreDataRaw9SetMouthYEi = 0x00000000002ea780 + __sdk_start;
_ZTv0_n24_NSt3__19strstreamD1Ev = 0x000000000049d430 + __sdk_start;
_ZN2nn4util24ConvertStringUtf8ToUtf32EPjiPKc = 0x00000000003a04e0 + __sdk_start;
_ZN2nn2sf4cmif6client34CmifDomainProxyClientCoreProcessorINS0_4hipc6client38Hipc2ClientSessionManagedProxyKindBaseINS5_18Hipc2ProxyKindBaseILNS4_6detail11MessageTypeE6EEEEENS1_6detail14CoreMethodInfoINSt3__15tupleIJNSC_17InRawArgumentInfoILm8ELm8ELl8EEENSC_18BufferArgumentInfoILi0ELi69ELm0EEENSG_ILm8ELm8ELl16EEENSG_ILm4ELm4ELl0EEEEEELm24ELm0ELb0EEESM_E7ProcessEPNS2_23CmifDomainClientMessageISB_E15ProxyBaseObjectENS2_23InRawClientArgumentTypeILm8ELm8EvEENS2_24BufferClientArgumentTypeESU_NST_ILm4ELm4EvEEj = 0x00000000001fd530 + __sdk_start;
_ZN2nn7nlibsdk4heap11CentralHeap5AllocEmm = 0x00000000002dcf50 + __sdk_start;
nvcecInitAsyncEvents = 0x00000000003b71a0 + __sdk_start;
_ZNKSt3__18time_getIwNS_19istreambuf_iteratorIwNS_11char_traitsIwEEEEE13__get_weekdayERiRS4_S4_RjRKNS_5ctypeIwEE = 0x000000000046f7b8 + __sdk_start;
_ZN2nn5audio6server38CommandProcessingTimeEstimatorVersion18EstimateERKNS0_25PcmInt16DataSourceCommandE = 0x00000000000a4a40 + __sdk_start;
_ZNK2nn7friends11UserSetting25GetFriendRequestReceptionEv = 0x00000000001dc4f0 + __sdk_start;
_ZN2nn2sf4cmif6client6detail13CmifProxyImplINS_8settings21ISystemSettingsServerENS0_4hipc6client18Hipc2ProxyKindBaseILNS7_6detail11MessageTypeE6EEENS0_30MemoryResourceAllocationPolicyES6_NS3_19ProcessModifierImplINS2_21DefaultProxyFilterTagEEEE46_nn_sf_sync_GetServiceDiscoveryControlSettingsENS0_3OutINS5_6system31ServiceDiscoveryControlSettingsEvEE = 0x0000000000342870 + __sdk_start;
_ZN7android6RegionaSERKS0_ = 0x0000000000030a10 + __sdk_start;
_ZN2nn2os5MutexD2Ev = 0x000000000017dcd0 + __sdk_start;
_ZN2nn3ngc6detail9SbvSelect16ReleaseAllocatorEv = 0x000000000030e3c0 + __sdk_start;
_ZN2nn2sf4cmif6client6detail13CmifProxyImplINS_5visrv2sf19IManagerRootServiceENS0_4hipc6client18Hipc2ProxyKindBaseILNS8_6detail11MessageTypeE6EEENS0_30MemoryResourceAllocationPolicyES7_NS3_19ProcessModifierImplINS2_21DefaultProxyFilterTagEEEE12GetProxyInfoEv = 0x00000000003aa640 + __sdk_start;
_ZN2nn2sf4hipc6client24Hipc2ClientCoreProcessorILNS1_6detail11MessageTypeE6ENS0_4cmif6detail14CoreMethodInfoINSt3__15tupleIJNS7_18OutRawArgumentInfoILm8ELm8ELl0EEENS7_18BufferArgumentInfoILi0ELi6ELm0EEENS7_17InRawArgumentInfoILm8ELm8ELl0EEENSF_ILm8ELm8ELl8EEEEEELm16ELm8ELb1EEESI_E7ProcessEPNS2_26Hipc2ClientProxyBaseObjectENS6_6client24OutRawClientArgumentTypeILm8ELm8EEENSN_24BufferClientArgumentTypeENSN_23InRawClientArgumentTypeILm8ELm8EvEESS_j = 0x00000000003a64b0 + __sdk_start;
_ZN2nn2sf4hipc6client24Hipc2ClientCoreProcessorILNS1_6detail11MessageTypeE6ENS0_4cmif6detail14CoreMethodInfoINSt3__15tupleIJNS7_17InRawArgumentInfoILm8ELm8ELl8EEENSB_ILm4ELm4ELl0EEENSB_ILm24ELm8ELl16EEENS7_20InHandleArgumentInfoILi0ELi1EEENSB_ILm8ELm8ELl40EEEEEELm48ELm0ELb1EEESI_E7ProcessEPNS2_26Hipc2ClientProxyBaseObjectENS6_6client23InRawClientArgumentTypeILm8ELm8EvEENSO_ILm4ELm4EvEENSO_ILm24ELm8EvEENSN_26InHandleClientArgumentTypeESP_j = 0x000000000029f280 + __sdk_start;
_ZNKSt3__18time_getIcNS_19istreambuf_iteratorIcNS_11char_traitsIcEEEEE11__get_year4ERiRS4_S4_RjRKNS_5ctypeIcEE = 0x000000000046d948 + __sdk_start;
_ZN2nn2os26SetMultiWaitHolderUserDataEPNS0_19MultiWaitHolderTypeEm = 0x00000000003269f0 + __sdk_start;
_ZN2nn6socket6detail26DestroyClientMonitorByHipcEPNS_2sf13SharedPointerINS0_2sf7IClientEEE = 0x000000000036b710 + __sdk_start;
_ZN2nn2am36CreateSystemAppletControllerForDebugEv = 0x0000000000055530 + __sdk_start;
_ZN2nn5audio28initializePolyphaseResamplerEPvjjjbf = 0x000000000008c690 + __sdk_start;
_ZTIN2nn2sf4cmif6client6detail9CmifProxyINS_6grcsrv17IGameMovieTrimmerENS2_19CmifDomainProxyKindINS0_4hipc6client38Hipc2ClientSessionManagedProxyKindBaseINS9_18Hipc2ProxyKindBaseILNS8_6detail11MessageTypeE6EEEEEEENS0_30MemoryResourceAllocationPolicyENS3_19ProcessModifierImplINS2_21DefaultProxyFilterTagEEEvEE = 0x0000000000bc6190 + __sdk_start;
_ZNK2nn3mii8Database12BuildDefaultEPNS0_8CharInfoEi = 0x00000000002f3190 + __sdk_start;
_ZN2nn3hid5debug29StartFirmwareUpdateIndividualEPNS0_6system26FirmwareUpdateDeviceHandleENS2_11UniquePadIdENS1_24FirmwareUpdateTargetChipEPcmm = 0x00000000002440e0 + __sdk_start;
_ZN2nn5audio21IsBiquadFilterEnabledEPKNS0_16BiquadFilterTypeE = 0x0000000000081e20 + __sdk_start;
_ZN2nn3ssl10Connection7PendingEv = 0x000000000037a2c0 + __sdk_start;
_ZN2nn2fs24HierarchicalRomFileTable17FindNextDirectoryEPcPNS1_12FindPositionEm = 0x00000000001e82e0 + __sdk_start;
_ZN2nn7account13ProfileEditor11SetNicknameERKNS0_8NicknameE = 0x000000000004deb0 + __sdk_start;
_ZN2nn2sf4cmif6client6detail36GetClientProcessorImplWithObjectBaseINS0_4hipc6client18Hipc2ProxyKindBaseILNS5_6detail11MessageTypeE6EEENS3_19ProcessModifierImplINS2_21DefaultProxyFilterTagEEEE14ObjectAssignerINS0_30MemoryResourceAllocationPolicyENS_14MemoryResourceEE14AllocateObjectINS_2am7service24ITransferStorageAccessorEEEvi = 0x000000000006b9e0 + __sdk_start;
_ZN2nn5audio10MixManager7ReleaseEPNS0_12FinalMixTypeE = 0x0000000000086250 + __sdk_start;
_ZNK2nn3mii6detail16Ver3StoreDataRaw11GetNoseTypeEv = 0x00000000002ed710 + __sdk_start;
_ZThn32_N2nn2sf4cmif6client6detail13CmifProxyImplINS_4nifm6detail15IGeneralServiceENS2_19CmifDomainProxyKindINS0_4hipc6client38Hipc2ClientSessionManagedProxyKindBaseINSA_18Hipc2ProxyKindBaseILNS9_6detail11MessageTypeE6EEEEEEENS0_30MemoryResourceAllocationPolicyES7_NS3_19ProcessModifierImplINS2_21DefaultProxyFilterTagEEEE17GetCmifBaseObjectEv = 0x0000000000315110 + __sdk_start;
NvRmMemCacheListSyncForDevice = 0x00000000003d0130 + __sdk_start;
_ZN2nn2sf4cmif6client6detail13CmifProxyImplINS_2am7service25IProcessWindingControllerENS2_19CmifDomainProxyKindINS0_4hipc6client38Hipc2ClientSessionManagedProxyKindBaseINSA_18Hipc2ProxyKindBaseILNS9_6detail11MessageTypeE6EEEEEEENS0_30MemoryResourceAllocationPolicyES7_NS3_19ProcessModifierImplINS2_21DefaultProxyFilterTagEEEE23_nn_sf_sync_PushContextENS0_13SharedPointerINS6_8IStorageEEE = 0x000000000005c680 + __sdk_start;
_ZN2nn5audio33GetAudioRendererElapsedFrameCountEPKNS0_19AudioRendererConfigE = 0x000000000007f4f0 + __sdk_start;
_ZN2nn2sf4cmif6client6detail13CmifProxyImplINS_8settings28IFirmwareDebugSettingsServerENS0_4hipc6client18Hipc2ProxyKindBaseILNS7_6detail11MessageTypeE6EEENS0_30MemoryResourceAllocationPolicyES6_NS3_19ProcessModifierImplINS2_21DefaultProxyFilterTagEEEE30_nn_sf_sync_SetAllowedSslHostsERKNS0_7InArrayINS5_6system14AllowedSslHostEEE = 0x0000000000340600 + __sdk_start;
nnmem_nlib_barrier_wait = 0x00000000002d2b80 + __sdk_start;
_ZN2nn2sf4hipc6client24Hipc2ClientCoreProcessorILNS1_6detail11MessageTypeE6ENS0_4cmif6detail14CoreMethodInfoINSt3__15tupleIJNS7_18OutRawArgumentInfoILm8ELm1ELl0EEEEEELm0ELm8ELb0EEESD_E7ProcessEPNS2_26Hipc2ClientProxyBaseObjectENS6_6client24OutRawClientArgumentTypeILm8ELm1EEEj = 0x00000000000724e0 + __sdk_start;
_ZN2nn9bluetooth14CircularBuffer6_writeEhPKvm = 0x00000000000ce2b0 + __sdk_start;
_ZNK2nn3mii6detail11CoreDataRaw8GetBuildEv = 0x00000000002e6b80 + __sdk_start;
_ZNSt3__125notify_all_at_thread_exitERNS_18condition_variableENS_11unique_lockINS_5mutexEEE = 0x000000000044ddb8 + __sdk_start;
_ZN2nn5image11ExifBuilder11SetUniqueIdEPKcm = 0x0000000000295b00 + __sdk_start;
_ZN2nn9bluetooth21InitializeBluetoothLeEPNS_2os15SystemEventTypeE = 0x00000000000cb430 + __sdk_start;
_ZN2nn3mii6detail12StoreDataRaw15SetFacelineMakeEi = 0x00000000002ea5f0 + __sdk_start;
_ZN2nn2sf4cmif6client6detail13CmifProxyImplINS_3mii6detail21IImageDatabaseServiceENS0_4hipc6client18Hipc2ProxyKindBaseILNS8_6detail11MessageTypeE6EEENS0_30MemoryResourceAllocationPolicyES7_NS3_19ProcessModifierImplINS2_21DefaultProxyFilterTagEEEE20_nn_sf_sync_GetCountENS0_3OutIivEE = 0x00000000002f6cf0 + __sdk_start;
_ZZN2nn2sf31SimpleAllInOneHipcClientManagerILm1EE27InitializeShimLibraryHolderINS_4npns9INpnsUserENS0_4cmif6client6detail19ProcessModifierImplINS7_21DefaultProxyFilterTagEEEEENS_6ResultEPNS0_23ShimLibraryObjectHolderIT_EEPKcPNS_14MemoryResourceEENUlPNS0_13SharedPointerIS5_EEE_clESN_ = 0x000000000031c340 + __sdk_start;
_ZN2nn2sf4cmif6client6detail13CmifProxyImplINS_3hid16IHidSystemServerENS0_4hipc6client18Hipc2ProxyKindBaseILNS7_6detail11MessageTypeE6EEENS0_25StatelessAllocationPolicyINS0_22ExpHeapStaticAllocatorILm16384ENS5_6detail15HidSystemServerEEEEES6_NS3_19ProcessModifierImplINS2_21DefaultProxyFilterTagEEEE39_nn_sf_sync_BeginPermitVibrationSessionENS_6applet20AppletResourceUserIdE = 0x0000000000258c20 + __sdk_start;
_ZNSt3__18__c_nodeD1Ev = 0x000000000044e4c8 + __sdk_start;
_ZN2nn4diag6detail9AbortImplERKNS0_14MetaLogContextE = 0x000000000017ef60 + __sdk_start;
nnmem_nlib_rename = 0x00000000002d3890 + __sdk_start;
_ZZN2nn2sf40SimpleAllInOneHipcSubDomainClientManagerILm17EE27InitializeShimLibraryHolderINS_7account24IBaasAccessTokenAccessorENS0_4cmif6client6detail19ProcessModifierImplINS7_21DefaultProxyFilterTagEEEEENS_6ResultEPNS0_23ShimLibraryObjectHolderIT_EEPKcPNS_14MemoryResourceEENUlPNS0_13SharedPointerIS5_EEE_clESN_ = 0x0000000000048e10 + __sdk_start;
_ZN2nn2sf4cmif6client6detail13CmifProxyImplINS_2am7service15ISelfControllerENS2_19CmifDomainProxyKindINS0_4hipc6client38Hipc2ClientSessionManagedProxyKindBaseINSA_18Hipc2ProxyKindBaseILNS9_6detail11MessageTypeE6EEEEEEENS0_30MemoryResourceAllocationPolicyES7_NS3_19ProcessModifierImplINS2_21DefaultProxyFilterTagEEEE51_nn_sf_sync_GetAccumulatedSuspendedTickChangedEventENS0_3OutINS0_12NativeHandleEvEE = 0x0000000000058650 + __sdk_start;
_ZN2nn5audio6server16CommandGenerator19GenerateSinkCommandEiPNS1_12SinkInfoBaseE = 0x00000000000a47d0 + __sdk_start;
_ZN2nn2sf4cmif6client6detail13CmifProxyImplINS_5visrv2sf22IManagerDisplayServiceENS0_4hipc6client18Hipc2ProxyKindBaseILNS8_6detail11MessageTypeE6EEENS0_30MemoryResourceAllocationPolicyES7_NS3_19ProcessModifierImplINS2_21DefaultProxyFilterTagEEEE38_nn_sf_sync_GetDisplayModeChangedEventENS0_3OutINS0_12NativeHandleEvEEm = 0x00000000003a7380 + __sdk_start;
_ZN2nn2sf4cmif6client6detail13CmifProxyImplINS_7account4baas14IAdministratorENS2_19CmifDomainProxyKindINS0_4hipc6client38Hipc2ClientSessionManagedProxyKindBaseINSA_18Hipc2ProxyKindBaseILNS9_6detail11MessageTypeE6EEEEEEENS0_25StatelessAllocationPolicyINS0_22ExpHeapStaticAllocatorILm2048ENS5_6detail12ObjectHolder24ObjectHolderAllocatorTagEEEEES7_NS3_19ProcessModifierImplINS2_21DefaultProxyFilterTagEEEE41_nn_sf_sync_DeleteRegistrationInfoLocallyEv = 0x0000000000046640 + __sdk_start;
_ZN2nn6hidbus6detail38GetJoyEnableSixAxisPollingDataAccessorEi = 0x000000000025d2e0 + __sdk_start;
_ZN2nn2sf4cmif6client6detail13CmifProxyImplINS_3hid16IHidSystemServerENS0_4hipc6client18Hipc2ProxyKindBaseILNS7_6detail11MessageTypeE6EEENS0_30MemoryResourceAllocationPolicyES6_NS3_19ProcessModifierImplINS2_21DefaultProxyFilterTagEEEE28_nn_sf_sync_GetUniquePadTypeENS0_3OutIlvEENS5_6system11UniquePadIdE = 0x000000000025ed20 + __sdk_start;
NvUHashDeinit = 0x00000000003bcd40 + __sdk_start;
__iswprint_l = 0x00000000004d7350 + __sdk_start;
_ZN2nn3ngc6detail3Set4InitEj = 0x000000000030ee10 + __sdk_start;
_ZN2nn2sf4hipc6client24Hipc2ClientCoreProcessorILNS1_6detail11MessageTypeE6ENS0_4cmif6detail14CoreMethodInfoINSt3__15tupleIJNS7_18BufferArgumentInfoILi0ELi69ELm0EEENS7_17InRawArgumentInfoILm4ELm4ELl0EEENSD_ILm4ELm4ELl4EEENSD_ILm4ELm4ELl8EEENSD_ILm4ELm4ELl12EEENSD_ILm4ELm4ELl16EEEEEELm20ELm0ELb0EEESJ_E7ProcessEPNS2_26Hipc2ClientProxyBaseObjectENS6_6client24BufferClientArgumentTypeENSO_23InRawClientArgumentTypeILm4ELm4EvEESR_SR_SR_SR_j = 0x0000000000075d40 + __sdk_start;
_ZN2nn6socket8resolver10serializer13DNSSerializer6SizeOfI11sockaddr_inEEmRKT_ = 0x0000000000363a70 + __sdk_start;
_ZN2nn4nifm4ScanEPKsiNS0_17RequirementPresetE = 0x000000000031a200 + __sdk_start;
_ZNK2nn4util15RelocationTable7Section6GetPtrEv = 0x0000000000398a60 + __sdk_start;
_ZN2nn7account6detail24SimpleOAuthProcedureBaseD0Ev = 0x000000000003ad20 + __sdk_start;
_ZN2nn5codec32GetOpusPacketSampleCountPerFrameEPKhmi = 0x000000000011ef50 + __sdk_start;
_ZTVN2nn2sf6detail38ObjectImplFactoryWithStatefulAllocatorINS0_4cmif6client6detail9CmifProxyINS_3nim6detail20IShopServiceAccessorENS0_4hipc6client18Hipc2ProxyKindBaseILNSA_6detail11MessageTypeE6EEENS0_30MemoryResourceAllocationPolicyENS5_19ProcessModifierImplINS4_21DefaultProxyFilterTagEEEvEESG_E6ObjectE = 0x0000000000bd18f8 + __sdk_start;
_ZN2nn2sf4cmif6client6detail13CmifProxyImplINS_3ssl2sf14ISslConnectionENS2_19CmifDomainProxyKindINS0_4hipc6client38Hipc2ClientSessionManagedProxyKindBaseINSA_18Hipc2ProxyKindBaseILNS9_6detail11MessageTypeE6EEEEEEENS0_24StatefulAllocationPolicyINS0_16ExpHeapAllocatorEEES7_NS3_19ProcessModifierImplINS2_21DefaultProxyFilterTagEEEE16_nn_sf_sync_PeekENS0_3OutIjvEERKNS0_9OutBufferE = 0x000000000037cbb0 + __sdk_start;
_ZN7android12BnMemoryHeapC2Ev = 0x00000000000037b0 + __sdk_start;
_ZN7android14SurfaceControl9setMatrixEffff = 0x0000000000028f80 + __sdk_start;
_ZN2nn4util16AbstractExecutorC2Ev = 0x00000000003a2c50 + __sdk_start;
_ZNK2nn7friends11PlayHistory26HasNetworkServiceAccountIdEv = 0x00000000001dbc40 + __sdk_start;
fixed_norm = 0x00000000001b0fd0 + __sdk_start;
_ZN2nn3hid6system19StartFirmwareUpdateEPNS1_26FirmwareUpdateDeviceHandleENS1_11UniquePadIdE = 0x0000000000244240 + __sdk_start;
_ZN2nn2os6detail13ThreadManager12ResumeThreadEPNS0_10ThreadTypeE = 0x000000000032a150 + __sdk_start;
_ZNK2nn3ngc6detail3Sbv7Select1Ej = 0x000000000030fe20 + __sdk_start;
_ZN2nn5audio10MixManager7AcquireEPNS0_12FinalMixTypeEi = 0x00000000000861a0 + __sdk_start;
_ZN2nn8settings6detail32GetChineseTraditionalInputMethodEPNS0_29ChineseTraditionalInputMethodE = 0x000000000034d1a0 + __sdk_start;
_ZN2nn5swkbd6detail18InlineKeyboardImpl17CalcDecidedEnter_ENS_6applet13StorageHandleEm = 0x0000000000382220 + __sdk_start;
_ZN2nn2sf4cmif6client6detail13CmifProxyImplINS_3hid10IHidServerENS0_4hipc6client18Hipc2ProxyKindBaseILNS7_6detail11MessageTypeE6EEENS0_25StatelessAllocationPolicyINS0_22ExpHeapStaticAllocatorILm16384ENS5_6detail9HidServerEEEEES6_NS3_19ProcessModifierImplINS2_21DefaultProxyFilterTagEEEE40_nn_sf_sync_SetNpadJoyAssignmentModeDualENS_6applet20AppletResourceUserIdEj = 0x0000000000255010 + __sdk_start;
_ZN2nn5image6detail4jpeg20jpeg_default_qtablesEPNS2_20jpeg_compress_structEb = 0x0000000000278140 + __sdk_start;
_ZN2nn3mii6detail15BufferAllocator7AdvanceEm = 0x00000000002e25c0 + __sdk_start;
set_sched_policy = 0x0000000000010090 + __sdk_start;
_ZN2nn2os14IsReadLockHeldEPKNS0_20ReaderWriterLockTypeE = 0x00000000003270f0 + __sdk_start;
nnsocketRead = 0x0000000000360be0 + __sdk_start;
_ZN2nn7friends11UserSetting13GetFriendCodeEv = 0x00000000001dc5d0 + __sdk_start;
_ZN2nn8settings5fwdbg24GetSettingsItemValueSizeEPKcS3_ = 0x000000000033f500 + __sdk_start;
_ZN2nn4time27EphemeralNetworkSystemClock3nowEv = 0x00000000003854b0 + __sdk_start;
_ZN2nn3web22ShowOfflineHtmlPageArg25SetBootLoadingIconEnabledEb = 0x00000000003b2750 + __sdk_start;
_ZTINSt3__19__num_putIwEE = 0x0000000000beda60 + __sdk_start;
_ZN2nn7account42NintendoAccountAuthorizationRequestContext8GetStateEPmPcm = 0x000000000004ce20 + __sdk_start;
_ZN2nn2sf4cmif6client6detail13CmifProxyImplINS_4bcat6detail3ipc12IBcatServiceENS2_19CmifDomainProxyKindINS0_4hipc6client38Hipc2ClientSessionManagedProxyKindBaseINSB_18Hipc2ProxyKindBaseILNSA_6detail11MessageTypeE6EEEEEEENS0_30MemoryResourceAllocationPolicyES8_NS3_19ProcessModifierImplINS2_21DefaultProxyFilterTagEEEE27_nn_sf_sync_GetDeliveryListENS0_3OutImvEERKNS0_9OutBufferENS_13ApplicationIdE = 0x00000000000c3920 + __sdk_start;
_ZTv0_n24_N7android18GraphicBufferAllocD1Ev = 0x000000000001c890 + __sdk_start;
_ZN7android21SurfaceComposerClient4showERKNS_2spINS_7IBinderEEE = 0x000000000002b100 + __sdk_start;
_ZN2nn2sf4hipc6client24Hipc2ClientCoreProcessorILNS1_6detail11MessageTypeE6ENS0_4cmif6detail14CoreMethodInfoINSt3__15tupleIJNS7_18OutRawArgumentInfoILm4ELm4ELl0EEENS7_21OutHandleArgumentInfoILi0ELi1EEEEEELm0ELm4ELb0EEESF_E7ProcessEPNS2_26Hipc2ClientProxyBaseObjectENS6_6client24OutRawClientArgumentTypeILm4ELm4EEENSK_27OutHandleClientArgumentTypeEj = 0x0000000000263fc0 + __sdk_start;
_ZN2nn8settingsneERKNS0_12LanguageCodeERKNS0_8LanguageE = 0x0000000000348240 + __sdk_start;
_ZN7android12MemoryDealerD0Ev = 0x0000000000005d90 + __sdk_start;
_ZN7android12ConsumerBase13stillTrackingEiNS_2spINS_13GraphicBufferEEE = 0x000000000001c540 + __sdk_start;
__ctype_get_mb_cur_max = 0x00000000004d7bb8 + __sdk_start;
_ZNK2nn3mii6detail11CoreDataRaw11GetEyebrowXEv = 0x00000000002e7090 + __sdk_start;
_ZN2nn3web18WebPageReturnValueC1Ev = 0x00000000003b5370 + __sdk_start;
NvRmGpuClockSet = 0x00000000003ef440 + __sdk_start;
_ZNK7android7IMemory11fastPointerERKNS_2spINS_7IBinderEEEl = 0x0000000000002150 + __sdk_start;
_ZN2nn6socket8resolver10serializer13DNSSerializer10FromBufferINS0_14ResolverOptionEEElPT_mPKhmm = 0x0000000000364470 + __sdk_start;
_ZTIN2nn4npns9INpnsUserE = 0x0000000000bdec30 + __sdk_start;
_ZN2nn2os26InitializeReaderWriterLockEPNS0_20ReaderWriterLockTypeE = 0x0000000000326c40 + __sdk_start;
nnResultIsSuccess = 0x000000000033c780 + __sdk_start;
_ZN2nn2sf4cmif6client6detail13CmifProxyImplINS_3hid15IHidDebugServerENS0_4hipc6client18Hipc2ProxyKindBaseILNS7_6detail11MessageTypeE6EEENS0_25StatelessAllocationPolicyINS0_22ExpHeapStaticAllocatorILm16384ENS5_6detail14HidDebugServerEEEEES6_NS3_19ProcessModifierImplINS2_21DefaultProxyFilterTagEEEE42_nn_sf_sync_SetCaptureButtonAutoPilotStateENS5_5debug27CaptureButtonAutoPilotStateE = 0x0000000000251c10 + __sdk_start;
_ZN7android18GraphicBufferAllocD0Ev = 0x000000000001c8e0 + __sdk_start;
_ZN2nn4util24ConvertStringUtf8ToUtf32EPjiPKci = 0x00000000003a0260 + __sdk_start;
_ZN2nn2sf4cmif6client6detail13CmifProxyImplINS_2am7service21IApplicationFunctionsENS0_4hipc6client18Hipc2ProxyKindBaseILNS8_6detail11MessageTypeE6EEENS0_30MemoryResourceAllocationPolicyES7_NS3_19ProcessModifierImplINS2_21DefaultProxyFilterTagEEEE40_nn_sf_sync_EnableApplicationCrashReportEb = 0x0000000000074ae0 + __sdk_start;
_ZNK2nn5audio6server11AddressInfo19HasMappedMemoryPoolEv = 0x00000000000a9310 + __sdk_start;
_ZN2nn5album24MovieMakerMovieParameter24SetVideoImageOrientationENS0_16ImageOrientationE = 0x0000000000050370 + __sdk_start;
_ZN2nn2sf4cmif6client6detail13CmifProxyImplINS_3hid16IHidSystemServerENS0_4hipc6client18Hipc2ProxyKindBaseILNS7_6detail11MessageTypeE6EEENS0_30MemoryResourceAllocationPolicyES6_NS3_19ProcessModifierImplINS2_21DefaultProxyFilterTagEEEE33_nn_sf_sync_ActivateInputDetectorENS_6applet20AppletResourceUserIdE = 0x000000000025efa0 + __sdk_start;
_ZN2nn2fs21GetSpeedEmulationModeEPNS0_18SpeedEmulationModeE = 0x000000000021c0c0 + __sdk_start;
_ZN2nn5image6detail4jpeg23jpeg_open_backing_storeEPNS2_18jpeg_common_structEPNS2_20backing_store_structEl = 0x00000000002905d0 + __sdk_start;
_ZN2nn4lmem6detail17GetNextBlockFrontEPNS1_8HeapHeadE = 0x00000000002bcea0 + __sdk_start;
_ZN2nn6socket17ResolverSetOptionERKNS0_14ResolverOptionE = 0x0000000000360a90 + __sdk_start;
_ZNK2nn2la21CommonArgumentsWriter15PushToInChannelENS_6applet19LibraryAppletHandleE = 0x00000000002b54a0 + __sdk_start;
_ZN2nn5audio6server7MixInfoC1EPiiRKNS1_12BehaviorInfoE = 0x00000000000a93f0 + __sdk_start;
_ZN2nn5audio3dsp13ApplyMixRamp4EPfPKfffi = 0x00000000000bb980 + __sdk_start;
_ZN2nn2sf4cmif6client6detail13CmifProxyImplINS_4npns9INpnsUserENS0_4hipc6client18Hipc2ProxyKindBaseILNS7_6detail11MessageTypeE6EEENS0_30MemoryResourceAllocationPolicyES6_NS3_19ProcessModifierImplINS2_21DefaultProxyFilterTagEEEE12GetProxyInfoEv = 0x000000000031c5c0 + __sdk_start;
_ZN2nn2sf4cmif6client6detail13CmifProxyImplINS_8settings21ISystemSettingsServerENS0_4hipc6client18Hipc2ProxyKindBaseILNS7_6detail11MessageTypeE6EEENS0_30MemoryResourceAllocationPolicyES6_NS3_19ProcessModifierImplINS2_21DefaultProxyFilterTagEEEE19_nn_sf_sync_SetEdidERKNS5_6system4EdidE = 0x0000000000341ca0 + __sdk_start;
_ZN2nn4edid6detail17GetStandardTimingEPNS0_15DisplayModeInfoEhh = 0x00000000001938e0 + __sdk_start;
_ZN2nn2sf4cmif6client6detail13CmifProxyImplINS_2am7service22IGlobalStateControllerENS2_19CmifDomainProxyKindINS0_4hipc6client38Hipc2ClientSessionManagedProxyKindBaseINSA_18Hipc2ProxyKindBaseILNS9_6detail11MessageTypeE6EEEEEEENS0_30MemoryResourceAllocationPolicyES7_NS3_19ProcessModifierImplINS2_21DefaultProxyFilterTagEEEE45_nn_sf_sync_SetDefaultHomeButtonLongPressTimeEl = 0x000000000005e150 + __sdk_start;
_ZN2nn2sf4cmif6client6detail13CmifProxyImplINS_4nifm6detail15IGeneralServiceENS2_19CmifDomainProxyKindINS0_4hipc6client38Hipc2ClientSessionManagedProxyKindBaseINSA_18Hipc2ProxyKindBaseILNS9_6detail11MessageTypeE6EEEEEEENS0_30MemoryResourceAllocationPolicyES7_NS3_19ProcessModifierImplINS2_21DefaultProxyFilterTagEEEE38_nn_sf_sync_EnumerateNetworkInterfacesERKNS0_8OutArrayINS6_2sf20NetworkInterfaceInfoEEENS0_3OutIivEEj = 0x0000000000314ac0 + __sdk_start;
_ZN2nn3ntc6detail4shim40EnsureNetworkClockAvailabilityClientImpl26GetFinishNotificationEventEv = 0x000000000038bce0 + __sdk_start;
_ZNSt3__115basic_streambufIcNS_11char_traitsIcEEE5uflowEv = 0x00000000004532d8 + __sdk_start;
_ZNSt3__15ctypeIwED0Ev = 0x0000000000485088 + __sdk_start;
pthread_condattr_getpshared = 0x00000000004bcec8 + __sdk_start;
_ZTVN2nn2sf6detail38ObjectImplFactoryWithStatefulAllocatorINS0_4cmif6client6detail9CmifProxyINS_2am7service15ISelfControllerENS4_19CmifDomainProxyKindINS0_4hipc6client38Hipc2ClientSessionManagedProxyKindBaseINSC_18Hipc2ProxyKindBaseILNSB_6detail11MessageTypeE6EEEEEEENS0_30MemoryResourceAllocationPolicyENS5_19ProcessModifierImplINS4_21DefaultProxyFilterTagEEEvEESK_E6ObjectE = 0x0000000000bc41a8 + __sdk_start;
_ZN2nn4bcat21DeliveryCacheProgressD2Ev = 0x00000000000c1b70 + __sdk_start;
FDKaalloc = 0x0000000000171dd0 + __sdk_start;
_ZN2nn4init5StartEmmPFvvES2_ = 0x0000000000296c50 + __sdk_start;
_ZN2nn2sf4hipc6server24HipcServerSessionManager19CreateServerSessionEONS0_4cmif6server20CmifServerObjectInfoE = 0x000000000035bba0 + __sdk_start;
_ZN2nn2sf13SharedPointerINS_3ssl2sf11ISslServiceEED2Ev = 0x000000000037b6e0 + __sdk_start;
_ZN2nn2sf4cmif6client6detail36GetClientProcessorImplWithObjectBaseINS2_19CmifDomainProxyKindINS0_4hipc6client38Hipc2ClientSessionManagedProxyKindBaseINS7_18Hipc2ProxyKindBaseILNS6_6detail11MessageTypeE6EEEEEEENS3_19ProcessModifierImplINS2_21DefaultProxyFilterTagEEEE14ObjectAssignerINS0_25StatelessAllocationPolicyINS0_22ExpHeapStaticAllocatorILm2048ENS_7account6detail12ObjectHolder24ObjectHolderAllocatorTagEEEEENS0_6detail23StatelessDummyAllocatorEE14AllocateObjectINSM_4baas14IAdministratorEEEvi = 0x0000000000045dd0 + __sdk_start;
_ZN2nn3hid22GetSixAxisSensorHandleEPNS0_26ConsoleSixAxisSensorHandleE = 0x0000000000243880 + __sdk_start;
nvgr_inc_write_count = 0x00000000003ee040 + __sdk_start;
_ZN2nn4diag18IsDebuggerAttachedEv = 0x00000000001800a0 + __sdk_start;
_ZN2nn2sf4hipc6client24Hipc2ClientCoreProcessorILNS1_6detail11MessageTypeE6ENS0_4cmif6detail14CoreMethodInfoINSt3__15tupleIJNS7_18OutRawArgumentInfoILm4ELm1ELl0EEENSB_ILm4ELm1ELl4EEENS7_17InRawArgumentInfoILm4ELm4ELl0EEEEEELm4ELm8ELb0EEESG_E7ProcessEPNS2_26Hipc2ClientProxyBaseObjectENS6_6client24OutRawClientArgumentTypeILm4ELm1EEESN_NSL_23InRawClientArgumentTypeILm4ELm4EvEEj = 0x0000000000259aa0 + __sdk_start;
_ZN2nn2sf4hipc6client24Hipc2ClientCoreProcessorILNS1_6detail11MessageTypeE6ENS0_4cmif6detail14CoreMethodInfoINSt3__15tupleIJNS7_17InRawArgumentInfoILm1ELm1ELl0EEENSB_ILm6ELm1ELl1EEEEEELm7ELm0ELb0EEESE_E7ProcessEPNS2_26Hipc2ClientProxyBaseObjectENS6_6client23InRawClientArgumentTypeILm1ELm1EvEENSK_ILm6ELm1EvEEj = 0x00000000000c8e90 + __sdk_start;
_ZN2nn7friends12SetAllocatorEPFPvmEPFvS1_mE = 0x00000000001d69e0 + __sdk_start;
_ZN2nn7friends16UnlinkSnsAccountEPNS0_12AsyncContextERKNS_7account3UidENS0_14SnsAccountTypeE = 0x00000000001d8dd0 + __sdk_start;
_IO_ferror_unlocked = 0x00000000004f1ff8 + __sdk_start;
_ZN2nn5audio42GetRequiredBufferSizeForPolyphaseResamplerEiiib = 0x000000000008d1a0 + __sdk_start;
_ZN2nn4nifm7RequestD2Ev = 0x000000000031a880 + __sdk_start;
_ZN2nn7account42NintendoAccountAuthorizationRequestContext9GetResultEv = 0x000000000004cb70 + __sdk_start;
_ZTIN2nn5audio6server11EntryAspectE = 0x0000000000bcd210 + __sdk_start;
_ZN2nn3hid6system20IsAbxyButtonOrientedERKj = 0x0000000000247430 + __sdk_start;
catopen = 0x00000000004d85d0 + __sdk_start;
_ZN2nn5audio29CreateAudioSnoopManagerByHipcEv = 0x00000000000967a0 + __sdk_start;
_ZN2nn2ec28AsyncRecoverRightDataRequest5BeginEv = 0x0000000000182e20 + __sdk_start;
_ZN2nn3err18ErrorResultVariantaSERKNS0_9ErrorCodeE = 0x0000000000196470 + __sdk_start;
_ZN2nn5srepo6detail17VerifyStringValueEPKcm = 0x0000000000338d60 + __sdk_start;
wcstoull = 0x00000000004f6d40 + __sdk_start;
__islower_l = 0x00000000004d6cd0 + __sdk_start;
strcpy = 0x00000000004f7fb8 + __sdk_start;
_ZTIN2nn2sf4cmif6client6detail13CmifProxyImplINS_2am7service16IAudioControllerENS2_19CmifDomainProxyKindINS0_4hipc6client38Hipc2ClientSessionManagedProxyKindBaseINSA_18Hipc2ProxyKindBaseILNS9_6detail11MessageTypeE6EEEEEEENS0_30MemoryResourceAllocationPolicyES7_NS3_19ProcessModifierImplINS2_21DefaultProxyFilterTagEEEEE = 0x0000000000bc4bf0 + __sdk_start;
_ZN2nn5audio14MemoryPoolInfo8FinalizeEv = 0x0000000000085880 + __sdk_start;
_ZTVSt14overflow_error = 0x0000000000bf1558 + __sdk_start;
_ZN2nn5image6detail4jpeg21jinit_color_converterEPNS2_20jpeg_compress_structE = 0x000000000026f440 + __sdk_start;
_ZNK2nn3mem17StandardAllocator18GetAllocatableSizeEv = 0x00000000002de700 + __sdk_start;
_ZN2nn2ro10LoadModuleEPNS0_6ModuleEPKvPvmib = 0x000000000033d0a0 + __sdk_start;
_ZN2nn2sf4cmif6client6detail13CmifProxyImplINS_2am7service15IAppletAccessorENS2_19CmifDomainProxyKindINS0_4hipc6client38Hipc2ClientSessionManagedProxyKindBaseINSA_18Hipc2ProxyKindBaseILNS9_6detail11MessageTypeE6EEEEEEENS0_30MemoryResourceAllocationPolicyENS6_22ILibraryAppletAccessorENS3_19ProcessModifierImplINS2_21DefaultProxyFilterTagEEEE38_nn_sf_sync_GetAppletStateChangedEventENS0_3OutINS0_12NativeHandleEvEE = 0x000000000005cb10 + __sdk_start;
_ZN2nn5audio13ListAudioOutsEPNS0_12AudioOutInfoEi = 0x0000000000097360 + __sdk_start;
_ZN2nn5audio6server12SinkInfoBase7CleanUpEv = 0x00000000000aaa60 + __sdk_start;
_ZNK2nn5audio6server23SplitterDestinationData16GetMixVolumePrevEi = 0x00000000000aaf20 + __sdk_start;
_ZTIN2nn8irsensor6detail7SessionE = 0x0000000000bd9d28 + __sdk_start;
fwprintf = 0x00000000004f3228 + __sdk_start;
_ZN2nn2sf4cmif6client6detail13CmifProxyImplINS_2am7service15IAppletAccessorENS2_19CmifDomainProxyKindINS0_4hipc6client38Hipc2ClientSessionManagedProxyKindBaseINSA_18Hipc2ProxyKindBaseILNS9_6detail11MessageTypeE6EEEEEEENS0_30MemoryResourceAllocationPolicyENS6_22ILibraryAppletAccessorENS3_19ProcessModifierImplINS2_21DefaultProxyFilterTagEEEE23_nn_sf_sync_IsCompletedENS0_3OutIbvEE = 0x000000000005cb30 + __sdk_start;
_ZN2nn2ec27BeginGetConsumableRightDataEPNS0_19ShopServiceAccessor13AsyncResponseERKNS_7account3UidEiiPS1_PNS_3mem17StandardAllocatorE = 0x0000000000183420 + __sdk_start;
_ZN2nn5image6detail18HandleLibjpegErrorEPNS1_4jpeg18jpeg_common_structE = 0x0000000000291d80 + __sdk_start;
_ZN2nn2ec19ShopServiceAccessor13AsyncResponse4WaitEv = 0x000000000018a6e0 + __sdk_start;
_ZN2nn2sf4cmif6client6detail13CmifProxyImplINS_4nifm6detail15IGeneralServiceENS2_19CmifDomainProxyKindINS0_4hipc6client38Hipc2ClientSessionManagedProxyKindBaseINSA_18Hipc2ProxyKindBaseILNS9_6detail11MessageTypeE6EEEEEEENS0_30MemoryResourceAllocationPolicyES7_NS3_19ProcessModifierImplINS2_21DefaultProxyFilterTagEEEE36_nn_sf_sync_EnumerateNetworkProfilesERKNS0_8OutArrayINS6_2sf23NetworkProfileBasicInfoEEENS0_3OutIivEEh = 0x0000000000314b00 + __sdk_start;
_ZN2nn2os19SetMemoryPermissionEmmNS0_16MemoryPermissionE = 0x0000000000328120 + __sdk_start;
_ZTIN2nn2sf4cmif6client6detail13CmifProxyImplINS_7account6detail13IAsyncContextENS2_19CmifDomainProxyKindINS0_4hipc6client38Hipc2ClientSessionManagedProxyKindBaseINSA_18Hipc2ProxyKindBaseILNS9_6detail11MessageTypeE6EEEEEEENS0_25StatelessAllocationPolicyINS0_22ExpHeapStaticAllocatorILm2048ENS6_12ObjectHolder24ObjectHolderAllocatorTagEEEEES7_NS3_19ProcessModifierImplINS2_21DefaultProxyFilterTagEEEEE = 0x0000000000bbdc70 + __sdk_start;
_ZN2nn9bluetooth31AcquireBleServiceDiscoveryEventEPNS_2os15SystemEventTypeE = 0x00000000000cf180 + __sdk_start;
_ZN2nn6fontll18ScalableFontEngine8LoadFontEPcPKvjj = 0x0000000000199db0 + __sdk_start;
_ZNK2nn4util15RelocationTable10GetSectionEi = 0x0000000000398db0 + __sdk_start;
_ZN2nn2sf4cmif6client6detail13CmifProxyImplINS_6grcsrv11IMovieMakerENS0_4hipc6client18Hipc2ProxyKindBaseILNS7_6detail11MessageTypeE6EEENS0_30MemoryResourceAllocationPolicyES6_NS3_19ProcessModifierImplINS2_21DefaultProxyFilterTagEEEE44_nn_sf_sync_CompleteOffscreenRecordingFinishEmRKNS0_8InBufferE = 0x0000000000076750 + __sdk_start;
_ZN2nn3mii6detail22GetFacelineColorToVer3ENS0_13FacelineColorE = 0x00000000002e3a00 + __sdk_start;
_ZN2nn2pl22SetUsbDetachedForDebugEb = 0x0000000000336d30 + __sdk_start;
_ZNK2nn4time27PeriodicBenefitClaimContext50GetLastReceivedStandardUserSystemClockCalendarTimeEPNS0_12CalendarTimeE = 0x0000000000383670 + __sdk_start;
_ZN7android21report_sysprop_changeEv = 0x0000000000033150 + __sdk_start;
_ZN2nn2sf4cmif6client6detail13CmifProxyImplINS_7account31IAccountServiceForAdministratorENS2_19CmifDomainProxyKindINS0_4hipc6client38Hipc2ClientSessionManagedProxyKindBaseINS9_18Hipc2ProxyKindBaseILNS8_6detail11MessageTypeE6EEEEEEENS0_25StatelessAllocationPolicyINS0_22ExpHeapStaticAllocatorILm2048ENS5_6detail12ObjectHolder24ObjectHolderAllocatorTagEEEEES6_NS3_19ProcessModifierImplINS2_21DefaultProxyFilterTagEEEE68_nn_sf_sync_ProxyProcedureForFloatingRegistrationWithNintendoAccountENS0_3OutINS0_13SharedPointerINS5_3nas29IOAuthProcedureForExternalNsaEEEvEERKNSJ_4UuidE = 0x0000000000044fc0 + __sdk_start;
_ZN2nn3hid22SetSupportedNpadIdTypeEPKjm = 0x0000000000246d70 + __sdk_start;
_ZNSt3__17codecvtIcc11__mbstate_tED1Ev = 0x000000000045e7c0 + __sdk_start;
_ZNK2nn3err18ErrorResultVariant8GetStateEv = 0x00000000001964b0 + __sdk_start;
_ZNK7android12MemoryDealer4dumpEPKc = 0x0000000000006000 + __sdk_start;
_ZN2nn2sf4cmif6client6detail13CmifProxyImplINS_2am7service18IAppletProxyCommonENS0_4hipc6client18Hipc2ProxyKindBaseILNS8_6detail11MessageTypeE6EEENS0_30MemoryResourceAllocationPolicyENS6_18ISystemAppletProxyENS3_19ProcessModifierImplINS2_21DefaultProxyFilterTagEEEE12GetProxyInfoEv = 0x0000000000067d90 + __sdk_start;
_ZN2nn2sf4cmif6client6detail13CmifProxyImplINS_5prepo6detail3ipc13IPrepoServiceENS2_19CmifDomainProxyKindINS0_4hipc6client38Hipc2ClientSessionManagedProxyKindBaseINSB_18Hipc2ProxyKindBaseILNSA_6detail11MessageTypeE6EEEEEEENS0_30MemoryResourceAllocationPolicyES8_NS3_19ProcessModifierImplINS2_21DefaultProxyFilterTagEEEE24_nn_sf_sync_ClearStorageEv = 0x000000000033ba90 + __sdk_start;
_ZN2nn3web6detail14WebSessionImpl7canSendERKNS1_23WebSessionMessageHeaderEm = 0x00000000003b6850 + __sdk_start;
gettext = 0x00000000004dacb0 + __sdk_start;
NvRmGpuDeviceListTemperatureSensors = 0x00000000003ef640 + __sdk_start;
_setjmp = 0x00000000004b9104 + __sdk_start;
__stdout_write = 0x00000000004bcd58 + __sdk_start;
nncodecLibopus_run_analysis = 0x00000000001165d0 + __sdk_start;
_ZNSt3__17__sort5IRNS_6__lessImmEEPmEEjT0_S5_S5_S5_S5_T_ = 0x00000000004491c0 + __sdk_start;
_ZN2nn5audio6server11InfoUpdaterC1EmmmmjRNS1_12BehaviorInfoE = 0x00000000000a5950 + __sdk_start;
_ZN2nn2sf4cmif6client6detail13CmifProxyImplINS_5visrv2sf22IManagerDisplayServiceENS0_4hipc6client18Hipc2ProxyKindBaseILNS8_6detail11MessageTypeE6EEENS0_30MemoryResourceAllocationPolicyES7_NS3_19ProcessModifierImplINS2_21DefaultProxyFilterTagEEEE32_nn_sf_sync_DestroyIndirectLayerEm = 0x00000000003a7280 + __sdk_start;
_ZN2nn2sf4hipc6client24Hipc2ClientCoreProcessorILNS1_6detail11MessageTypeE6ENS0_4cmif6detail14CoreMethodInfoINSt3__15tupleIJNS7_18BufferArgumentInfoILi0ELi26ELm1152EEEEEELm0ELm0ELb0EEESD_E7ProcessEPNS2_26Hipc2ClientProxyBaseObjectENS6_6client24BufferClientArgumentTypeEj = 0x00000000002b7980 + __sdk_start;
_ZN2nn5audio18CopyMemoryPoolDataEPKNS0_14MemoryPoolTypeEPvPKvm = 0x0000000000085780 + __sdk_start;
_ZTVN2nn2sf6detail38ObjectImplFactoryWithStatefulAllocatorINS0_4cmif6client6detail9CmifProxyINS_4bcat6detail3ipc29IDeliveryCacheProgressServiceENS4_19CmifDomainProxyKindINS0_4hipc6client38Hipc2ClientSessionManagedProxyKindBaseINSD_18Hipc2ProxyKindBaseILNSC_6detail11MessageTypeE6EEEEEEENS0_30MemoryResourceAllocationPolicyENS5_19ProcessModifierImplINS4_21DefaultProxyFilterTagEEEvEESL_E6ObjectE = 0x0000000000bcde38 + __sdk_start;
_ZNK7android6Thread9isRunningEv = 0x0000000000037610 + __sdk_start;
_ZNSt3__115__thread_structC1Ev = 0x000000000049e698 + __sdk_start;
_ZN2nn5audio13EffectManager3AddEPPNS0_10EffectInfoENS0_10EffectTypeEPvmPNS0_7MixInfoE = 0x0000000000084160 + __sdk_start;
_ZNK2nn5audio6server23SplitterDestinationData16GetMixVolumePrevEv = 0x00000000000aaf40 + __sdk_start;
pthread_attr_setstack = 0x00000000004bcf98 + __sdk_start;
FDK_setBitCnt = 0x00000000001387b0 + __sdk_start;
_ZN2nn8settings6system39GetConsoleSixAxisSensorAccelerationBiasEPNS1_36ConsoleSixAxisSensorAccelerationBiasE = 0x0000000000348f50 + __sdk_start;
_ZN2nn4time22GetTimeZoneRuleVersionEPNS0_19TimeZoneRuleVersionE = 0x0000000000383c80 + __sdk_start;
_ZTIN2nn2sf6detail16ObjectHolderImplINS0_13InterfaceInfoINS_5audio6detail21IAudioRendererManagerEE5_tO2NINS4_6server24AudioRendererManagerImplEE4typeEvEE = 0x0000000000bcda70 + __sdk_start;
_ZN2nn2la27AppletToNifmArgumentsReader20TryPopFromOutChannelENS_6applet19LibraryAppletHandleE = 0x00000000002b4fe0 + __sdk_start;
_ZN2nn3hid37SetPalmaDataBaseIdentificationVersionERKNS0_21PalmaConnectionHandleEi = 0x0000000000248df0 + __sdk_start;
_ZN2nn2sf4cmif6client6detail13CmifProxyImplINS_7friends6detail3ipc14IFriendServiceENS2_19CmifDomainProxyKindINS0_4hipc6client38Hipc2ClientSessionManagedProxyKindBaseINSB_18Hipc2ProxyKindBaseILNSA_6detail11MessageTypeE6EEEEEEENS0_30MemoryResourceAllocationPolicyES8_NS3_19ProcessModifierImplINS2_21DefaultProxyFilterTagEEEE31_nn_sf_sync_GetProfileExtraListERKNS0_8OutArrayINS6_16ProfileExtraImplEEERKNS_7account3UidERKNS0_7InArrayINST_23NetworkServiceAccountIdEEE = 0x00000000001df580 + __sdk_start;
_ZN2nn2sf4hipc6client24Hipc2ClientCoreProcessorILNS1_6detail11MessageTypeE6ENS0_4cmif6detail14CoreMethodInfoINSt3__15tupleIJNS7_18OutRawArgumentInfoILm2ELm2ELl0EEEEEELm0ELm2ELb0EEESD_E7ProcessEPNS2_26Hipc2ClientProxyBaseObjectENS6_6client24OutRawClientArgumentTypeILm2ELm2EEEj = 0x00000000002b7b90 + __sdk_start;
_ZN2nn4lmem6detail23CheckExpHeapMemoryBlockEPKvPNS1_8HeapHeadEj = 0x00000000002bcaa0 + __sdk_start;
_ZN2nn2sf4cmif6client6detail13CmifProxyImplINS_3apm8IManagerENS0_4hipc6client18Hipc2ProxyKindBaseILNS7_6detail11MessageTypeE6EEENS0_30MemoryResourceAllocationPolicyES6_NS3_19ProcessModifierImplINS2_21DefaultProxyFilterTagEEEE12GetProxyInfoEv = 0x0000000000079e20 + __sdk_start;
_ZN2nn5album10InitializeEv = 0x000000000004ef90 + __sdk_start;
_ZN2nn2os18AttachSharedMemoryEPNS0_16SharedMemoryTypeEmjb = 0x00000000003281b0 + __sdk_start;
_ZN2nn5album28ShowAllAlbumFilesForHomeMenuEv = 0x0000000000051bd0 + __sdk_start;
_ZN2nn4lmem14CreateUnitHeapEPvmmi = 0x00000000002bbcb0 + __sdk_start;
nnmem_nlib_dprintf = 0x00000000002bf0b0 + __sdk_start;
_ZN2nn7account41CachedNintendoAccountInfoForSystemServiceC1Ev = 0x0000000000049ac0 + __sdk_start;
_ZN2nn2sf4hipc6client34HipcSimpleClientSessionManagerBaseINS2_29DefaultSessionResourceManagerEE4Impl18InitializeByHandleINS_2am7service24IApplicationProxyServiceENS0_30MemoryResourceAllocationPolicyENS0_4cmif6client6detail19ProcessModifierImplINSD_21DefaultProxyFilterTagEEEEENS_6ResultEPNS0_13SharedPointerIT_EEPNT0_9AllocatorENS_3svc6HandleE = 0x0000000000066d40 + __sdk_start;
_ZN2nn2sf6detail38ObjectImplFactoryWithStatefulAllocatorINS0_4cmif6client6detail9CmifProxyINS_8settings21ISystemSettingsServerENS0_4hipc6client18Hipc2ProxyKindBaseILNS9_6detail11MessageTypeE6EEENS0_30MemoryResourceAllocationPolicyENS5_19ProcessModifierImplINS4_21DefaultProxyFilterTagEEEvEESF_E6Object12AddReferenceEv = 0x0000000000341580 + __sdk_start;
wcscspn = 0x00000000004f9100 + __sdk_start;
_ZN2nn2sf4cmif6client6detail13CmifProxyImplINS_2am7service21IApplicationFunctionsENS0_4hipc6client18Hipc2ProxyKindBaseILNS8_6detail11MessageTypeE6EEENS0_30MemoryResourceAllocationPolicyES7_NS3_19ProcessModifierImplINS2_21DefaultProxyFilterTagEEEE39_nn_sf_sync_InitializeGamePlayRecordingEONS0_12NativeHandleEm = 0x0000000000074a10 + __sdk_start;
FDK_Feed = 0x00000000001387d0 + __sdk_start;
FSS_set_font = 0x000000000019ed30 + __sdk_start;
_ZN2nn5audio3dsp17ApplyBiquadFilterEPfPKfPKsS6_PNS0_17BiquadFilterStateEi = 0x00000000000af660 + __sdk_start;
_ZN2nn2sf4cmif6client6detail13CmifProxyImplINS_8settings21ISystemSettingsServerENS0_4hipc6client18Hipc2ProxyKindBaseILNS7_6detail11MessageTypeE6EEENS0_30MemoryResourceAllocationPolicyES6_NS3_19ProcessModifierImplINS2_21DefaultProxyFilterTagEEEE56_nn_sf_sync_SetUserSystemClockAutomaticCorrectionEnabledEb = 0x0000000000341f70 + __sdk_start;
NvBlitSetDumpPath = 0x00000000003e1a10 + __sdk_start;
_ZN2nn5audio14MemoryPoolInfo7PrepareEPNS1_11InParameterE = 0x0000000000085b20 + __sdk_start;
_ZNK2nn3mii6detail16Ver3StoreDataRaw16GetEyebrowRotateEv = 0x00000000002ed590 + __sdk_start;
_ZN2nn2sf4cmif6client6detail13CmifProxyImplINS_8settings28IFirmwareDebugSettingsServerENS0_4hipc6client18Hipc2ProxyKindBaseILNS7_6detail11MessageTypeE6EEENS0_30MemoryResourceAllocationPolicyES6_NS3_19ProcessModifierImplINS2_21DefaultProxyFilterTagEEEE12GetProxyInfoEv = 0x0000000000340440 + __sdk_start;
_ZdaPvmSt11align_val_t = 0x0000000000492e00 + __sdk_start;
_ZN2nn2sf4hipc23InitializeInProcessPortEPNS_14MemoryResourceE = 0x000000000035d270 + __sdk_start;
_ZTIN2nn2sf4cmif6client6detail9CmifProxyINS_7account3nas29IOAuthProcedureForExternalNsaENS2_19CmifDomainProxyKindINS0_4hipc6client38Hipc2ClientSessionManagedProxyKindBaseINSA_18Hipc2ProxyKindBaseILNS9_6detail11MessageTypeE6EEEEEEENS0_25StatelessAllocationPolicyINS0_22ExpHeapStaticAllocatorILm2048ENS5_6detail12ObjectHolder24ObjectHolderAllocatorTagEEEEENS3_19ProcessModifierImplINS2_21DefaultProxyFilterTagEEEvEE = 0x0000000000bbf210 + __sdk_start;
_ZTIN2nn2sf6detail38ObjectImplFactoryWithStatefulAllocatorINS0_4cmif6client6detail9CmifProxyIN3nns9hosbinder16IHOSBinderDriverENS0_4hipc6client18Hipc2ProxyKindBaseILNSA_6detail11MessageTypeE6EEENS0_30MemoryResourceAllocationPolicyENS5_19ProcessModifierImplINS4_21DefaultProxyFilterTagEEEvEESG_E6ObjectE = 0x0000000000bca210 + __sdk_start;
_ZN2nn5audio32GetAuxI3dl2ReverbChannelCountMaxEPKNS0_18AuxI3dl2ReverbTypeE = 0x000000000007f9c0 + __sdk_start;
__iswlower_l = 0x00000000004d72a8 + __sdk_start;
_ZN2nn5codec29Hcr_State_BODY_SIGN_ESC__SIGNEPNS0_13FDK_BITSTREAMEPv = 0x00000000001281f0 + __sdk_start;
_ZN2nn5swkbd6detail18InlineKeyboardImpl9SetVolumeEf = 0x0000000000381110 + __sdk_start;
_ZN2nn2vi6detail18SystemServiceProxy32FinalizeSystemDisplayServiceImplEv = 0x00000000003b0410 + __sdk_start;
_ZNSt3__113basic_ostreamIcNS_11char_traitsIcEEE3putEc = 0x000000000045af48 + __sdk_start;
_ZNSt15underflow_errorD1Ev = 0x00000000004b5470 + __sdk_start;
_ZN2nn6crypto6detail7AesImplILm24EED2Ev = 0x0000000000179b60 + __sdk_start;
_ZNK2nn7account38ExternalNetworkServiceAccountRegistrar26GetOAuthProcedureSessionIdEPNS0_9SessionIdE = 0x000000000004a030 + __sdk_start;
_ZN2nn7account27StoreSaveDataThumbnailImageERKNS0_3UidEPKvm = 0x000000000003c740 + __sdk_start;
_ZNK2nn5audio16VoiceInfoManager16IsVoiceInfoValidEPKNS0_9VoiceInfoE = 0x000000000008a780 + __sdk_start;
_ZNK2nn5audio6server12SinkInfoBase10ShouldSkipEv = 0x00000000000aaa40 + __sdk_start;
_ZN2nn5codec19CProgramConfig_ReadEPNS0_14CProgramConfigEPNS0_13FDK_BITSTREAMEj = 0x0000000000145c10 + __sdk_start;
_ZN2nn2sf4cmif6client6detail13CmifProxyImplINS_8settings21ISystemSettingsServerENS0_4hipc6client18Hipc2ProxyKindBaseILNS7_6detail11MessageTypeE6EEENS0_30MemoryResourceAllocationPolicyES6_NS3_19ProcessModifierImplINS2_21DefaultProxyFilterTagEEEE34_nn_sf_sync_SetBacklightSettingsExERKNS5_6system19BacklightSettingsExE = 0x0000000000342640 + __sdk_start;
_ZN2nn2sf4cmif6client6detail13CmifProxyImplINS_8settings21ISystemSettingsServerENS0_4hipc6client18Hipc2ProxyKindBaseILNS7_6detail11MessageTypeE6EEENS0_30MemoryResourceAllocationPolicyES6_NS3_19ProcessModifierImplINS2_21DefaultProxyFilterTagEEEE39_nn_sf_sync_GetPtmCycleCountReliabilityENS0_3OutIivEE = 0x0000000000342f50 + __sdk_start;
_ZN2nn2sf4cmif6client6detail13CmifProxyImplINS_2am7service8IStorageENS0_4hipc6client18Hipc2ProxyKindBaseILNS8_6detail11MessageTypeE6EEENS0_30MemoryResourceAllocationPolicyES7_NS3_19ProcessModifierImplINS2_21DefaultProxyFilterTagEEEE17GetCmifBaseObjectEv = 0x000000000006b380 + __sdk_start;
_ZN2nn2sf4hipc6client24Hipc2ClientCoreProcessorILNS1_6detail11MessageTypeE6ENS0_4cmif6detail14CoreMethodInfoINSt3__15tupleIJNS7_18BufferArgumentInfoILi0ELi6ELm0EEENS7_18OutRawArgumentInfoILm4ELm4ELl0EEEEEELm0ELm4ELb0EEESF_E7ProcessEPNS2_26Hipc2ClientProxyBaseObjectENS6_6client24BufferClientArgumentTypeENSK_24OutRawClientArgumentTypeILm4ELm4EEEj = 0x0000000000090a80 + __sdk_start;
_ZN2nn7friends20GetSnsAccountLinkageEPNS0_12AsyncContextEPNS0_17SnsAccountLinkageERKNS_7account3UidE = 0x00000000001d8e90 + __sdk_start;
_ZNK2nn3web26OfflineHtmlPageReturnValue14GetLastUrlSizeEv = 0x00000000003b2b10 + __sdk_start;
_ZN2nn3web17OfflineWebSession24TryReceiveContentMessageEPmPcm = 0x00000000003b4460 + __sdk_start;
_ZN2nn6socket8resolver10serializer13DNSSerializer8ToBufferINS0_6InAddrEEElPhmRKT_ = 0x00000000003632f0 + __sdk_start;
_ZN2nn5audio16ReleaseVoiceSlotEPNS0_19AudioRendererConfigEPNS0_9VoiceTypeE = 0x0000000000089870 + __sdk_start;
_ZTIN2nn2sf4cmif6client6detail9CmifProxyINS_8irsensor21IIrSensorSystemServerENS0_4hipc6client18Hipc2ProxyKindBaseILNS7_6detail11MessageTypeE6EEENS0_25StatelessAllocationPolicyINS0_22ExpHeapStaticAllocatorILm16384ENS5_6detail20IrSensorSystemServerEEEEENS3_19ProcessModifierImplINS2_21DefaultProxyFilterTagEEEvEE = 0x0000000000bda0b0 + __sdk_start;
nvnBootstrapLoader = 0x0000000000442460 + __sdk_start;
stdin = 0x0000000000bf2650 + __sdk_start;
stpncpy = 0x00000000004f7c38 + __sdk_start;
nnmem_nlib_utf32ncpy_ = 0x00000000002c2bb0 + __sdk_start;
_ZN2nn2sf4cmif6client6detail13CmifProxyImplINS_5visrv2sf21ISystemDisplayServiceENS0_4hipc6client18Hipc2ProxyKindBaseILNS8_6detail11MessageTypeE6EEENS0_30MemoryResourceAllocationPolicyES7_NS3_19ProcessModifierImplINS2_21DefaultProxyFilterTagEEEE31_nn_sf_sync_SetDisplayUnderscanEml = 0x00000000003a5aa0 + __sdk_start;
_ZNKSt3__110error_code7messageEv = 0x000000000049d9a0 + __sdk_start;
nnmem_nlib_thread_attr_getint = 0x00000000002be0b0 + __sdk_start;
_ZN2nn2sf4cmif6client6detail13CmifProxyImplINS_7account19IAccountServiceBaseENS2_19CmifDomainProxyKindINS0_4hipc6client38Hipc2ClientSessionManagedProxyKindBaseINS9_18Hipc2ProxyKindBaseILNS8_6detail11MessageTypeE6EEEEEEENS0_25StatelessAllocationPolicyINS0_22ExpHeapStaticAllocatorILm2048ENS5_6detail12ObjectHolder24ObjectHolderAllocatorTagEEEEENS5_29IAccountServiceForApplicationENS3_19ProcessModifierImplINS2_21DefaultProxyFilterTagEEEE43_nn_sf_sync_TrySelectUserWithoutInteractionENS0_3OutINS5_3UidEvEEb = 0x000000000003e290 + __sdk_start;
_ZN2nn2sf4cmif6client6detail36GetClientProcessorImplWithObjectBaseINS0_4hipc6client18Hipc2ProxyKindBaseILNS5_6detail11MessageTypeE6EEENS3_19ProcessModifierImplINS2_21DefaultProxyFilterTagEEEE14ObjectAssignerINS0_30MemoryResourceAllocationPolicyENS_14MemoryResourceEE14AllocateObjectINS_2am7service15ISelfControllerEEEvi = 0x0000000000069d20 + __sdk_start;
_ZN2nn5audio49CalculatePolyphaseResamplerActualOutputSampleRateEii = 0x000000000008d100 + __sdk_start;
_ZN2nn5codec29aacDecoder_drcInitChannelDataEPNS0_15CDrcChannelDataE = 0x0000000000121240 + __sdk_start;
_ZN2nn2sf4cmif6client6detail13CmifProxyImplINS_3hid16IHidSystemServerENS0_4hipc6client18Hipc2ProxyKindBaseILNS7_6detail11MessageTypeE6EEENS0_30MemoryResourceAllocationPolicyES6_NS3_19ProcessModifierImplINS2_21DefaultProxyFilterTagEEEE59_nn_sf_sync_IsSixAxisSensorAccurateUserCalibrationSupportedENS0_3OutIbvEENS5_6system25UniqueSixAxisSensorHandleENS_6applet20AppletResourceUserIdE = 0x000000000025f180 + __sdk_start;
_ZTVN2nn2sf6detail39ObjectImplFactoryWithStatelessAllocatorINS0_4cmif6client6detail9CmifProxyINS_7account4baas18IGuestLoginRequestENS4_19CmifDomainProxyKindINS0_4hipc6client38Hipc2ClientSessionManagedProxyKindBaseINSC_18Hipc2ProxyKindBaseILNSB_6detail11MessageTypeE6EEEEEEENS0_25StatelessAllocationPolicyINS0_22ExpHeapStaticAllocatorILm2048ENS7_6detail12ObjectHolder24ObjectHolderAllocatorTagEEEEENS5_19ProcessModifierImplINS4_21DefaultProxyFilterTagEEEvEESQ_E6ObjectE = 0x0000000000bbdfc8 + __sdk_start;
_ZN2nn9bluetooth17GetLeHidEventInfoEPNS0_12BleEventTypeEPht = 0x00000000000cbef0 + __sdk_start;
_ZN2nn2sf4cmif6client6detail13CmifProxyImplINS_4pctl6detail3ipc23IParentalControlServiceENS2_19CmifDomainProxyKindINS0_4hipc6client38Hipc2ClientSessionManagedProxyKindBaseINSB_18Hipc2ProxyKindBaseILNSA_6detail11MessageTypeE6EEEEEEENS0_30MemoryResourceAllocationPolicyES8_NS3_19ProcessModifierImplINS2_21DefaultProxyFilterTagEEEE44_nn_sf_sync_NotifyWrongPinCodeInputManyTimesEv = 0x0000000000334200 + __sdk_start;
NvOsThreadCreate = 0x00000000003bc4e0 + __sdk_start;
_ZN2nn6crypto6detail6BigNum10RightShiftEPjPKjii = 0x00000000001742b0 + __sdk_start;
_ZN2nn6crypto6detail6BigNum9LeftShiftEPjPKjii = 0x0000000000174160 + __sdk_start;
vfprintf = 0x00000000004c5900 + __sdk_start;
_ZN2nn3ngc6detail3Bp_D2Ev = 0x0000000000309750 + __sdk_start;
_ZN2nn5audio6server38CommandProcessingTimeEstimatorVersion28EstimateERKNS0_19DepopPrepareCommandE = 0x00000000000a5180 + __sdk_start;
_ZN2nn2sf6detail38ObjectImplFactoryWithStatefulAllocatorINS0_4cmif6client6detail9CmifProxyINS_7timesrv6detail7service14IStaticServiceENS4_19CmifDomainProxyKindINS0_4hipc6client38Hipc2ClientSessionManagedProxyKindBaseINSD_18Hipc2ProxyKindBaseILNSC_6detail11MessageTypeE6EEEEEEENS0_30MemoryResourceAllocationPolicyENS5_19ProcessModifierImplINS4_21DefaultProxyFilterTagEEEvEESL_E6Object12AddReferenceEv = 0x0000000000387df0 + __sdk_start;
_ZN2nn2sf4cmif6client6detail13CmifProxyImplINS_3hid16IHidSystemServerENS0_4hipc6client18Hipc2ProxyKindBaseILNS7_6detail11MessageTypeE6EEENS0_30MemoryResourceAllocationPolicyES6_NS3_19ProcessModifierImplINS2_21DefaultProxyFilterTagEEEE36_nn_sf_sync_InitializeFirmwareUpdateEv = 0x000000000025eff0 + __sdk_start;
NvOsModifyFpsTarget = 0x00000000003c4910 + __sdk_start;
_ZN2nn4util6Base6416FromBase64StringEPmPvmPKcmNS1_4ModeE = 0x00000000003982f0 + __sdk_start;
nnsocketInetHtonl = 0x0000000000360d10 + __sdk_start;
_ZN2nn9bluetooth24AcquireBleMtuConfigEventEPNS_2os15SystemEventTypeE = 0x00000000000cf530 + __sdk_start;
_ZNK2nn3web20SharePageReturnValue22GetPostServiceNameSizeEv = 0x000000000035ee40 + __sdk_start;
NvRmChannelRegWr = 0x00000000003d53f0 + __sdk_start;
_ZN2nn2fs6detail18FileSystemAccessor26DeleteDirectoryRecursivelyEPKc = 0x00000000001ef2f0 + __sdk_start;
_ZN2nn2sf4hipc6server28HipcServerSessionManagerBase16CloseSessionBaseEPNS2_21HipcServerSessionBaseE = 0x000000000035c100 + __sdk_start;
_ZN2nn2sf4cmif6client6detail13CmifProxyImplINS_2am7service19IApplicationCreatorENS0_4hipc6client18Hipc2ProxyKindBaseILNS8_6detail11MessageTypeE6EEENS0_30MemoryResourceAllocationPolicyES7_NS3_19ProcessModifierImplINS2_21DefaultProxyFilterTagEEEE48_nn_sf_sync_PopFloatingApplicationForDevelopmentENS0_3OutINS0_13SharedPointerINS6_20IApplicationAccessorEEEvEE = 0x0000000000070b30 + __sdk_start;
_ZTIN2nn3nim6detail33IShopServiceAccessSystemInterfaceE = 0x0000000000bd1c30 + __sdk_start;
_ZN2nn7friends18FriendDetailedInfoC1Ev = 0x00000000001db460 + __sdk_start;
_ZN2nn8settings6system32SetChineseTraditionalInputMethodENS0_29ChineseTraditionalInputMethodE = 0x0000000000347a00 + __sdk_start;
_ZN2nn2os19TryAcquireSemaphoreEPNS0_13SemaphoreTypeE = 0x00000000003276c0 + __sdk_start;
_ZN3nne4nlib12OutputStream14GetWorkBuffer_Ev = 0x00000000003a1fe0 + __sdk_start;
_ZThn16_N2nn2sf4cmif6client6detail13CmifProxyImplINS_2am7service21IApplicationFunctionsENS0_4hipc6client18Hipc2ProxyKindBaseILNS8_6detail11MessageTypeE6EEENS0_30MemoryResourceAllocationPolicyES7_NS3_19ProcessModifierImplINS2_21DefaultProxyFilterTagEEEE17GetCmifBaseObjectEv = 0x0000000000074e40 + __sdk_start;
_ZNK2nn5audio6server14MemoryPoolInfo6IsUsedEv = 0x00000000000a8ab0 + __sdk_start;
_ZN2nn7account40ShowLicenseRequirementsForNetworkServiceERKNS0_3UidERKNS_3err9ErrorCodeE = 0x000000000003a560 + __sdk_start;
decimating2Ch16TapFilter = 0x000000000009a8c0 + __sdk_start;
_ZN2nn3mii6detail25CalculateSizeAndAlignmentC2Ev = 0x00000000002e2640 + __sdk_start;
_ZN2nn5prepo16SystemPlayReport16SetApplicationIdERKNS_13ApplicationIdE = 0x000000000033a9c0 + __sdk_start;
_ZN2nn3hid6detail32SetNpadAnalogStickUseCenterClampEb = 0x00000000002371b0 + __sdk_start;
_ZThn16_N7android18BnConsumerListener10onTransactEjRKNS_6ParcelEPS1_j = 0x0000000000012a80 + __sdk_start;
_ZN2nn7account42NintendoAccountAuthorizationRequestContext20GetAuthorizationCodeEPmPcm = 0x000000000004cd40 + __sdk_start;
_ZN2nn5audio6common16UpdateDataHeader10InitializeEj = 0x000000000008b6d0 + __sdk_start;
_ZN2nn9bluetooth12HidGetReportEPKNS0_7AddressENS0_21BluetoothHhReportTypeEh = 0x00000000000caca0 + __sdk_start;
nncodecLibopus_unquant_energy_finalise = 0x00000000000eda60 + __sdk_start;
_ZN2nn4nifm27SetRequestRequirementPresetENS0_13RequestHandleENS0_17RequirementPresetE = 0x0000000000319fb0 + __sdk_start;
pthread_cond_timedwait = 0x00000000004bcfe8 + __sdk_start;
_ZNK2nn2os6detail34MultiWaitHolderOfInterProcessEvent15GetNativeHandleEPj = 0x000000000032bd70 + __sdk_start;
_ZTIN2nn2sf6detail38ObjectImplFactoryWithStatefulAllocatorINS0_4cmif6client6detail9CmifProxyINS_2am7service18ISystemAppletProxyENS0_4hipc6client18Hipc2ProxyKindBaseILNSA_6detail11MessageTypeE6EEENS0_30MemoryResourceAllocationPolicyENS5_19ProcessModifierImplINS4_21DefaultProxyFilterTagEEEvEESG_E6ObjectE = 0x0000000000bc7710 + __sdk_start;
_ZN2nn5prepo16SetOperationModeEl = 0x0000000000339af0 + __sdk_start;
_ZN2nn5swkbd6detail18InlineKeyboardImpl17UnsetCustomizeDicEv = 0x0000000000381780 + __sdk_start;
_ZTVN2nn2sf6detail38ObjectImplFactoryWithStatefulAllocatorINS0_4cmif6client6detail9CmifProxyINS_4npns21INotificationReceiverENS0_4hipc6client18Hipc2ProxyKindBaseILNS9_6detail11MessageTypeE6EEENS0_30MemoryResourceAllocationPolicyENS5_19ProcessModifierImplINS4_21DefaultProxyFilterTagEEEvEESF_E6ObjectE = 0x0000000000bdecf8 + __sdk_start;
_ZN2nn2os15ClearTimerEventEPNS0_14TimerEventTypeE = 0x00000000003255d0 + __sdk_start;
nnsocketInetHtons = 0x0000000000360d00 + __sdk_start;
_ZN2nn2sf4cmif6client6detail13CmifProxyImplINS_3apm14ISystemManagerENS0_4hipc6client18Hipc2ProxyKindBaseILNS7_6detail11MessageTypeE6EEENS0_30MemoryResourceAllocationPolicyES6_NS3_19ProcessModifierImplINS2_21DefaultProxyFilterTagEEEE34_nn_sf_sync_GetLastThrottlingStateENS0_3OutINS5_15ThrottlingStateEvEE = 0x000000000007afb0 + __sdk_start;
_ZN2nn5swkbd14InlineKeyboard31SetReleasedUserWordInfoCallbackEPFvvE = 0x0000000000380a00 + __sdk_start;
_ZN2nn3web20SetScreenShotEnabledEPNS0_14ShowWebPageArgE = 0x00000000003b5480 + __sdk_start;
_ZN2nn3web10WebSession17GetWorkBufferSizeEv = 0x00000000003b5a70 + __sdk_start;
_ZN2nn3hid6detail18GetNpadJoyHoldTypeEPNS0_15NpadJoyHoldTypeE = 0x0000000000232c70 + __sdk_start;
_ZN2nn3ngc6detail9SparseSet12SetAllocatorEPNS1_16WorkBufAllocatorE = 0x00000000003103c0 + __sdk_start;
_ZN2nn5audio32GetOscMessageNextArgumentTypeTagEPNS0_14OscMessageTypeE = 0x0000000000086760 + __sdk_start;
_ZN2nn5codec5fLog2Eii = 0x0000000000140d70 + __sdk_start;
_ZN2nn7friends6FriendC2Ev = 0x00000000001db240 + __sdk_start;
_ZN2nn2sf4hipc6client24Hipc2ClientCoreProcessorILNS1_6detail11MessageTypeE6ENS0_4cmif6detail14CoreMethodInfoINSt3__15tupleIJNS7_18BufferArgumentInfoILi0ELi26ELm1152EEENSB_ILi1ELi10ELm0EEEEEELm0ELm0ELb0EEESE_E7ProcessEPNS2_26Hipc2ClientProxyBaseObjectENS6_6client24BufferClientArgumentTypeESK_j = 0x00000000002b7ca0 + __sdk_start;
_ZN2nn8irsensor6detail18StopImageProcessorERKNS0_14IrCameraHandleE = 0x0000000000296f60 + __sdk_start;
_ZN2nn4diag6detail26GetSdkAbortObserverManagerEv = 0x0000000000180750 + __sdk_start;
nnmem_nlib_condrwlock_wait_for = 0x00000000002bebd0 + __sdk_start;
nnmem_nlib_strnlen = 0x00000000002d4dd0 + __sdk_start;
_ZN2nn3ngc6detail7SbvRank6ImportEPNS1_12BinaryReaderEj = 0x000000000030df40 + __sdk_start;
_ZThn16_N2nn2sf4cmif6client6detail13CmifProxyImplINS_2am7service26ILibraryAppletSelfAccessorENS0_4hipc6client18Hipc2ProxyKindBaseILNS8_6detail11MessageTypeE6EEENS0_30MemoryResourceAllocationPolicyES7_NS3_19ProcessModifierImplINS2_21DefaultProxyFilterTagEEEE17GetCmifBaseObjectEv = 0x0000000000072080 + __sdk_start;
_ZN2nn5codec11OpusDecoder10InitializeEiiPvm = 0x000000000011e210 + __sdk_start;
_ZN2nn4pctl18PairingAccountInfoD2Ev = 0x0000000000332390 + __sdk_start;
_ZN2nn5swkbd6detail18InlineKeyboardImpl16CalcMovedCursor_ENS_6applet13StorageHandleEm = 0x0000000000382100 + __sdk_start;
_ZN2nn3web14ShowWebPageArg17SetBackgroundKindENS0_17WebBackgroundKindE = 0x00000000003b4a90 + __sdk_start;
NvOsTlsSet = 0x00000000003c36f0 + __sdk_start;
_ZN2nn9bluetooth14CircularBuffer8FinalizeEv = 0x00000000000cdeb0 + __sdk_start;
_ZNK7android6Parcel11readString8Ev = 0x000000000000a660 + __sdk_start;
_ZNK2nn5audio15PerformanceInfo13GetFrameIndexEv = 0x0000000000086c40 + __sdk_start;
_ZN2nn5audio6server14MemoryPoolInfo7SetUsedEb = 0x00000000000a8aa0 + __sdk_start;
_ZN2nn3mii6detail12StoreDataRaw13SetBeardColorEi = 0x00000000002ea790 + __sdk_start;
nnsocketInetNtohl = 0x0000000000360d30 + __sdk_start;
_ZThn16_N2nn2sf4cmif6client6detail13CmifProxyImplINS_5visrv2sf26IApplicationDisplayServiceENS0_4hipc6client18Hipc2ProxyKindBaseILNS8_6detail11MessageTypeE6EEENS0_30MemoryResourceAllocationPolicyES7_NS3_19ProcessModifierImplINS2_21DefaultProxyFilterTagEEEE17GetCmifBaseObjectEv = 0x00000000003a5630 + __sdk_start;
NvRmMemWrite = 0x00000000003cfa40 + __sdk_start;
_ZNK2nn3ngc6detail11AhoCorasick7MemSizeEPmS3_S3_S3_ = 0x0000000000307210 + __sdk_start;
_ZN2nn9bluetooth19RegisterBleHidEventEPNS_2os15SystemEventTypeE = 0x00000000000cbe70 + __sdk_start;
_ZN2nn2ec37ConsumableServiceItemAsyncRequestBase19GetRightDataManagerEv = 0x0000000000182a50 + __sdk_start;
_ZNSt3__113basic_istreamIwNS_11char_traitsIwEEE6ignoreElj = 0x0000000000458700 + __sdk_start;
_ZN2nn5album22SaveAndShareScreenshotEPNS0_7ShareIdEPKvmNS0_9ImageSizeENS0_16ImageOrientationENS0_17AlbumReportOptionERKNS_7account3UidE = 0x0000000000051350 + __sdk_start;
_ZN2nn2sf4cmif6client6detail13CmifProxyImplINS_6grcsrv17IGameMovieTrimmerENS2_19CmifDomainProxyKindINS0_4hipc6client38Hipc2ClientSessionManagedProxyKindBaseINS9_18Hipc2ProxyKindBaseILNS8_6detail11MessageTypeE6EEEEEEENS0_30MemoryResourceAllocationPolicyES6_NS3_19ProcessModifierImplINS2_21DefaultProxyFilterTagEEEE21_nn_sf_sync_BeginTrimERKNS5_11GameMovieIdEii = 0x00000000000602b0 + __sdk_start;
_ZN2nn7friends20DropFriendNewlyFlagsERKNS_7account3UidE = 0x00000000001d7a80 + __sdk_start;
_ZN2nn2sf4hipc6client24Hipc2ClientCoreProcessorILNS1_6detail11MessageTypeE6ENS0_4cmif6detail14CoreMethodInfoINSt3__15tupleIJNS7_18OutRawArgumentInfoILm1ELm1ELl0EEEEEELm0ELm1ELb0EEESD_E7ProcessEPNS2_26Hipc2ClientProxyBaseObjectENS6_6client24OutRawClientArgumentTypeILm1ELm1EEEj = 0x0000000000069130 + __sdk_start;
_ZThn16_N2nn2sf4cmif6client6detail13CmifProxyImplINS_3apm8IManagerENS0_4hipc6client18Hipc2ProxyKindBaseILNS7_6detail11MessageTypeE6EEENS0_30MemoryResourceAllocationPolicyES6_NS3_19ProcessModifierImplINS2_21DefaultProxyFilterTagEEEE17GetCmifBaseObjectEv = 0x0000000000079f20 + __sdk_start;
_ZN2nn4nifm18GetAllowedChannelsEPsPii = 0x000000000031a370 + __sdk_start;
_ZN2nn8irsensor6detail17GetIrCameraStatusEPNS0_14IrCameraStatusERKNS0_14IrCameraHandleE = 0x0000000000297060 + __sdk_start;
_ZN7android8Composer27setAnimationTransactionImplEv = 0x0000000000029c70 + __sdk_start;
_ZN2nn2fs15RomFsFileSystem17DoCreateDirectoryEPKc = 0x00000000001ed0d0 + __sdk_start;
_ZN2nn3ssl10Connection10CipherInfoC1Ev = 0x000000000037aaf0 + __sdk_start;
_ZN2nn2sf4cmif6client34CmifDomainProxyClientCoreProcessorINS0_4hipc6client38Hipc2ClientSessionManagedProxyKindBaseINS5_18Hipc2ProxyKindBaseILNS4_6detail11MessageTypeE6EEEEENS1_6detail14CoreMethodInfoINSt3__15tupleIJNSC_17InRawArgumentInfoILm8ELm8ELl0EEENSC_18BufferArgumentInfoILi0ELi69ELm0EEENSG_ILm8ELm8ELl8EEEEEELm16ELm0ELb0EEESL_E7ProcessEPNS2_23CmifDomainClientMessageISB_E15ProxyBaseObjectENS2_23InRawClientArgumentTypeILm8ELm8EvEENS2_24BufferClientArgumentTypeEST_j = 0x00000000001ff3f0 + __sdk_start;
_ZN2nn2fs17MountCacheStorageEPKci = 0x0000000000213e00 + __sdk_start;
_ZNSt9bad_allocC2Ev = 0x00000000004b5310 + __sdk_start;
hcreate_r = 0x00000000004f11b8 + __sdk_start;
nnmem_nlib_swapendian_16_generic = 0x00000000002c2690 + __sdk_start;
nnmem_nlib_semaphore_wait = 0x00000000002d2d50 + __sdk_start;
nnosSetTlsValue = 0x00000000003296b0 + __sdk_start;
_ZThn8_N2nn2sf4cmif6server23CmifServerDomainManager6Domain12ReserveEntryEPNS1_18CmifDomainObjectIdEi = 0x0000000000355240 + __sdk_start;
nnsocketInetNtohs = 0x0000000000360d20 + __sdk_start;
_ZN2nn7account48NintendoAccountApplicationAuthorizationProcedureC1ERKNS0_3UidEPNS0_4http15IOAuthProcedureE = 0x000000000004d340 + __sdk_start;
_ZN2nn2sf4cmif6client6detail13CmifProxyImplINS_4nifm6detail15INetworkProfileENS2_19CmifDomainProxyKindINS0_4hipc6client38Hipc2ClientSessionManagedProxyKindBaseINSA_18Hipc2ProxyKindBaseILNS9_6detail11MessageTypeE6EEEEEEENS0_30MemoryResourceAllocationPolicyES7_NS3_19ProcessModifierImplINS2_21DefaultProxyFilterTagEEEE19_nn_sf_sync_PersistENS0_3OutINS_4util4UuidEvEE = 0x00000000003174e0 + __sdk_start;
_ZSt15set_new_handlerPFvvE = 0x00000000004b4a80 + __sdk_start;
_ZN2nn4util24ConvertStringUtf32ToUtf8EPciPKDii = 0x00000000003a0790 + __sdk_start;
nnsocketWrite = 0x0000000000360bd0 + __sdk_start;
_ZN2nn6socket8resolver16GetHostEntByAddrEPKvjNS0_6FamilyEPKNS0_14ResolverOptionEm = 0x0000000000374940 + __sdk_start;
_ZN2nn2sf4hipc6client34HipcSimpleClientSessionManagerBaseINS2_29DefaultSessionResourceManagerEE4Impl18InitializeByHandleINS_4bcat6detail3ipc15IServiceCreatorENS0_30MemoryResourceAllocationPolicyENS0_4cmif6client6detail19ProcessModifierImplINSE_21DefaultProxyFilterTagEEEEENS_6ResultEPNS0_13SharedPointerIT_EEPNT0_9AllocatorENS_3svc6HandleE = 0x00000000000c3060 + __sdk_start;
_ZNK2nn3err19ApplicationErrorArg20GetFullScreenMessageEv = 0x00000000001963e0 + __sdk_start;
_ZN2nn4lmem13AdjustExpHeapEPNS0_6detail8HeapHeadE = 0x00000000002bb390 + __sdk_start;
_ZN2nn2os17UnmapSharedMemoryEPNS0_16SharedMemoryTypeE = 0x0000000000328280 + __sdk_start;
_ZN2nn6socket6detail4SendEiPKvmNS0_7MsgFlagE = 0x0000000000365e20 + __sdk_start;
_ZN2nn2sf4cmif6client6detail13CmifProxyImplINS_7account19IAccountServiceBaseENS2_19CmifDomainProxyKindINS0_4hipc6client38Hipc2ClientSessionManagedProxyKindBaseINS9_18Hipc2ProxyKindBaseILNS8_6detail11MessageTypeE6EEEEEEENS0_25StatelessAllocationPolicyINS0_22ExpHeapStaticAllocatorILm2048ENS5_6detail12ObjectHolder24ObjectHolderAllocatorTagEEEEENS5_29IAccountServiceForApplicationENS3_19ProcessModifierImplINS2_21DefaultProxyFilterTagEEEE17GetCmifBaseObjectEv = 0x000000000003e770 + __sdk_start;
_ZTIN2nn5audio6server10ReverbInfoE = 0x0000000000bcd7c0 + __sdk_start;
_ZN2nn3web16ShowYouTubeVideoEPNS0_18WebPageReturnValueERKNS0_19ShowYouTubeVideoArgE = 0x00000000003b17c0 + __sdk_start;
_ZNSt3__115numpunct_bynameIwED1Ev = 0x000000000048acf8 + __sdk_start;
_ZN2nn2sf4cmif6client6detail13CmifProxyImplINS_2am7service18IDisplayControllerENS0_4hipc6client18Hipc2ProxyKindBaseILNS8_6detail11MessageTypeE6EEENS0_30MemoryResourceAllocationPolicyES7_NS3_19ProcessModifierImplINS2_21DefaultProxyFilterTagEEEE44_nn_sf_sync_ReleaseCallerAppletCaptureBufferEv = 0x000000000006ca40 + __sdk_start;
_ZNK2nn3mii21ParamCharInfoAccessor18GetFacelineWrinkleEv = 0x00000000002e1d50 + __sdk_start;
_ZN2nn3hid6detail25GetGyroscopeZeroDriftModeEPNS0_22GyroscopeZeroDriftModeENS0_19SixAxisSensorHandleE = 0x0000000000235ab0 + __sdk_start;
hdcp_event_state_transit = 0x00000000003ba8a0 + __sdk_start;
NvRmGpuDeviceGetTemperature = 0x00000000003ef6c0 + __sdk_start;
_ZNSt3__113basic_istreamIwNS_11char_traitsIwEEE5seekgENS_4fposI11__mbstate_tEE = 0x0000000000459098 + __sdk_start;
_ZN2nn2os6detail27InterruptEventImplByHorizon4WaitEv = 0x000000000032e890 + __sdk_start;
_ZN2nn2sf4cmif6client6detail13CmifProxyImplINS_7account3nas40IOAuthProcedureForNintendoAccountLinkageENS2_19CmifDomainProxyKindINS0_4hipc6client38Hipc2ClientSessionManagedProxyKindBaseINSA_18Hipc2ProxyKindBaseILNS9_6detail11MessageTypeE6EEEEEEENS0_25StatelessAllocationPolicyINS0_22ExpHeapStaticAllocatorILm2048ENS5_6detail12ObjectHolder24ObjectHolderAllocatorTagEEEEES7_NS3_19ProcessModifierImplINS2_21DefaultProxyFilterTagEEEE31_nn_sf_sync_GetRequestWithThemeENS0_3OutINS5_10RequestUrlEvEENST_INS5_11CallbackUriEvEEi = 0x00000000000471b0 + __sdk_start;
nncodecLibopus_compute_band_energies = 0x00000000000d8430 + __sdk_start;
_ZN2nn5audio14GetVoiceVolumeEPKNS0_9VoiceTypeE = 0x0000000000089ab0 + __sdk_start;
_ZN2nn3hid24SetNpadCommunicationModeENS0_21NpadCommunicationModeE = 0x00000000002481f0 + __sdk_start;
_ZNSt3__112strstreambufC1El = 0x000000000049c5b0 + __sdk_start;
_ZN2nn4util10Cancelable6CancelEv = 0x00000000003a29e0 + __sdk_start;
nncodecLibopus_celt_preemphasis = 0x00000000000e0110 + __sdk_start;
_ZN2nn2lm6detail24LogPacketTransmitterBase8PushDataEPKvm = 0x00000000002b9e60 + __sdk_start;
_ZN2nn3hid6system22StartUsbFirmwareUpdateEv = 0x0000000000244420 + __sdk_start;
_ZNK2nn6crypto6detail6BigNum7GetSizeEv = 0x0000000000173a10 + __sdk_start;
_ZN2nn3nfp14StartFormatterEPNS0_7TagInfoEPNS0_12DeviceHandleERKNS0_24AmiiboSettingsStartParamE = 0x0000000000301070 + __sdk_start;
_ZN2nn2sf4cmif6client6detail13CmifProxyImplINS_4pctl6detail3ipc23IParentalControlServiceENS2_19CmifDomainProxyKindINS0_4hipc6client38Hipc2ClientSessionManagedProxyKindBaseINSB_18Hipc2ProxyKindBaseILNSA_6detail11MessageTypeE6EEEEEEENS0_30MemoryResourceAllocationPolicyES8_NS3_19ProcessModifierImplINS2_21DefaultProxyFilterTagEEEE30_nn_sf_sync_DisableAllFeaturesENS0_3OutIbvEE = 0x0000000000334280 + __sdk_start;
_ZN2nn4time23StandardUserSystemClock3nowEv = 0x0000000000385e50 + __sdk_start;
_ZNSt3__16futureIvED2Ev = 0x0000000000450dd0 + __sdk_start;
_ZNKSt3__110moneypunctIwLb0EE16do_positive_signEv = 0x0000000000474010 + __sdk_start;
_ZN2nn2sf4cmif6client6detail13CmifProxyImplINS_8settings22IFactorySettingsServerENS0_4hipc6client18Hipc2ProxyKindBaseILNS7_6detail11MessageTypeE6EEENS0_30MemoryResourceAllocationPolicyES6_NS3_19ProcessModifierImplINS2_21DefaultProxyFilterTagEEEE33_nn_sf_sync_GetAccelerometerScaleENS0_3OutINS5_7factory18AccelerometerScaleEvEE = 0x0000000000351640 + __sdk_start;
_ZN2nn2sf4cmif6client6detail13CmifProxyImplINS_3hid10IHidServerENS0_4hipc6client18Hipc2ProxyKindBaseILNS7_6detail11MessageTypeE6EEENS0_25StatelessAllocationPolicyINS0_22ExpHeapStaticAllocatorILm16384ENS5_6detail9HidServerEEEEES6_NS3_19ProcessModifierImplINS2_21DefaultProxyFilterTagEEEE37_nn_sf_sync_CancelWritePalmaWaveEntryENS5_21PalmaConnectionHandleE = 0x0000000000255b30 + __sdk_start;
NvRmGpuDeviceCacheControl = 0x00000000003ee7e0 + __sdk_start;
_ZN2nn2fs6detail8MountBisEPKcNS0_14BisPartitionIdES3_ = 0x00000000001f5330 + __sdk_start;
_ZNK2nn4util16CancelInjectable10IsCanceledEv = 0x00000000003a2ad0 + __sdk_start;
_ZN2nn5audio6server32PerformanceMeasuredCommandBuffer29GenerateMixRampGroupedCommandEiiiPKfS4_mji = 0x00000000000a0fb0 + __sdk_start;
_ZN2nn3hid6system30ShowControllerSupportForSystemEPNS0_27ControllerSupportResultInfoERKNS0_20ControllerSupportArgEb = 0x000000000025b6e0 + __sdk_start;
_ZN2nn2sf4cmif6client6detail13CmifProxyImplINS_2am7service15ISelfControllerENS2_19CmifDomainProxyKindINS0_4hipc6client38Hipc2ClientSessionManagedProxyKindBaseINSA_18Hipc2ProxyKindBaseILNS9_6detail11MessageTypeE6EEEEEEENS0_30MemoryResourceAllocationPolicyES7_NS3_19ProcessModifierImplINS2_21DefaultProxyFilterTagEEEE12GetProxyInfoEv = 0x0000000000058080 + __sdk_start;
_ZN2nn5audio36GetI3dl2ReverbLateReverbHfDecayRatioEPKNS0_15I3dl2ReverbTypeE = 0x0000000000083c30 + __sdk_start;
_ZN2nn3hid27EnableControlPadRestrictionERKNS_4util10BitFlagSetILi32ENS0_12NpadStyleTagEEEb = 0x0000000000247250 + __sdk_start;
nnsocketRecv = 0x0000000000360ae0 + __sdk_start;
_ZN2nn2sf4cmif6client6detail13CmifProxyImplINS_2am7service30IAllSystemAppletProxiesServiceENS2_19CmifDomainProxyKindINS0_4hipc6client38Hipc2ClientSessionManagedProxyKindBaseINSA_18Hipc2ProxyKindBaseILNS9_6detail11MessageTypeE6EEEEEEENS0_30MemoryResourceAllocationPolicyES7_NS3_19ProcessModifierImplINS2_21DefaultProxyFilterTagEEEE33_nn_sf_sync_OpenSystemAppletProxyENS0_3OutINS0_13SharedPointerINS6_18ISystemAppletProxyEEEvEEmONS0_12NativeHandleE = 0x0000000000055eb0 + __sdk_start;
_ZN2nn2sf4hipc6client24Hipc2ClientCoreProcessorILNS1_6detail11MessageTypeE6ENS0_4cmif6detail14CoreMethodInfoINSt3__15tupleIJNS7_18BufferArgumentInfoILi0ELi33ELm0EEENS7_18OutRawArgumentInfoILm4ELm4ELl0EEEEEELm0ELm4ELb0EEESF_E7ProcessEPNS2_26Hipc2ClientProxyBaseObjectENS6_6client24BufferClientArgumentTypeENSK_24OutRawClientArgumentTypeILm4ELm4EEEj = 0x0000000000094ec0 + __sdk_start;
_ZN2nn2sf4cmif6client6detail13CmifProxyImplINS_8settings21ISystemSettingsServerENS0_4hipc6client18Hipc2ProxyKindBaseILNS7_6detail11MessageTypeE6EEENS0_30MemoryResourceAllocationPolicyES6_NS3_19ProcessModifierImplINS2_21DefaultProxyFilterTagEEEE41_nn_sf_sync_GetDeviceTimeZoneLocationNameENS0_3OutINS_4time12LocationNameEvEE = 0x0000000000341e50 + __sdk_start;
_ZN2nn4util6detail7msgpack11WriteFixNumEPNS0_17MessagePackWriter11StreamParamEa = 0x000000000039c5e0 + __sdk_start;
_ZN2nn4util30ConvertStringUtf16NativeToUtf8EPciPKDsi = 0x000000000039fc30 + __sdk_start;
_ZN2nn2fs23SaveDataTransferManager8SetTokenEPKvm = 0x000000000021cde0 + __sdk_start;
_ZN2nn2sf4cmif6client6detail13CmifProxyImplINS_7account4baas14IAdministratorENS2_19CmifDomainProxyKindINS0_4hipc6client38Hipc2ClientSessionManagedProxyKindBaseINSA_18Hipc2ProxyKindBaseILNS9_6detail11MessageTypeE6EEEEEEENS0_25StatelessAllocationPolicyINS0_22ExpHeapStaticAllocatorILm2048ENS5_6detail12ObjectHolder24ObjectHolderAllocatorTagEEEEES7_NS3_19ProcessModifierImplINS2_21DefaultProxyFilterTagEEEE25_nn_sf_sync_RegisterAsyncENS0_3OutINS0_13SharedPointerINSK_13IAsyncContextEEEvEE = 0x0000000000046520 + __sdk_start;
trim_bitmap = 0x00000000001a5030 + __sdk_start;
NvRmFenceWait = 0x00000000003d4eb0 + __sdk_start;
_ZNSt3__113basic_istreamIwNS_11char_traitsIwEEE3getERw = 0x0000000000457ea0 + __sdk_start;
_ZN2nn2sf4cmif6client6detail13CmifProxyImplINS_5visrv2sf21ISystemDisplayServiceENS0_4hipc6client18Hipc2ProxyKindBaseILNS8_6detail11MessageTypeE6EEENS0_30MemoryResourceAllocationPolicyES7_NS3_19ProcessModifierImplINS2_21DefaultProxyFilterTagEEEE29_nn_sf_sync_SetDisplayCmuLumaEmf = 0x00000000003a5c70 + __sdk_start;
__ffssi2 = 0x00000000004ff188 + __sdk_start;
nncodecLibopus_silk_resampler_private_up2_HQ = 0x0000000000100b90 + __sdk_start;
_ZN2nn2os17GetLastThreadInfoEPPNS0_10ThreadTypeEPNS0_20SdkLastThreadContextEPj = 0x0000000000328980 + __sdk_start;
_ZN2nn2sf4cmif6client6detail13CmifProxyImplINS_7account31IAccountServiceForSystemServiceENS2_19CmifDomainProxyKindINS0_4hipc6client38Hipc2ClientSessionManagedProxyKindBaseINS9_18Hipc2ProxyKindBaseILNS8_6detail11MessageTypeE6EEEEEEENS0_25StatelessAllocationPolicyINS0_22ExpHeapStaticAllocatorILm2048ENS5_6detail12ObjectHolder24ObjectHolderAllocatorTagEEEEENS5_31IAccountServiceForAdministratorENS3_19ProcessModifierImplINS2_21DefaultProxyFilterTagEEEE34_nn_sf_sync_ClearSaveDataThumbnailERKNS5_3UidENS_13ApplicationIdE = 0x00000000000449f0 + __sdk_start;
_ZN2nn2sf4cmif6client6detail13CmifProxyImplINS_4nifm6detail15IGeneralServiceENS2_19CmifDomainProxyKindINS0_4hipc6client38Hipc2ClientSessionManagedProxyKindBaseINSA_18Hipc2ProxyKindBaseILNS9_6detail11MessageTypeE6EEEEEEENS0_30MemoryResourceAllocationPolicyES7_NS3_19ProcessModifierImplINS2_21DefaultProxyFilterTagEEEE36_nn_sf_sync_GetCurrentNetworkProfileENS0_3OutINS6_2sf18NetworkProfileDataEvEE = 0x0000000000314a90 + __sdk_start;
_ZN2nn3hid6detail18EnableHandheldHidsEv = 0x000000000022ec70 + __sdk_start;
NvOsFreeLeak = 0x00000000003bc3e0 + __sdk_start;
_ZN2nn2sf4cmif6client6detail13CmifProxyImplINS_7friends6detail3ipc14IFriendServiceENS2_19CmifDomainProxyKindINS0_4hipc6client38Hipc2ClientSessionManagedProxyKindBaseINSB_18Hipc2ProxyKindBaseILNSA_6detail11MessageTypeE6EEEEEEENS0_30MemoryResourceAllocationPolicyES8_NS3_19ProcessModifierImplINS2_21DefaultProxyFilterTagEEEE30_nn_sf_sync_GetPlayHistoryListENS0_3OutIivEERKNS0_8OutArrayINS6_15PlayHistoryImplEEERKNS_7account3UidEi = 0x00000000001df610 + __sdk_start;
_ZN2nn3mii6detail11CoreDataRaw11SetNoseTypeEi = 0x00000000002e6410 + __sdk_start;
_ZN7android6Region7xorSelfERKS0_ = 0x0000000000031050 + __sdk_start;
_ZThn16_N2nn2sf4cmif6client6detail13CmifProxyImplINS_8settings15ISettingsServerENS0_4hipc6client18Hipc2ProxyKindBaseILNS7_6detail11MessageTypeE6EEENS0_30MemoryResourceAllocationPolicyES6_NS3_19ProcessModifierImplINS2_21DefaultProxyFilterTagEEEE17GetCmifBaseObjectEv = 0x0000000000353560 + __sdk_start;
_ZN2nn2sf4hipc6client24Hipc2ClientCoreProcessorILNS1_6detail11MessageTypeE6ENS0_4cmif6detail14CoreMethodInfoINSt3__15tupleIJNS7_18OutRawArgumentInfoILm4ELm4ELl0EEENSB_ILm4ELm4ELl4EEENS7_17InRawArgumentInfoILm4ELm4ELl0EEENSE_ILm4ELm4ELl4EEENS7_18BufferArgumentInfoILi0ELi33ELm0EEENSH_ILi1ELi33ELm0EEENSH_ILi2ELi33ELm0EEENSH_ILi3ELi33ELm0EEENSH_ILi4ELi34ELm0EEENSH_ILi5ELi34ELm0EEENSH_ILi6ELi34ELm0EEENSH_ILi7ELi34ELm0EEENSE_ILm4ELm4ELl8EEEEEELm12ELm8ELb0EEESR_E7ProcessEPNS2_26Hipc2ClientProxyBaseObjectENS6_6client24OutRawClientArgumentTypeILm4ELm4EEESY_NSW_23InRawClientArgumentTypeILm4ELm4EvEES10_NSW_24BufferClientArgumentTypeES11_S11_S11_S11_S11_S11_S11_S10_j = 0x000000000036de00 + __sdk_start;
_ZN2nn9bluetooth16UnpairGattServerEjRKNS0_27BleAdvertisePacketParameterE = 0x00000000000cf420 + __sdk_start;
_ZN2nn2ec6detail20ShowShopSettingsImplENS1_10LaunchModeERKNS_7account3UidENS0_8SourceIdE = 0x000000000018e2b0 + __sdk_start;
_ZN2nn2sf4cmif6client34CmifDomainProxyClientCoreProcessorINS0_4hipc6client38Hipc2ClientSessionManagedProxyKindBaseINS5_18Hipc2ProxyKindBaseILNS4_6detail11MessageTypeE6EEEEENS1_6detail14CoreMethodInfoINSt3__15tupleIJNSC_18OutRawArgumentInfoILm36ELm1ELl0EEENSG_ILm24ELm8ELl40EEEEEELm0ELm64ELb0EEESJ_E7ProcessEPNS2_23CmifDomainClientMessageISB_E15ProxyBaseObjectENS2_24OutRawClientArgumentTypeILm36ELm1EEENSQ_ILm24ELm8EEEj = 0x00000000003894a0 + __sdk_start;
nnmem_nlib_semaphore_init = 0x00000000002d2d20 + __sdk_start;
_ZN2nn2sf4cmif6server22CmifDomainServerObject23CmifDomainServerMessage20EndPreparingForReplyEv = 0x0000000000359fd0 + __sdk_start;
_ZN2nn2sf4cmif6client6detail13CmifProxyImplINS_2am7service15IDebugFunctionsENS2_19CmifDomainProxyKindINS0_4hipc6client38Hipc2ClientSessionManagedProxyKindBaseINSA_18Hipc2ProxyKindBaseILNS9_6detail11MessageTypeE6EEEEEEENS0_30MemoryResourceAllocationPolicyES7_NS3_19ProcessModifierImplINS2_21DefaultProxyFilterTagEEEE31_nn_sf_sync_OpenMainApplicationENS0_3OutINS0_13SharedPointerINS6_20IApplicationAccessorEEEvEE = 0x000000000005b4d0 + __sdk_start;
_ZN2nn2sf4cmif6client6detail13CmifProxyImplINS_6grcsrv11IMovieMakerENS0_4hipc6client18Hipc2ProxyKindBaseILNS7_6detail11MessageTypeE6EEENS0_30MemoryResourceAllocationPolicyES6_NS3_19ProcessModifierImplINS2_21DefaultProxyFilterTagEEEE12GetProxyInfoEv = 0x00000000000765e0 + __sdk_start;
_ZN2nn2sf4hipc6client24Hipc2ClientCoreProcessorILNS1_6detail11MessageTypeE6ENS0_4cmif6detail14CoreMethodInfoINSt3__15tupleIJNS7_17InRawArgumentInfoILm1ELm1ELl0EEENSB_ILm152ELm8ELl8EEEEEELm160ELm0ELb0EEESE_E7ProcessEPNS2_26Hipc2ClientProxyBaseObjectENS6_6client23InRawClientArgumentTypeILm1ELm1EvEENSK_ILm152ELm8EvEEj = 0x0000000000253fa0 + __sdk_start;
_ZN2nn8irsensor6detail20InternalErrorHandlerC1Ev = 0x000000000029a030 + __sdk_start;
_ZNSt3__112__rs_defaultC2Ev = 0x000000000044d208 + __sdk_start;
_ZN2nn5audio21SetI3dl2ReverbDryGainEPNS0_15I3dl2ReverbTypeEf = 0x0000000000083d20 + __sdk_start;
_ZN2nn3hid6detail22RetrieveVibrationValueEPNS0_14VibrationValueEiPNS1_30VibrationFileParserContextImplE = 0x00000000002429d0 + __sdk_start;
_ZN2nn2sf4cmif6client6detail13CmifProxyImplINS_2am7service18IDisplayControllerENS0_4hipc6client18Hipc2ProxyKindBaseILNS8_6detail11MessageTypeE6EEENS0_30MemoryResourceAllocationPolicyES7_NS3_19ProcessModifierImplINS2_21DefaultProxyFilterTagEEEE47_nn_sf_sync_ReleaseLastApplicationCaptureBufferEv = 0x000000000006c9c0 + __sdk_start;
_ZTVN2nn5audio6common8BitArrayIjEE = 0x0000000000bcb428 + __sdk_start;
_ZNSt3__115basic_streambufIwNS_11char_traitsIwEEE5uflowEv = 0x0000000000453958 + __sdk_start;
_ZN2nn2ec37ConsumableServiceItemAsyncRequestBase8GetEventEv = 0x00000000001829d0 + __sdk_start;
_ZNSt3__115numpunct_bynameIcEC1EPKcm = 0x000000000048ae50 + __sdk_start;
__strtold_l = 0x00000000004cb140 + __sdk_start;
_ZN2nn6socket4SendEiPKvmNS0_7MsgFlagE = 0x00000000003602a0 + __sdk_start;
_ZN2nn6fontll6detail15PickPaltXValuesEPiPNS0_15OtfKerningTableEPKvttt = 0x0000000000198c70 + __sdk_start;
_ZN2nn5codec20CJointStereo_ApplyISEPPNS0_22CAacDecoderChannelInfoEPKsPKhiij = 0x0000000000137ea0 + __sdk_start;
_ZN2nn3mii6detail17GetEyeColorToVer3ENS0_11CommonColorE = 0x00000000002e3a60 + __sdk_start;
__eqdf2 = 0x00000000004fd540 + __sdk_start;
_ZTIN2nn2fs17FileHandleStorageE = 0x0000000000bd3690 + __sdk_start;
_ZN2nn7account34NetworkServiceAccountAdministrator27IsLinkedWithNintendoAccountEPb = 0x000000000004b9f0 + __sdk_start;
_ZN2nn5audio6server38CommandProcessingTimeEstimatorVersion18EstimateERKNS0_15UpsampleCommandE = 0x00000000000a4c80 + __sdk_start;
_ZN2nn5audio3dsp8ApplyMixILi23EEEvPiPKiii = 0x00000000000baf60 + __sdk_start;
_ZN2nn4htcs6detail25virtual_socket_collection6InsertEiNS_2sf13SharedPointerINS_3tma7ISocketEEE = 0x000000000026a860 + __sdk_start;
_ZN2nn2sf4hipc6client24Hipc2ClientCoreProcessorILNS1_6detail11MessageTypeE6ENS0_4cmif6detail14CoreMethodInfoINSt3__15tupleIJNS7_18OutRawArgumentInfoILm8ELm8ELl0EEENS7_18BufferArgumentInfoILi2ELi6ELm0EEENSD_ILi0ELi25ELm72EEENSD_ILi1ELi25ELm72EEEEEELm0ELm8ELb0EEESH_E7ProcessEPNS2_26Hipc2ClientProxyBaseObjectENS6_6client24OutRawClientArgumentTypeILm8ELm8EEENSM_24BufferClientArgumentTypeESP_SP_j = 0x0000000000343f40 + __sdk_start;
_ZN2nn2sf4cmif6client34CmifDomainProxyClientCoreProcessorINS0_4hipc6client38Hipc2ClientSessionManagedProxyKindBaseINS5_18Hipc2ProxyKindBaseILNS4_6detail11MessageTypeE6EEEEENS1_6detail14CoreMethodInfoINSt3__15tupleIJNSC_18BufferArgumentInfoILi0ELi6ELm0EEENSC_18OutRawArgumentInfoILm4ELm4ELl0EEENSI_ILm4ELm4ELl4EEEEEELm0ELm8ELb0EEESL_E7ProcessEPNS2_23CmifDomainClientMessageISB_E15ProxyBaseObjectENS2_24BufferClientArgumentTypeENS2_24OutRawClientArgumentTypeILm4ELm4EEESU_j = 0x000000000037d4f0 + __sdk_start;
_ZTIN2nn2sf4cmif6client6detail9CmifProxyINS_3ssl2sf11ISslServiceENS2_19CmifDomainProxyKindINS0_4hipc6client38Hipc2ClientSessionManagedProxyKindBaseINSA_18Hipc2ProxyKindBaseILNS9_6detail11MessageTypeE6EEEEEEENS0_24StatefulAllocationPolicyINS0_16ExpHeapAllocatorEEENS3_19ProcessModifierImplINS2_21DefaultProxyFilterTagEEEvEE = 0x0000000000be3d10 + __sdk_start;
mbrtoc16 = 0x00000000004e7da8 + __sdk_start;
_ZN2nn2fs18CreateCacheStorageENS_3ncm13ApplicationIdEmllj = 0x00000000002164f0 + __sdk_start;
_ZN2nn5audio6common24GetSplitterSendDataMagicEv = 0x000000000008b540 + __sdk_start;
_ZN2nn2sf4cmif6client6detail13CmifProxyImplINS_5visrv2sf22IManagerDisplayServiceENS0_4hipc6client18Hipc2ProxyKindBaseILNS8_6detail11MessageTypeE6EEENS0_30MemoryResourceAllocationPolicyES7_NS3_19ProcessModifierImplINS2_21DefaultProxyFilterTagEEEE36_nn_sf_sync_AllocateProcessHeapBlockENS0_3OutImvEEm = 0x00000000003a7170 + __sdk_start;
_ZN2nn4edid6detail22VisitEstablishedTimingEPFbPKNS0_15DisplayModeInfoEPKNS0_17DisplayTimingInfoEPKNS0_13ImageSizeInfoEPvESB_iifb = 0x0000000000193360 + __sdk_start;
_ZN2nn2sf4cmif6client6detail36GetClientProcessorImplWithObjectBaseINS2_19CmifDomainProxyKindINS0_4hipc6client38Hipc2ClientSessionManagedProxyKindBaseINS7_18Hipc2ProxyKindBaseILNS6_6detail11MessageTypeE6EEEEEEENS3_19ProcessModifierImplINS2_21DefaultProxyFilterTagEEEE14ObjectAssignerINS0_30MemoryResourceAllocationPolicyENS_14MemoryResourceEE14AllocateObjectINS_2am7service20IApplicationAccessorEEEvi = 0x000000000005b670 + __sdk_start;
_ZTIN2nn2sf4cmif6client6detail13CmifProxyImplINS_2am7service30IAllSystemAppletProxiesServiceENS2_19CmifDomainProxyKindINS0_4hipc6client38Hipc2ClientSessionManagedProxyKindBaseINSA_18Hipc2ProxyKindBaseILNS9_6detail11MessageTypeE6EEEEEEENS0_30MemoryResourceAllocationPolicyES7_NS3_19ProcessModifierImplINS2_21DefaultProxyFilterTagEEEEE = 0x0000000000bc3b90 + __sdk_start;
_ZN2nn7friends6detail16PresenceAccessor9SearchKeyEPKcS4_m = 0x00000000001d63a0 + __sdk_start;
_ZN2nn8settings6detail10SetThemeIdERKNS0_6system7ThemeIdEi = 0x000000000034fdb0 + __sdk_start;
_ZN2nn3web16ShowLobbyPageArgC1Ev = 0x00000000002bd680 + __sdk_start;
trim_convert = 0x00000000001c29d0 + __sdk_start;
_ZN2nn8irsensor6detail15IrSensorSession39ResetInternalStatusForLibraryAppletCallERKNS0_14IrCameraHandleE = 0x000000000029aa40 + __sdk_start;
NvOsHosSdkLog = 0x00000000003c4bc0 + __sdk_start;
iswblank = 0x00000000004d6ec0 + __sdk_start;
_ZN3nne4nlib11InputStreamD2Ev = 0x00000000003a23e0 + __sdk_start;
_ZN2nn3apm14InitializeWithEONS_2sf13SharedPointerINS0_8IManagerEEE = 0x00000000000792d0 + __sdk_start;
_ZN2nn5audio15GetSubMixVolumeEPKNS0_10SubMixTypeE = 0x00000000000890c0 + __sdk_start;
_ZN2nn2oe24SetAlbumImageOrientationENS_5album16ImageOrientationE = 0x00000000003239a0 + __sdk_start;
_ZdlPvSt11align_val_t = 0x0000000000492dd0 + __sdk_start;
_ZN2nn2fs16IsSdCardInsertedEv = 0x000000000021a890 + __sdk_start;
_ZN2nn5audio6common10NodeStates10InitializeEPvmi = 0x000000000008b000 + __sdk_start;
_ZNK2nn7friends16UserPresenceView14GetDescriptionEv = 0x00000000001dc100 + __sdk_start;
_ZNK2nn3mii6detail16Ver3StoreDataRaw16GetFavoriteColorEv = 0x00000000002eca10 + __sdk_start;
_ZNK2nn4time13ClockSnapshot41GetStandardNetworkSystemClockCalendarTimeEv = 0x00000000003848f0 + __sdk_start;
_ZN2nn2sf4cmif6client6detail13CmifProxyImplINS_3hid16IHidSystemServerENS0_4hipc6client18Hipc2ProxyKindBaseILNS7_6detail11MessageTypeE6EEENS0_25StatelessAllocationPolicyINS0_22ExpHeapStaticAllocatorILm16384ENS5_6detail15HidSystemServerEEEEES6_NS3_19ProcessModifierImplINS2_21DefaultProxyFilterTagEEEE53_nn_sf_sync_AcquireJoyDetachOnBluetoothOffEventHandleENS0_3OutINS0_12NativeHandleEvEENS_6applet20AppletResourceUserIdE = 0x0000000000258ea0 + __sdk_start;
_ZN2nn2sf4hipc6client24Hipc2ClientCoreProcessorILNS1_6detail11MessageTypeE6ENS0_4cmif6detail14CoreMethodInfoINSt3__15tupleIJNS7_17InRawArgumentInfoILm6ELm1ELl0EEENSB_ILm4ELm4ELl8EEENS7_18BufferArgumentInfoILi0ELi25ELm642EEEEEELm12ELm0ELb0EEESG_E7ProcessEPNS2_26Hipc2ClientProxyBaseObjectENS6_6client23InRawClientArgumentTypeILm6ELm1EvEENSM_ILm4ELm4EvEENSL_24BufferClientArgumentTypeEj = 0x00000000000c7480 + __sdk_start;
_ZN2nn5codec10AacDecoderD2Ev = 0x0000000000171620 + __sdk_start;
_ZN2nn2sf6detail39ObjectImplFactoryWithStatelessAllocatorINS0_4cmif6client6detail9CmifProxyINS_7account31IAccountServiceForSystemServiceENS4_19CmifDomainProxyKindINS0_4hipc6client38Hipc2ClientSessionManagedProxyKindBaseINSB_18Hipc2ProxyKindBaseILNSA_6detail11MessageTypeE6EEEEEEENS0_25StatelessAllocationPolicyINS0_22ExpHeapStaticAllocatorILm2048ENS7_6detail12ObjectHolder24ObjectHolderAllocatorTagEEEEENS5_19ProcessModifierImplINS4_21DefaultProxyFilterTagEEEvEESP_E6Object12AddReferenceEv = 0x0000000000041710 + __sdk_start;
_ZThn32_N2nn2sf4cmif6client6detail13CmifProxyImplINS_7account24IBaasAccessTokenAccessorENS2_19CmifDomainProxyKindINS0_4hipc6client38Hipc2ClientSessionManagedProxyKindBaseINS9_18Hipc2ProxyKindBaseILNS8_6detail11MessageTypeE6EEEEEEENS0_30MemoryResourceAllocationPolicyES6_NS3_19ProcessModifierImplINS2_21DefaultProxyFilterTagEEEE17GetCmifBaseObjectEv = 0x00000000000493e0 + __sdk_start;
_ZN2nn2sf6detail38ObjectImplFactoryWithStatefulAllocatorINS0_4cmif6client6detail9CmifProxyINS_2am7service8IStorageENS0_4hipc6client18Hipc2ProxyKindBaseILNSA_6detail11MessageTypeE6EEENS0_30MemoryResourceAllocationPolicyENS5_19ProcessModifierImplINS4_21DefaultProxyFilterTagEEEvEESG_E6Object7ReleaseEv = 0x000000000006b160 + __sdk_start;
android_atomic_release_cas = 0x000000000000fe40 + __sdk_start;
_ZN2nn6crypto6detail9GhashImpl14ProcessPaddingEv = 0x0000000000178f70 + __sdk_start;
_ZN2nn2ec37ShowShopApplicationInformationForMenuENS0_5NsUidERKNS_7account3UidENS0_8SourceIdEPKc = 0x0000000000189a60 + __sdk_start;
_ZNKSt3__115__codecvt_utf16IDiLb0EE13do_max_lengthEv = 0x0000000000489ed8 + __sdk_start;
__nnDetailNintendoSdkRuntimeObjectFileRefer = 0x00000000000001e0 + __sdk_start;
nnutilZlib_zlibCompileFlags = 0x0000000000397ef0 + __sdk_start;
_ZN2nn2sf4hipc6client24Hipc2ClientCoreProcessorILNS1_6detail11MessageTypeE6ENS0_4cmif6detail14CoreMethodInfoINSt3__15tupleIJNS7_17InRawArgumentInfoILm4ELm4ELl0EEENS7_18BufferArgumentInfoILi0ELi6ELm0EEEEEELm4ELm0ELb0EEESF_E7ProcessEPNS2_26Hipc2ClientProxyBaseObjectENS6_6client23InRawClientArgumentTypeILm4ELm4EvEENSK_24BufferClientArgumentTypeEj = 0x0000000000376320 + __sdk_start;
_ZN2nn2sf4cmif6client6detail13CmifProxyImplINS_6capsrv2sf32IAlbumAccessorApplicationSessionENS0_4hipc6client18Hipc2ProxyKindBaseILNS8_6detail11MessageTypeE6EEENS0_30MemoryResourceAllocationPolicyES7_NS3_19ProcessModifierImplINS2_21DefaultProxyFilterTagEEEE47_nn_sf_sync_GetAlbumMovieReadStreamBrokenReasonEm = 0x00000000000d8200 + __sdk_start;
_ZN2nn3hid5debug28SetTouchScreenAutoPilotStateILm11EEEvRKNS1_25TouchScreenAutoPilotStateIXT_EEE = 0x000000000024b080 + __sdk_start;
_ZN2nn2ec6detail18IsStringTerminatedEPcm = 0x0000000000191620 + __sdk_start;
_ZN2nn5audio6common11DumpCommandEPKNS0_10MixCommandE = 0x00000000000aec10 + __sdk_start;
_ZNK2nn7friends14FriendPresence30IsSamePresenceGroupApplicationEv = 0x00000000001dc070 + __sdk_start;
_ZN2nn2vi16GetIndirectImageEPmS1_Pvmmii = 0x00000000003ad7b0 + __sdk_start;
NvOsVsnprintf = 0x00000000003c3de0 + __sdk_start;
_ZTIN2nn3htc4tenv8IServiceE = 0x0000000000bd8fe0 + __sdk_start;
_ZN2nn3ngc7strncpyEPcPKcm = 0x0000000000306620 + __sdk_start;
_ZN2nn2sf6detail38ObjectImplFactoryWithStatefulAllocatorINS0_4cmif6client6detail9CmifProxyINS_2am7service7IWindowENS4_19CmifDomainProxyKindINS0_4hipc6client38Hipc2ClientSessionManagedProxyKindBaseINSC_18Hipc2ProxyKindBaseILNSB_6detail11MessageTypeE6EEEEEEENS0_30MemoryResourceAllocationPolicyENS5_19ProcessModifierImplINS4_21DefaultProxyFilterTagEEEvEESK_E6Object7ReleaseEv = 0x000000000005a0e0 + __sdk_start;
_ZTIN2nn2sf4cmif6client6detail9CmifProxyINS_2am7service19IOverlayAppletProxyENS2_19CmifDomainProxyKindINS0_4hipc6client38Hipc2ClientSessionManagedProxyKindBaseINSA_18Hipc2ProxyKindBaseILNS9_6detail11MessageTypeE6EEEEEEENS0_30MemoryResourceAllocationPolicyENS3_19ProcessModifierImplINS2_21DefaultProxyFilterTagEEEvEE = 0x0000000000bc6340 + __sdk_start;
_ZNK2nn3mii6detail12StoreDataRaw11GetMoleTypeEv = 0x00000000002ea030 + __sdk_start;
_ZN2nn3web10WebSession11WaitForExitEPNS0_18WebPageReturnValueE = 0x00000000003b5c80 + __sdk_start;
_ZNKSt3__115__codecvt_utf16IDiLb1EE6do_outER11__mbstate_tPKDiS5_RS5_PcS7_RS7_ = 0x0000000000489ef0 + __sdk_start;
_ZNK2nn7friends15FriendCandidate7GetTypeEv = 0x00000000001db420 + __sdk_start;
_ZNK2nn3mii6detail12StoreDataRaw11GetNicknameEPNS0_8NicknameE = 0x00000000002ea070 + __sdk_start;
_ZNK2nn5swkbd6detail18InlineKeyboardImpl18GetTouchRectanglesEPNS0_4RectES4_ = 0x0000000000381990 + __sdk_start;
_ZN2nn2sf4cmif6client6detail13CmifProxyImplINS_7timesrv6detail7service16ITimeZoneServiceENS2_19CmifDomainProxyKindINS0_4hipc6client38Hipc2ClientSessionManagedProxyKindBaseINSB_18Hipc2ProxyKindBaseILNSA_6detail11MessageTypeE6EEEEEEENS0_30MemoryResourceAllocationPolicyES8_NS3_19ProcessModifierImplINS2_21DefaultProxyFilterTagEEEE34_nn_sf_sync_GetTimeZoneRuleVersionENS0_3OutINS_4time19TimeZoneRuleVersionEvEE = 0x0000000000388e80 + __sdk_start;
_ZNK2nn3mem17StandardAllocator4HashEv = 0x00000000002de890 + __sdk_start;
_ZN2nn2sf6detail39ObjectImplFactoryWithStatelessAllocatorINS0_4cmif6client6detail9CmifProxyINS_7account4baas22IManagerForApplicationENS4_19CmifDomainProxyKindINS0_4hipc6client38Hipc2ClientSessionManagedProxyKindBaseINSC_18Hipc2ProxyKindBaseILNSB_6detail11MessageTypeE6EEEEEEENS0_25StatelessAllocationPolicyINS0_22ExpHeapStaticAllocatorILm2048ENS7_6detail12ObjectHolder24ObjectHolderAllocatorTagEEEEENS5_19ProcessModifierImplINS4_21DefaultProxyFilterTagEEEvEESQ_E6Object7ReleaseEv = 0x000000000003fc40 + __sdk_start;
copy_graymap = 0x00000000001c3190 + __sdk_start;
_ZN2nn2sf4cmif6client6detail13CmifProxyImplINS_2am7service18ICommonStateGetterENS2_19CmifDomainProxyKindINS0_4hipc6client38Hipc2ClientSessionManagedProxyKindBaseINSA_18Hipc2ProxyKindBaseILNS9_6detail11MessageTypeE6EEEEEEENS0_30MemoryResourceAllocationPolicyES7_NS3_19ProcessModifierImplINS2_21DefaultProxyFilterTagEEEE12GetProxyInfoEv = 0x0000000000057040 + __sdk_start;
_ZN2nn5audio6server24AudioRendererManagerImpl37GetAudioDeviceServiceWithRevisionInfoENS_2sf3OutINS3_13SharedPointerINS0_6detail12IAudioDeviceEEEvEERNS_6applet20AppletResourceUserIdEj = 0x000000000009d6a0 + __sdk_start;
_ZNK2nn5audio6server16CommandGenerator30UseBiquadFilterFloatProcessingEv = 0x00000000000a2850 + __sdk_start;
_ZN2nn4time6detail4util14GetDaysInMonthEii = 0x000000000038a8e0 + __sdk_start;
_ZN2nn2sf6detail39ObjectImplFactoryWithStatelessAllocatorINS0_4cmif6client6detail9CmifProxyINS_6hidbus13IHidbusServerENS0_4hipc6client18Hipc2ProxyKindBaseILNS9_6detail11MessageTypeE6EEENS0_25StatelessAllocationPolicyINS0_22ExpHeapStaticAllocatorILm16384ENS7_6server12HidbusServerEEEEENS5_19ProcessModifierImplINS4_21DefaultProxyFilterTagEEEvEESK_E6Object12AddReferenceEv = 0x000000000025d5f0 + __sdk_start;
_ZNKSt3__115__codecvt_utf16IDsLb0EE10do_unshiftER11__mbstate_tPcS4_RS4_ = 0x0000000000489868 + __sdk_start;
_ZN2nn3apm23InitializeForSystemWithEONS_2sf13SharedPointerINS0_14ISystemManagerEEE = 0x000000000007a6b0 + __sdk_start;
_ZN2nn2sf4cmif6client6detail13CmifProxyImplINS_3hid16IHidSystemServerENS0_4hipc6client18Hipc2ProxyKindBaseILNS7_6detail11MessageTypeE6EEENS0_30MemoryResourceAllocationPolicyES6_NS3_19ProcessModifierImplINS2_21DefaultProxyFilterTagEEEE41_nn_sf_sync_GetPlayReportControllerUsagesENS0_3OutIlvEERKNS0_8OutArrayINS5_6system25PlayReportControllerUsageEEE = 0x000000000025e9f0 + __sdk_start;
_ZN2nn2sf4cmif6client6detail13CmifProxyImplINS_7account6detail13IAsyncContextENS2_19CmifDomainProxyKindINS0_4hipc6client38Hipc2ClientSessionManagedProxyKindBaseINSA_18Hipc2ProxyKindBaseILNS9_6detail11MessageTypeE6EEEEEEENS0_30MemoryResourceAllocationPolicyES7_NS3_19ProcessModifierImplINS2_21DefaultProxyFilterTagEEEE12GetProxyInfoEv = 0x0000000000049510 + __sdk_start;
_ZTv0_n48_N7android9BpRefBase20onIncStrongAttemptedEjPKv = 0x0000000000000e70 + __sdk_start;
_ZNSt3__121__throw_runtime_errorEPKc = 0x0000000000477638 + __sdk_start;
_ZN2nn6socket8resolver15g_LogLevelTableE = 0x0000000000be33a8 + __sdk_start;
_ZN2nn3mii6detail16Ver3StoreDataRaw12SetReserved2Ei = 0x00000000002f0e80 + __sdk_start;
_ZTIN2nn4http4json24StringBufferForRapidJsonE = 0x0000000000bd15b8 + __sdk_start;
_ZN2nn2sf4hipc6client24Hipc2ClientCoreProcessorILNS1_6detail11MessageTypeE6ENS0_4cmif6detail14CoreMethodInfoINSt3__15tupleIJNS7_17InRawArgumentInfoILm24ELm1ELl0EEEEEELm24ELm0ELb0EEESD_E7ProcessEPNS2_26Hipc2ClientProxyBaseObjectENS6_6client23InRawClientArgumentTypeILm24ELm1EvEEj = 0x0000000000344d40 + __sdk_start;
_ZN2nn4util24ConvertStringUtf8ToUtf32EPDiiPKc = 0x00000000003a0550 + __sdk_start;
_ZTIN2nn7account4http15IOAuthProcedureE = 0x0000000000bbeec0 + __sdk_start;
_ZN2nn2sf6detail38ObjectImplFactoryWithStatefulAllocatorINS0_4cmif6client6detail9CmifProxyINS_2am7service16IStorageAccessorENS4_19CmifDomainProxyKindINS0_4hipc6client38Hipc2ClientSessionManagedProxyKindBaseINSC_18Hipc2ProxyKindBaseILNSB_6detail11MessageTypeE6EEEEEEENS0_30MemoryResourceAllocationPolicyENS5_19ProcessModifierImplINS4_21DefaultProxyFilterTagEEEvEESK_E6Object7ReleaseEv = 0x0000000000059530 + __sdk_start;
_ZN2nn6applet26GetDesirableKeyboardLayoutEPj = 0x000000000007c920 + __sdk_start;
FDK_put = 0x0000000000138440 + __sdk_start;
_ZTIN2nn3ldn6detail19IUserServiceCreatorE = 0x0000000000bda7c0 + __sdk_start;
fsg_CopyElementBackwards = 0x00000000001bffc0 + __sdk_start;
_ZNSt3__112basic_stringIwNS_11char_traitsIwEENS_9allocatorIwEEE6appendERKS5_mm = 0x0000000000496e50 + __sdk_start;
_ZN2nn2fs38GetOccupiedWorkSpaceSizeForCloudBackUpEPl = 0x000000000021eaa0 + __sdk_start;
_ZN2nn2sf4cmif6client6detail36GetClientProcessorImplWithObjectBaseINS0_4hipc6client18Hipc2ProxyKindBaseILNS5_6detail11MessageTypeE6EEENS3_19ProcessModifierImplINS2_21DefaultProxyFilterTagEEEE14ObjectAssignerINS0_30MemoryResourceAllocationPolicyENS_14MemoryResourceEE14AllocateObjectINS_2lm7ILoggerEEEvi = 0x00000000002bac50 + __sdk_start;
_ZN2nn8settings6system27BindTelemetryDirtyFlagEventEPNS_2os15SystemEventTypeENS2_14EventClearModeE = 0x0000000000349c90 + __sdk_start;
_ZNSt19bad_optional_accessD1Ev = 0x0000000000492e08 + __sdk_start;
_ZNSt3__118shared_timed_mutex15try_lock_sharedEv = 0x00000000004936a0 + __sdk_start;
_ZNSt3__121__libcpp_mutex_unlockEPN2nn2os9MutexTypeE = 0x000000000049ebb8 + __sdk_start;
_ZNK2nn3mii16CharInfoAccessor9GetGenderEv = 0x00000000002e1660 + __sdk_start;
_ZNK2nn5audio6server17AudioRenderSystem13GetSampleRateEv = 0x000000000009cc30 + __sdk_start;
__nnmusl_stderr_lock_finalize = 0x00000000004bb860 + __sdk_start;
_ZN2nn2fs12MountContentEPKcNS_3ncm9ProgramIdENS0_11ContentTypeE = 0x00000000001f6160 + __sdk_start;
_ZN2nn2sf4cmif6server22CmifDomainServerObject18ProcessMessageImplEPNS2_17CmifServerMessageEPNS2_16CmifServerDomainENS0_6detail14PointerAndSizeE = 0x0000000000359a30 + __sdk_start;
_ZN2nn5audio26DisableDspUsageMeasurementEv = 0x0000000000097240 + __sdk_start;
_ZN2nn3mii6detail26GetOrderIndexByCommonColorENS0_11CommonColorE = 0x00000000002e3810 + __sdk_start;
_ZN2nn6fontll18ScalableFontEngine25BinarySearchForOtfKerningEPiS2_PKNS0_15OtfKerningTableEjj = 0x000000000019a5a0 + __sdk_start;
__fixunstfsi = 0x00000000004fb8e0 + __sdk_start;
_ZN2nn5audio6server24AudioRendererManagerImpl17AudioRendererImpl17GetMixBufferCountENS_2sf3OutIivEE = 0x000000000009cd90 + __sdk_start;
_ZNSt3__118__time_get_storageIwEC2EPKc = 0x0000000000471820 + __sdk_start;
_ZNSt3__112basic_stringIcNS_11char_traitsIcEENS_9allocatorIcEEED1Ev = 0x0000000000493ed8 + __sdk_start;
_ZN2nn2sf6detail38ObjectImplFactoryWithStatefulAllocatorINS0_4cmif6client6detail9CmifProxyINS_2am7service19IOverlayAppletProxyENS4_19CmifDomainProxyKindINS0_4hipc6client38Hipc2ClientSessionManagedProxyKindBaseINSC_18Hipc2ProxyKindBaseILNSB_6detail11MessageTypeE6EEEEEEENS0_30MemoryResourceAllocationPolicyENS5_19ProcessModifierImplINS4_21DefaultProxyFilterTagEEEvEESK_E6Object12AddReferenceEv = 0x0000000000060e20 + __sdk_start;
_ZN2nn5audio8AddDelayEPNS0_19AudioRendererConfigEPNS0_9DelayTypeEPvmPNS0_10SubMixTypeENS_8TimeSpanEi = 0x0000000000082620 + __sdk_start;
_ZN2nn8settings6detail16CopySettingsNameEPNS0_12SettingsNameEPKc = 0x000000000033f8e0 + __sdk_start;
_ZN2nn8settings12LanguageCode6FrenchEv = 0x0000000000347d10 + __sdk_start;
_ZN2nn3web22ShowOfflineHtmlPageArgC2EPKc = 0x00000000003b1f30 + __sdk_start;
embolden_outline = 0x00000000001c6ac0 + __sdk_start;
_ZN2nn3hid6detail27EnableControlPadRestrictionERKNS_4util10BitFlagSetILi32ENS0_12NpadStyleTagEEEb = 0x0000000000236b90 + __sdk_start;
_ZN2nn3hid6detail30UnsetTouchScreenAutoPilotStateEv = 0x000000000023bba0 + __sdk_start;
_ZN2nn8irsensor6detail27GetIrCameraHandleDeviceTypeERKNS0_14IrCameraHandleE = 0x0000000000296ce0 + __sdk_start;
_ZTv0_n24_N7android12ConsumerBaseD1Ev = 0x000000000001b9a0 + __sdk_start;
_ZTIN2nn2sf4cmif6client6detail9CmifProxyINS_2am7service8IStorageENS0_4hipc6client18Hipc2ProxyKindBaseILNS8_6detail11MessageTypeE6EEENS0_30MemoryResourceAllocationPolicyENS3_19ProcessModifierImplINS2_21DefaultProxyFilterTagEEEvEE = 0x0000000000bc7e90 + __sdk_start;
_ZN2nn9bluetooth18GattCharacteristicD2Ev = 0x00000000000d0810 + __sdk_start;
_ZNK2nn5image13ExifExtractor12ExtractMakerEPm = 0x0000000000296400 + __sdk_start;
_ZN2nn2fs3fsa11IFileSystem12DoQueryEntryEPcmPKcmNS1_7QueryIdES5_ = 0x00000000001ed4c0 + __sdk_start;
_ZN2nn2sf4hipc6client34HipcSimpleClientSessionManagerBaseINS2_29DefaultSessionResourceManagerEED2Ev = 0x000000000020abe0 + __sdk_start;
_ZN2nn2sf30SetGlobalDefaultMemoryResourceEPNS_14MemoryResourceE = 0x00000000003548e0 + __sdk_start;
interpolating2Ch16TapFilter = 0x000000000009a7c0 + __sdk_start;
_ZNKSt3__114__codecvt_utf8IDiE9do_lengthER11__mbstate_tPKcS5_m = 0x0000000000488fd0 + __sdk_start;
_ZN2nn2sf4hipc6client24Hipc2ClientCoreProcessorILNS1_6detail11MessageTypeE6ENS0_4cmif6detail14CoreMethodInfoINSt3__15tupleIJNS7_18OutRawArgumentInfoILm4ELm4ELl0EEEEEELm0ELm4ELb0EEESD_E7ProcessEPNS2_26Hipc2ClientProxyBaseObjectENS6_6client24OutRawClientArgumentTypeILm4ELm4EEEj = 0x0000000000260bc0 + __sdk_start;
_ZN2nn2os33DetachReadableHandleOfSystemEventEPNS0_15SystemEventTypeE = 0x0000000000325b00 + __sdk_start;
_ZN2nn2sf6detail39ObjectImplFactoryWithStatelessAllocatorINS0_4cmif6client6detail9CmifProxyINS_7account4baas18IGuestLoginRequestENS4_19CmifDomainProxyKindINS0_4hipc6client38Hipc2ClientSessionManagedProxyKindBaseINSC_18Hipc2ProxyKindBaseILNSB_6detail11MessageTypeE6EEEEEEENS0_25StatelessAllocationPolicyINS0_22ExpHeapStaticAllocatorILm2048ENS7_6detail12ObjectHolder24ObjectHolderAllocatorTagEEEEENS5_19ProcessModifierImplINS4_21DefaultProxyFilterTagEEEvEESQ_E6Object12AddReferenceEv = 0x0000000000041350 + __sdk_start;
_ZN2nn3mii6detail27GetVer3StoreDataDefaultNameEPNS0_8NicknameE = 0x00000000002eac00 + __sdk_start;
_ZN2nn2sf4cmif6client6detail13CmifProxyImplINS_4pctl6detail3ipc23IParentalControlServiceENS2_19CmifDomainProxyKindINS0_4hipc6client38Hipc2ClientSessionManagedProxyKindBaseINSB_18Hipc2ProxyKindBaseILNSA_6detail11MessageTypeE6EEEEEEENS0_30MemoryResourceAllocationPolicyES8_NS3_19ProcessModifierImplINS2_21DefaultProxyFilterTagEEEE40_nn_sf_sync_GetPlayTimerSpentTimeForTestENS0_3OutINS_12TimeSpanTypeEvEE = 0x0000000000334450 + __sdk_start;
_ZTIN2nn2sf4cmif6client6detail9CmifProxyINS_3apm14ISystemManagerENS0_4hipc6client18Hipc2ProxyKindBaseILNS7_6detail11MessageTypeE6EEENS0_30MemoryResourceAllocationPolicyENS3_19ProcessModifierImplINS2_21DefaultProxyFilterTagEEEvEE = 0x0000000000bcb220 + __sdk_start;
_ZN2nn3mii6detail16Ver3StoreDataRaw11SetPadding2Ei = 0x00000000002f0eb0 + __sdk_start;
_ZN2nn3web6detail14WebSessionImpl21trySendContentMessageEPKcj = 0x00000000003b6300 + __sdk_start;
_ZN2nn2sf4cmif6client6detail13CmifProxyImplINS_3hid16IHidSystemServerENS0_4hipc6client18Hipc2ProxyKindBaseILNS7_6detail11MessageTypeE6EEENS0_25StatelessAllocationPolicyINS0_22ExpHeapStaticAllocatorILm16384ENS5_6detail15HidSystemServerEEEEES6_NS3_19ProcessModifierImplINS2_21DefaultProxyFilterTagEEEE34_nn_sf_sync_EnableAppletToGetInputENS_6applet20AppletResourceUserIdEb = 0x0000000000258b40 + __sdk_start;
_ZTVNSt3__120__codecvt_utf8_utf16IwEE = 0x0000000000bed5c8 + __sdk_start;
_ZN2nn5audio20IsBufferMixerEnabledEPKNS0_15BufferMixerTypeE = 0x0000000000082340 + __sdk_start;
_ZN2nn5audio24PerformanceBufferManager13GetBufferBaseEv = 0x0000000000086e00 + __sdk_start;
_ZN2nn5audio6server24AudioRendererManagerImpl35OpenAudioRendererForManualExecutionENS_2sf3OutINS3_13SharedPointerINS0_6detail14IAudioRendererEEEvEERKNS6_30AudioRendererParameterInternalEmONS3_12NativeHandleEmNS_6applet20AppletResourceUserIdE = 0x000000000009d420 + __sdk_start;
_ZN2nn2sf4hipc6client24Hipc2ClientCoreProcessorILNS1_6detail11MessageTypeE6ENS0_4cmif6detail14CoreMethodInfoINSt3__15tupleIJNS7_18OutRawArgumentInfoILm4ELm4ELl68EEENSB_ILm4ELm4ELl72EEENSB_ILm66ELm2ELl0EEENS7_17InRawArgumentInfoILm4ELm4ELl0EEEEEELm4ELm76ELb0EEESH_E7ProcessEPNS2_26Hipc2ClientProxyBaseObjectENS6_6client24OutRawClientArgumentTypeILm4ELm4EEESO_NSN_ILm66ELm2EEENSM_23InRawClientArgumentTypeILm4ELm4EvEEj = 0x00000000002629a0 + __sdk_start;
_ZN2nn8settings7factory23GetEciDeviceCertificateEPNS1_24EccB233DeviceCertificateE = 0x0000000000347060 + __sdk_start;
_ZN2nn4time39AsyncEnsureNetworkClockAvailabilityTaskC2Ev = 0x0000000000383df0 + __sdk_start;
_ZN7android7String86appendERKS0_ = 0x0000000000035900 + __sdk_start;
_ZNK2nn5image13ExifExtractor16ExtractThumbnailEPm = 0x0000000000296ab0 + __sdk_start;
_ZN2nn7nlibsdk4heap12TlsHeapCache14AllocFuncMode0INSt3__117integral_constantIbLb0EEEEEPvPS2_m = 0x00000000002d5ee0 + __sdk_start;
_ZN2nn6socket8resolver3tls6Client24ClientThreadLocalStorageD2Ev = 0x0000000000375590 + __sdk_start;
_ZN2nn5audio6common8BitArrayIjED0Ev = 0x0000000000086100 + __sdk_start;
_ZN2nn5audio6server17AudioRenderSystem16SendCommandToDspEv = 0x000000000009ca60 + __sdk_start;
_ZNK2nn7friends17NotificationQueue6GetUidEv = 0x00000000001dba80 + __sdk_start;
_ZN2nn2fs20DeleteSystemSaveDataEmRKNS_7account3UidE = 0x00000000002296b0 + __sdk_start;
_ZN2nn2sf4hipc6client24Hipc2ClientCoreProcessorILNS1_6detail11MessageTypeE6ENS0_4cmif6detail14CoreMethodInfoINSt3__15tupleIJNS7_18OutRawArgumentInfoILm32ELm8ELl0EEEEEELm0ELm32ELb0EEESD_E7ProcessEPNS2_26Hipc2ClientProxyBaseObjectENS6_6client24OutRawClientArgumentTypeILm32ELm8EEEj = 0x00000000003436a0 + __sdk_start;
_ZN2nn3hid5debug22SetMouseAutoPilotStateERKNS1_19MouseAutoPilotStateE = 0x00000000002467a0 + __sdk_start;
_ZN2nn7account34NetworkServiceAccountAdministrator46DebugSetNetworkServiceAccountAvailabilityErrorENS_6ResultE = 0x000000000004c1f0 + __sdk_start;
_ZN2nn2sf4hipc6client24Hipc2ClientCoreProcessorILNS1_6detail11MessageTypeE6ENS0_4cmif6detail14CoreMethodInfoINSt3__15tupleIJNS7_18BufferArgumentInfoILi0ELi25ELm204EEEEEELm0ELm0ELb0EEESD_E7ProcessEPNS2_26Hipc2ClientProxyBaseObjectENS6_6client24BufferClientArgumentTypeEj = 0x00000000000c8290 + __sdk_start;
_ZN7android7String8C1Ev = 0x0000000000034d60 + __sdk_start;
sync_usage = 0x000000000002dc70 + __sdk_start;
nnmem_nlib_timer_delete = 0x00000000002d0740 + __sdk_start;
_ZNK2nn5audio6server12VoiceContext14GetActiveCountEv = 0x00000000000ad590 + __sdk_start;
_ZN2nn4nifm17NetworkConnection15IsRequestOnHoldEv = 0x000000000031a980 + __sdk_start;
_ZN2nn2sf4cmif6client6detail13CmifProxyImplINS_3hid16IHidSystemServerENS0_4hipc6client18Hipc2ProxyKindBaseILNS7_6detail11MessageTypeE6EEENS0_25StatelessAllocationPolicyINS0_22ExpHeapStaticAllocatorILm16384ENS5_6detail15HidSystemServerEEEEES6_NS3_19ProcessModifierImplINS2_21DefaultProxyFilterTagEEEE41_nn_sf_sync_AcquireNfcActivateEventHandleENS0_3OutINS0_12NativeHandleEvEEj = 0x0000000000258770 + __sdk_start;
_ZNK7android13GraphicBuffer7flattenERPvRmRPiS3_ = 0x000000000002f140 + __sdk_start;
_ZN2nn4pctl11PairingInfoD1Ev = 0x0000000000332760 + __sdk_start;
_ZNK7android16ISurfaceComposer22getInterfaceDescriptorEv = 0x000000000001ff70 + __sdk_start;
_ZN7android18BnConsumerListener10onTransactEjRKNS_6ParcelEPS1_j = 0x0000000000012970 + __sdk_start;
_ZN2nn7account15ShowUserCreatorEv = 0x000000000003a0f0 + __sdk_start;
_ZN2nn3btm4user31AcquireBleServiceDiscoveryEventEPNS_2os15SystemEventTypeE = 0x00000000000d1a70 + __sdk_start;
_ZN2nn2ec26ShowShopConsumableItemListEv = 0x0000000000189500 + __sdk_start;
_ZN2nn2sf4cmif6client34CmifDomainProxyClientCoreProcessorINS0_4hipc6client38Hipc2ClientSessionManagedProxyKindBaseINS5_18Hipc2ProxyKindBaseILNS4_6detail11MessageTypeE6EEEEENS1_6detail14CoreMethodInfoINSt3__15tupleIJNSC_18OutRawArgumentInfoILm52ELm2ELl0EEEEEELm0ELm52ELb0EEESI_E7ProcessEPNS2_23CmifDomainClientMessageISB_E15ProxyBaseObjectENS2_24OutRawClientArgumentTypeILm52ELm2EEEj = 0x0000000000335260 + __sdk_start;
_ZN2nn2sf4cmif6client6detail13CmifProxyImplINS_3ssl2sf14ISslConnectionENS2_19CmifDomainProxyKindINS0_4hipc6client38Hipc2ClientSessionManagedProxyKindBaseINSA_18Hipc2ProxyKindBaseILNS9_6detail11MessageTypeE6EEEEEEENS0_24StatefulAllocationPolicyINS0_16ExpHeapAllocatorEEES7_NS3_19ProcessModifierImplINS2_21DefaultProxyFilterTagEEEE31_nn_sf_sync_GetSessionCacheModeENS0_3OutINS6_16SessionCacheModeEvEE = 0x000000000037cc80 + __sdk_start;
_ZN2nn2sf4hipc6client24Hipc2ClientCoreProcessorILNS1_6detail11MessageTypeE6ENS0_4cmif6detail14CoreMethodInfoINSt3__15tupleIJNS7_17InRawArgumentInfoILm4ELm4ELl0EEENSB_ILm8ELm8ELl16EEENSB_ILm4ELm4ELl4EEENSB_ILm4ELm4ELl8EEEEEELm24ELm0ELb1EEESG_E7ProcessEPNS2_26Hipc2ClientProxyBaseObjectENS6_6client23InRawClientArgumentTypeILm4ELm4EvEENSM_ILm8ELm8EvEESN_SN_j = 0x00000000002528b0 + __sdk_start;
__ctype_toupper_loc = 0x00000000004d7bd0 + __sdk_start;
_ZN2nn2sf4cmif6client6detail13CmifProxyImplINS_7account6detail13IAsyncContextENS2_19CmifDomainProxyKindINS0_4hipc6client38Hipc2ClientSessionManagedProxyKindBaseINSA_18Hipc2ProxyKindBaseILNS9_6detail11MessageTypeE6EEEEEEENS0_25StatelessAllocationPolicyINS0_22ExpHeapStaticAllocatorILm2048ENS6_12ObjectHolder24ObjectHolderAllocatorTagEEEEES7_NS3_19ProcessModifierImplINS2_21DefaultProxyFilterTagEEEE12GetProxyInfoEv = 0x00000000000400c0 + __sdk_start;
_ZN2nn3web14ShowWebPageArg30SetMediaPlayerAutoCloseEnabledEb = 0x00000000003b4e50 + __sdk_start;
unw_regname = 0x000000000050bdd0 + __sdk_start;
pthread_attr_getschedparam = 0x00000000004bce90 + __sdk_start;
_ZN2nn5image6detail4jpeg14jpeg_idct_5x10EPNS2_22jpeg_decompress_structEPNS2_19jpeg_component_infoEPsPPhi = 0x000000000028f5b0 + __sdk_start;
_ZN2nn4bcat17DeliveryCacheFile4OpenERKNS0_13DirectoryNameERKNS0_8FileNameE = 0x00000000000c15a0 + __sdk_start;
_ZN2nn2sf4cmif6client6detail13CmifProxyImplINS_4pctl6detail3ipc23IParentalControlServiceENS2_19CmifDomainProxyKindINS0_4hipc6client38Hipc2ClientSessionManagedProxyKindBaseINSB_18Hipc2ProxyKindBaseILNSA_6detail11MessageTypeE6EEEEEEENS0_30MemoryResourceAllocationPolicyES8_NS3_19ProcessModifierImplINS2_21DefaultProxyFilterTagEEEE30_nn_sf_sync_GetCurrentSettingsENS0_3OutINS5_19RestrictionSettingsEvEE = 0x0000000000333c30 + __sdk_start;
_ZN2nn3hid6detail36IsHandheldButtonPressedOnConsoleModeEPb = 0x0000000000237f90 + __sdk_start;
_ZN2nn2sf6detail39ObjectImplFactoryWithStatelessAllocatorINS0_4cmif6client6detail9CmifProxyINS_3hid26IActiveVibrationDeviceListENS0_4hipc6client18Hipc2ProxyKindBaseILNS9_6detail11MessageTypeE6EEENS0_25StatelessAllocationPolicyINS0_22ExpHeapStaticAllocatorILm16384ENS7_6detail9HidServerEEEEENS5_19ProcessModifierImplINS4_21DefaultProxyFilterTagEEEvEESK_E6Object7ReleaseEv = 0x0000000000257270 + __sdk_start;
_ZN7android7String8C2EPKcm = 0x0000000000034ec0 + __sdk_start;
getdelim = 0x00000000004f3670 + __sdk_start;
_ZN2nn2sf4hipc6client24Hipc2ClientCoreProcessorILNS1_6detail11MessageTypeE6ENS0_4cmif6detail14CoreMethodInfoINSt3__15tupleIJNS7_18OutRawArgumentInfoILm4ELm4ELl0EEENSB_ILm4ELm4ELl4EEEEEELm0ELm8ELb0EEESE_E7ProcessEPNS2_26Hipc2ClientProxyBaseObjectENS6_6client24OutRawClientArgumentTypeILm4ELm4EEESL_j = 0x0000000000069960 + __sdk_start;
_ZTIN2nn2sf4cmif6client6detail9CmifProxyINS_2am7service24ITransferStorageAccessorENS2_19CmifDomainProxyKindINS0_4hipc6client38Hipc2ClientSessionManagedProxyKindBaseINSA_18Hipc2ProxyKindBaseILNS9_6detail11MessageTypeE6EEEEEEENS0_30MemoryResourceAllocationPolicyENS3_19ProcessModifierImplINS2_21DefaultProxyFilterTagEEEvEE = 0x0000000000bc4880 + __sdk_start;
_ZN2nn2sf4cmif6client34CmifDomainProxyClientCoreProcessorINS0_4hipc6client38Hipc2ClientSessionManagedProxyKindBaseINS5_18Hipc2ProxyKindBaseILNS4_6detail11MessageTypeE6EEEEENS1_6detail14CoreMethodInfoINSt3__15tupleIJNSC_18OutRawArgumentInfoILm1ELm1ELl0EEEEEELm0ELm1ELb0EEESI_E7ProcessEPNS2_23CmifDomainClientMessageISB_E15ProxyBaseObjectENS2_24OutRawClientArgumentTypeILm1ELm1EEEj = 0x00000000001fff30 + __sdk_start;
_ZN2nn5audio16Axfx2AllPassTickEPNS0_14Axfx2DelayLineES2_S2_f = 0x00000000000af350 + __sdk_start;
_ZN2nn8settings6detail23SetAutoUpdateEnableFlagEb = 0x000000000034cb20 + __sdk_start;
_ZN2nn3hid6detail13GetNpadStatesEPiPNS0_17NpadJoyRightStateEiRKj = 0x0000000000234320 + __sdk_start;
nnutilZlib_deflateSetHeader = 0x000000000038d760 + __sdk_start;
_ZN2nn2os12SdkMutexType10InitializeEv = 0x00000000003273c0 + __sdk_start;
_ZN2nn2sf4cmif6client34CmifDomainProxyClientCoreProcessorINS0_4hipc6client38Hipc2ClientSessionManagedProxyKindBaseINS5_18Hipc2ProxyKindBaseILNS4_6detail11MessageTypeE6EEEEENS1_6detail14CoreMethodInfoINSt3__15tupleIJNSC_18BufferArgumentInfoILi0ELi26ELm96EEEEEELm0ELm0ELb0EEESI_E7ProcessEPNS2_23CmifDomainClientMessageISB_E15ProxyBaseObjectENS2_24BufferClientArgumentTypeEj = 0x0000000000202810 + __sdk_start;
_ZN2nn4htcs6detail25virtual_socket_collection6ListenEiiRi = 0x000000000026b680 + __sdk_start;
_ZN2nn3mii6detail15GetWrinkleColorENS0_9GammaTypeE = 0x00000000002e3920 + __sdk_start;
_ZN2nn5image6detail4jpeg20jpeg_write_scanlinesEPNS2_20jpeg_compress_structEPPhi = 0x000000000026cb60 + __sdk_start;
_ZN2nn2sf4cmif6client34CmifDomainProxyClientCoreProcessorINS0_4hipc6client38Hipc2ClientSessionManagedProxyKindBaseINS5_18Hipc2ProxyKindBaseILNS4_6detail11MessageTypeE6EEEEENS1_6detail14CoreMethodInfoINSt3__15tupleIJNSC_21OutObjectArgumentInfoILi0ELi0EEENSC_17InRawArgumentInfoILm16ELm4ELl0EEEEEELm16ELm0ELb0EEESK_E21ProcessWithOutObjectsEPNS2_23CmifDomainClientMessageISB_E15ProxyBaseObjectENS2_27OutObjectClientArgumentTypeENS2_23InRawClientArgumentTypeILm16ELm4EvEEjPNS0_13SharedPointerINS0_14IServiceObjectEEE = 0x0000000000047ae0 + __sdk_start;
_ZN2nn4nifm6detail37ConvertNetworkProfileDataToNifmFromSfEPNS0_18NetworkProfileDataERKNS1_2sf18NetworkProfileDataE = 0x000000000031aec0 + __sdk_start;
NvDdkVicConfigureTransform = 0x00000000003eae60 + __sdk_start;
_ZN2nn8settings6system31GetConsoleInformationUploadFlagEv = 0x0000000000348480 + __sdk_start;
_ZN2nn4util6detail20FileOutputStreamImpl11PushBuffer_EPKvmb = 0x00000000003a28f0 + __sdk_start;
_ZN2nn8settings6system13GetBatteryLotEPNS0_10BatteryLotE = 0x0000000000353d70 + __sdk_start;
_ZN2nn2sf4cmif6client34CmifDomainProxyClientCoreProcessorINS0_4hipc6client38Hipc2ClientSessionManagedProxyKindBaseINS5_18Hipc2ProxyKindBaseILNS4_6detail11MessageTypeE6EEEEENS1_6detail14CoreMethodInfoINSt3__15tupleIJNSC_18OutRawArgumentInfoILm4ELm4ELl0EEENSC_18BufferArgumentInfoILi1ELi10ELm0EEENSC_17InRawArgumentInfoILm8ELm2ELl0EEENSI_ILi0ELi21ELm16384EEEEEELm8ELm4ELb0EEESN_E7ProcessEPNS2_23CmifDomainClientMessageISB_E15ProxyBaseObjectENS2_24OutRawClientArgumentTypeILm4ELm4EEENS2_24BufferClientArgumentTypeENS2_23InRawClientArgumentTypeILm8ELm2EvEESW_j = 0x00000000003899c0 + __sdk_start;
_ZN2nn6hidbus27EnableJoyPollingReceiveModeERKNS0_9BusHandleEPKvmPvmNS0_14JoyPollingModeE = 0x000000000025b840 + __sdk_start;
__ltsf2 = 0x00000000004fd848 + __sdk_start;
_ZN2nn2os18CreateSharedMemoryEPNS0_16SharedMemoryTypeEmNS0_16MemoryPermissionES3_ = 0x0000000000328140 + __sdk_start;
_ZN2nn2sf4cmif6client6detail13CmifProxyImplINS_4bcat6detail3ipc12IBcatServiceENS2_19CmifDomainProxyKindINS0_4hipc6client38Hipc2ClientSessionManagedProxyKindBaseINSB_18Hipc2ProxyKindBaseILNSA_6detail11MessageTypeE6EEEEEEENS0_30MemoryResourceAllocationPolicyES8_NS3_19ProcessModifierImplINS2_21DefaultProxyFilterTagEEEE37_nn_sf_sync_ClearDeliveryCacheStorageENS_13ApplicationIdE = 0x00000000000c3950 + __sdk_start;
_ZN2nn7friends16UpdateFriendInfoEPNS0_6FriendERKNS_7account3UidEPKNS3_23NetworkServiceAccountIdEi = 0x00000000001d6d30 + __sdk_start;
_ZN2nn2sf4cmif6client6detail13CmifProxyImplINS_6hidbus19IHidbusSystemServerENS0_4hipc6client18Hipc2ProxyKindBaseILNS7_6detail11MessageTypeE6EEENS0_25StatelessAllocationPolicyINS0_22ExpHeapStaticAllocatorILm16384ENS_3hid6detail15HidSystemServerEEEEES6_NS3_19ProcessModifierImplINS2_21DefaultProxyFilterTagEEEE12GetProxyInfoEv = 0x000000000025a8f0 + __sdk_start;
_ZNKSt3__17codecvtIcc11__mbstate_tE9do_lengthERS1_PKcS5_m = 0x0000000000486c58 + __sdk_start;
_ZN2nn2sf4cmif6client6detail13CmifProxyImplINS_2am7service22IAppletCommonFunctionsENS0_4hipc6client18Hipc2ProxyKindBaseILNS8_6detail11MessageTypeE6EEENS0_30MemoryResourceAllocationPolicyES7_NS3_19ProcessModifierImplINS2_21DefaultProxyFilterTagEEEE28_nn_sf_sync_ReadThemeStorageENS0_3OutImvEEmRKNS0_9OutBufferE = 0x0000000000070d70 + __sdk_start;
_ZN2nn2sf4cmif6client6detail13CmifProxyImplINS_7friends6detail3ipc14IFriendServiceENS2_19CmifDomainProxyKindINS0_4hipc6client38Hipc2ClientSessionManagedProxyKindBaseINSB_18Hipc2ProxyKindBaseILNSA_6detail11MessageTypeE6EEEEEEENS0_30MemoryResourceAllocationPolicyES8_NS3_19ProcessModifierImplINS2_21DefaultProxyFilterTagEEEE41_nn_sf_sync_GetExternalApplicationCatalogENS0_3OutINS5_26ExternalApplicationCatalogEvEERKNS5_28ExternalApplicationCatalogIdENS_8settings12LanguageCodeE = 0x00000000001df6e0 + __sdk_start;
_ZN2nn3ldn14MakeSubnetMaskERA4_Kh = 0x00000000002b6d20 + __sdk_start;
_ZN2nn2sf4cmif6client6detail13CmifProxyImplINS_7account19IAccountServiceBaseENS2_19CmifDomainProxyKindINS0_4hipc6client38Hipc2ClientSessionManagedProxyKindBaseINS9_18Hipc2ProxyKindBaseILNS8_6detail11MessageTypeE6EEEEEEENS0_25StatelessAllocationPolicyINS0_22ExpHeapStaticAllocatorILm2048ENS5_6detail12ObjectHolder24ObjectHolderAllocatorTagEEEEENS5_31IAccountServiceForSystemServiceENS3_19ProcessModifierImplINS2_21DefaultProxyFilterTagEEEE17GetCmifBaseObjectEv = 0x0000000000041fa0 + __sdk_start;
_ZThn32_N2nn2sf4cmif6client6detail13CmifProxyImplINS_7account4baas18IGuestLoginRequestENS2_19CmifDomainProxyKindINS0_4hipc6client38Hipc2ClientSessionManagedProxyKindBaseINSA_18Hipc2ProxyKindBaseILNS9_6detail11MessageTypeE6EEEEEEENS0_25StatelessAllocationPolicyINS0_22ExpHeapStaticAllocatorILm2048ENS5_6detail12ObjectHolder24ObjectHolderAllocatorTagEEEEES7_NS3_19ProcessModifierImplINS2_21DefaultProxyFilterTagEEEE17GetCmifBaseObjectEv = 0x00000000000414e0 + __sdk_start;
_ZN2nn2sf6detail38ObjectImplFactoryWithStatefulAllocatorINS0_4cmif6client6detail9CmifProxyINS_7friends6detail3ipc20INotificationServiceENS4_19CmifDomainProxyKindINS0_4hipc6client38Hipc2ClientSessionManagedProxyKindBaseINSD_18Hipc2ProxyKindBaseILNSC_6detail11MessageTypeE6EEEEEEENS0_30MemoryResourceAllocationPolicyENS5_19ProcessModifierImplINS4_21DefaultProxyFilterTagEEEvEESL_E6Object7ReleaseEv = 0x00000000001e4950 + __sdk_start;
_ZN2nn3hid17GetKeyboardStatesEPNS0_13KeyboardStateEi = 0x0000000000245180 + __sdk_start;
_ZTIN10__cxxabiv121__vmi_class_type_infoE = 0x0000000000bf21e0 + __sdk_start;
lgammaf_r = 0x00000000004e06b0 + __sdk_start;
__fpurge = 0x00000000004f1e80 + __sdk_start;
_ZN2nn2sf13InterfaceInfoINS_5audio6detail21IAudioRendererManagerEE4_tABINS5_5_tO2NINS2_6server24AudioRendererManagerImplEE4typeES4_E4type29_nn_sf_sync_OpenAudioRendererENS0_3OutINS0_13SharedPointerINS3_14IAudioRendererEEEvEERKNS3_30AudioRendererParameterInternalEONS0_12NativeHandleESN_mNS_6applet20AppletResourceUserIdE = 0x00000000000aed40 + __sdk_start;
_ZN2nn3err6detail29DefaultErrorMessageDataExistsEj = 0x00000000001970e0 + __sdk_start;
_ZN2nn8settingseqERKNS0_8LanguageERKNS0_12LanguageCodeE = 0x0000000000347fe0 + __sdk_start;
_ZN2nn4time6detail39ClaimPeriodicBenefitWithUserSystemClockEPNS0_27PeriodicBenefitClaimContextERKNS0_13ClockSnapshotERKNS_8TimeSpanES9_PKNS0_25CheckCalendarTimeCallbackE = 0x0000000000386400 + __sdk_start;
getenv = 0x00000000004d7ea0 + __sdk_start;
__p1evll = 0x00000000004e50f8 + __sdk_start;
_ZN2nn3nfp13StartRestorerEPNS0_7TagInfoEPNS0_12DeviceHandleERKNS0_24AmiiboSettingsStartParamE = 0x0000000000300f30 + __sdk_start;
_ZN2nn4pctl18PairingAccountInfo11GetNicknameEPcm = 0x0000000000332440 + __sdk_start;
__fpclassifyf = 0x00000000004e4e78 + __sdk_start;
mbrtoc32 = 0x00000000004e7eb0 + __sdk_start;
_ZN2nn3mii21ParamCharInfoAccessorC1ERKNS0_8CharInfoE = 0x00000000002e1c40 + __sdk_start;
_ZN2nn2sf4cmif6client6detail13CmifProxyImplINS_3hid16IHidSystemServerENS0_4hipc6client18Hipc2ProxyKindBaseILNS7_6detail11MessageTypeE6EEENS0_30MemoryResourceAllocationPolicyES6_NS3_19ProcessModifierImplINS2_21DefaultProxyFilterTagEEEE48_nn_sf_sync_GetAnalogStickManualCalibrationStageENS0_3OutIlvEENS5_6system11UniquePadIdEl = 0x000000000025ee70 + __sdk_start;
_ZTIN2nn2sf6detail38ObjectImplFactoryWithStatefulAllocatorINS0_4cmif6client6detail9CmifProxyINS_6hidbus19IHidbusSystemServerENS0_4hipc6client18Hipc2ProxyKindBaseILNS9_6detail11MessageTypeE6EEENS0_30MemoryResourceAllocationPolicyENS5_19ProcessModifierImplINS4_21DefaultProxyFilterTagEEEvEESF_E6ObjectE = 0x0000000000bd8c70 + __sdk_start;
_ZNK2nn5audio6server12SinkInfoBase9GetNodeIdEv = 0x00000000000aaa50 + __sdk_start;
_ZN2nn4time14ToCalendarTimeEPNS0_12CalendarTimeEPNS0_22CalendarAdditionalInfoERKNS0_9PosixTimeE = 0x0000000000386150 + __sdk_start;
__fixunstfti = 0x00000000004fb960 + __sdk_start;
_ZN2nn4edid6detail17GetVideoInterfaceEh = 0x0000000000193080 + __sdk_start;
_ZN2nn2sf4cmif6client6detail13CmifProxyImplINS_4pctl6detail3ipc23IParentalControlServiceENS2_19CmifDomainProxyKindINS0_4hipc6client38Hipc2ClientSessionManagedProxyKindBaseINSB_18Hipc2ProxyKindBaseILNSA_6detail11MessageTypeE6EEEEEEENS0_30MemoryResourceAllocationPolicyES8_NS3_19ProcessModifierImplINS2_21DefaultProxyFilterTagEEEE12GetProxyInfoEv = 0x0000000000333910 + __sdk_start;
ldiv = 0x00000000004f60c8 + __sdk_start;
_ZN2nn2fs6detail34OutputAccessLogUnlessResultSuccessENS_6ResultENS_2os4TickES4_PKcNS0_15DirectoryHandleES6_z = 0x00000000001e6400 + __sdk_start;
_ZTVN2nn2os6detail26MultiWaitHolderOfSemaphoreE = 0x0000000000bdf648 + __sdk_start;
_ZN2nn3ngc6detail12OutputStreamD0Ev = 0x000000000030d560 + __sdk_start;
_ZNK2nn3mii6detail11CoreDataRaw16GetFacelineColorEv = 0x00000000002e6c60 + __sdk_start;
_ZN2nn8settings6detail28SetHeadphoneVolumeUpdateFlagEb = 0x000000000034b0c0 + __sdk_start;
__fpclassifyl = 0x00000000004e4eb0 + __sdk_start;
_ZN2nn7account28NetworkServiceAccountManager46DebugCreateNintendoAccountAuthorizationRequestEPNS0_42NintendoAccountAuthorizationRequestContextEmPKcmRKNS0_45NintendoAccountAuthorizationRequestParametersEPvm = 0x000000000004b420 + __sdk_start;
_ZN2nn2sf4hipc6client24Hipc2ClientCoreProcessorILNS1_6detail11MessageTypeE6ENS0_4cmif6detail14CoreMethodInfoINSt3__15tupleIJNS7_18OutRawArgumentInfoILm8ELm8ELl0EEEEEELm0ELm8ELb0EEESD_E7ProcessEPNS2_26Hipc2ClientProxyBaseObjectENS6_6client24OutRawClientArgumentTypeILm8ELm8EEEj = 0x000000000006a780 + __sdk_start;
sbrDecoder_SetParam = 0x000000000016e6a0 + __sdk_start;
nncodecLibopus_silk_insertion_sort_decreasing_int16 = 0x0000000000101790 + __sdk_start;
_ZTIN2nn7account6detail13IAsyncContextE = 0x0000000000bbdc50 + __sdk_start;
_ZTIN2nn2sf4cmif6client6detail13CmifProxyImplINS_2am7service21IStackableAppletProxyENS0_4hipc6client18Hipc2ProxyKindBaseILNS8_6detail11MessageTypeE6EEENS0_30MemoryResourceAllocationPolicyENS6_19ILibraryAppletProxyENS3_19ProcessModifierImplINS2_21DefaultProxyFilterTagEEEEE = 0x0000000000bc9450 + __sdk_start;
_ZN2nn5codec19HardwareOpusDecoder17DecodeInterleavedEPmPiPsmPKvm = 0x000000000011dac0 + __sdk_start;
_ZN2nn3hid6detail17UnbindXpadIdEventEPNS_2os15SystemEventTypeE = 0x0000000000242f30 + __sdk_start;
_ZN2nn5audio6common29GetSplitterInParamHeaderMagicEv = 0x000000000008b520 + __sdk_start;
_ZN2nn2fs25OpenAccessFailureResolverEPNSt3__110unique_ptrINS0_21AccessFailureResolverENS1_14default_deleteIS3_EEEEm = 0x00000000001f4db0 + __sdk_start;
_ZTIN2nn2sf4cmif6client6detail13CmifProxyImplINS_3apm14ISystemManagerENS0_4hipc6client18Hipc2ProxyKindBaseILNS7_6detail11MessageTypeE6EEENS0_30MemoryResourceAllocationPolicyES6_NS3_19ProcessModifierImplINS2_21DefaultProxyFilterTagEEEEE = 0x0000000000bcb1d0 + __sdk_start;
_ZN2nn5audio21ContainsAudioInBufferEPKNS0_7AudioInEPKNS0_13AudioInBufferE = 0x00000000000992e0 + __sdk_start;
_ZN2nn2vi21AllocateDisplayHolderEv = 0x00000000003ae870 + __sdk_start;
_ZN2nn2sf4cmif6client6detail13CmifProxyImplINS_7account31IAccountServiceForSystemServiceENS2_19CmifDomainProxyKindINS0_4hipc6client38Hipc2ClientSessionManagedProxyKindBaseINS9_18Hipc2ProxyKindBaseILNS8_6detail11MessageTypeE6EEEEEEENS0_25StatelessAllocationPolicyINS0_22ExpHeapStaticAllocatorILm2048ENS5_6detail12ObjectHolder24ObjectHolderAllocatorTagEEEEES6_NS3_19ProcessModifierImplINS2_21DefaultProxyFilterTagEEEE30_nn_sf_sync_ListQualifiedUsersERKNS0_8OutArrayINS5_3UidEEENS_13ApplicationIdE = 0x0000000000041ed0 + __sdk_start;
_ZN2nn3ssl10ConnectionD2Ev = 0x0000000000378ea0 + __sdk_start;
_ZN2nn2sf4cmif6client6detail13CmifProxyImplINS_3ssl2sf11ISslServiceENS2_19CmifDomainProxyKindINS0_4hipc6client38Hipc2ClientSessionManagedProxyKindBaseINSA_18Hipc2ProxyKindBaseILNS9_6detail11MessageTypeE6EEEEEEENS0_24StatefulAllocationPolicyINS0_16ExpHeapAllocatorEEES7_NS3_19ProcessModifierImplINS2_21DefaultProxyFilterTagEEEE26_nn_sf_sync_GetDebugOptionERKNS0_9OutBufferENS6_15DebugOptionTypeE = 0x000000000037c220 + __sdk_start;
_ZNSt3__112system_errorC2EiRKNS_14error_categoryE = 0x000000000049dff8 + __sdk_start;
_ZN2nn5audio15AudioBufferListINS0_13AudioInBufferEE5clearEv = 0x000000000007e980 + __sdk_start;
_ZN2nn5audio24GetAuxLimiterInputOutputEPaS1_PiPKNS0_14AuxLimiterTypeEi = 0x0000000000080770 + __sdk_start;
_ZN2nn5audio16GetAuxSampleRateEPKNS0_7AuxTypeE = 0x0000000000081a20 + __sdk_start;
_ZN2nn2sf4cmif6client6detail13CmifProxyImplINS_8settings21ISystemSettingsServerENS0_4hipc6client18Hipc2ProxyKindBaseILNS7_6detail11MessageTypeE6EEENS0_30MemoryResourceAllocationPolicyES6_NS3_19ProcessModifierImplINS2_21DefaultProxyFilterTagEEEE24_nn_sf_sync_GetQuestFlagENS0_3OutIbvEE = 0x0000000000341d80 + __sdk_start;
_ZN2nn3ssl10Connection12GetLastErrorEPNS_6ResultE = 0x000000000037a600 + __sdk_start;
nnsslConnectionDestroy = 0x000000000037b0b0 + __sdk_start;
_ZN2nn2am17GetSelfControllerEv = 0x0000000000052070 + __sdk_start;
_ZThn32_N2nn2sf4cmif6client6detail13CmifProxyImplINS_7timesrv6detail7service12ISystemClockENS2_19CmifDomainProxyKindINS0_4hipc6client38Hipc2ClientSessionManagedProxyKindBaseINSB_18Hipc2ProxyKindBaseILNSA_6detail11MessageTypeE6EEEEEEENS0_30MemoryResourceAllocationPolicyES8_NS3_19ProcessModifierImplINS2_21DefaultProxyFilterTagEEEE17GetCmifBaseObjectEv = 0x0000000000388630 + __sdk_start;
_ZN2nn4util17MessagePackWriter10WriteMap16Et = 0x000000000039a2f0 + __sdk_start;
_ZN2nn2os6detail26MultiWaitHolderOfSemaphore15AddToObjectListEv = 0x000000000032b9b0 + __sdk_start;
_ZN2nn6socket12SetLastErrnoEi = 0x0000000000360790 + __sdk_start;
_ZTVN2nn2sf6detail38ObjectImplFactoryWithStatefulAllocatorINS0_4cmif6client6detail9CmifProxyINS_3apm8ISessionENS0_4hipc6client18Hipc2ProxyKindBaseILNS9_6detail11MessageTypeE6EEENS0_30MemoryResourceAllocationPolicyENS5_19ProcessModifierImplINS4_21DefaultProxyFilterTagEEEvEESF_E6ObjectE = 0x0000000000bcac98 + __sdk_start;
_ZN2nn5codec30HardwareOpusMultiStreamDecoderD2Ev = 0x000000000011db00 + __sdk_start;
_ZN2nn2sf4cmif6client34CmifDomainProxyClientCoreProcessorINS0_4hipc6client38Hipc2ClientSessionManagedProxyKindBaseINS5_18Hipc2ProxyKindBaseILNS4_6detail11MessageTypeE6EEEEENS1_6detail14CoreMethodInfoINSt3__15tupleIJNSC_18OutRawArgumentInfoILm4ELm4ELl0EEENSC_21OutHandleArgumentInfoILi0ELi1EEENSC_17InRawArgumentInfoILm8ELm8ELl8EEENSK_ILm4ELm4ELl0EEEEEELm16ELm4ELb0EEESN_E7ProcessEPNS2_23CmifDomainClientMessageISB_E15ProxyBaseObjectENS2_24OutRawClientArgumentTypeILm4ELm4EEENS2_27OutHandleClientArgumentTypeENS2_23InRawClientArgumentTypeILm8ELm8EvEENSX_ILm4ELm4EvEEj = 0x0000000000267eb0 + __sdk_start;
_ZNKSt3__110moneypunctIwLb1EE13do_pos_formatEv = 0x0000000000474150 + __sdk_start;
_ZNK2nn2sf4hipc6detail25HipcMessageBufferAccessor13GetRawPointerEv = 0x0000000000357030 + __sdk_start;
_ZN2nn4util16FileOutputStream5WriteEPKvm = 0x00000000003a3270 + __sdk_start;
_ZN2nn2sf4cmif6client34CmifDomainProxyClientCoreProcessorINS0_4hipc6client38Hipc2ClientSessionManagedProxyKindBaseINS5_18Hipc2ProxyKindBaseILNS4_6detail11MessageTypeE6EEEEENS1_6detail14CoreMethodInfoINSt3__15tupleIJNSC_18BufferArgumentInfoILi0ELi26ELm896EEENSC_17InRawArgumentInfoILm16ELm8ELl8EEENSI_ILm8ELm8ELl24EEENSI_ILm4ELm4ELl0EEEEEELm32ELm0ELb0EEESM_E7ProcessEPNS2_23CmifDomainClientMessageISB_E15ProxyBaseObjectENS2_24BufferClientArgumentTypeENS2_23InRawClientArgumentTypeILm16ELm8EvEENSU_ILm8ELm8EvEENSU_ILm4ELm4EvEEj = 0x00000000001e28c0 + __sdk_start;
_ZNSt9exceptionD0Ev = 0x00000000004b52e0 + __sdk_start;
_ZN2nn2am29FinalizeApplicationInterfacesEv = 0x0000000000054d20 + __sdk_start;
_ZN2nn2sf4cmif6client6detail13CmifProxyImplINS_2am7service22IAppletCommonFunctionsENS0_4hipc6client18Hipc2ProxyKindBaseILNS8_6detail11MessageTypeE6EEENS0_30MemoryResourceAllocationPolicyES7_NS3_19ProcessModifierImplINS2_21DefaultProxyFilterTagEEEE29_nn_sf_sync_WriteThemeStorageEmRKNS0_8InBufferE = 0x0000000000070da0 + __sdk_start;
_ZThn16_N2nn2sf4cmif6client6detail13CmifProxyImplINS_3nsd6detail8IManagerENS0_4hipc6client18Hipc2ProxyKindBaseILNS8_6detail11MessageTypeE6EEENS0_30MemoryResourceAllocationPolicyES7_NS3_19ProcessModifierImplINS2_21DefaultProxyFilterTagEEEE17GetCmifBaseObjectEv = 0x0000000000320670 + __sdk_start;
_ZN7android21SurfaceComposerClient14destroyDisplayERKNS_2spINS_7IBinderEEE = 0x000000000002acd0 + __sdk_start;
_ZNSt3__117__widen_from_utf8ILm16EED1Ev = 0x000000000045e7c0 + __sdk_start;
_ZTIN2nn7account4baas24IManagerForSystemServiceE = 0x0000000000bbe520 + __sdk_start;
_ZN2nn2sf4hipc6client24Hipc2ClientCoreProcessorILNS1_6detail11MessageTypeE6ENS0_4cmif6detail14CoreMethodInfoINSt3__15tupleIJNS7_21OutObjectArgumentInfoILi0ELi0EEENS7_20InHandleArgumentInfoILi0ELi1EEENS7_17InRawArgumentInfoILm8ELm8ELl0EEEEEELm8ELm0ELb0EEESH_E21ProcessWithOutObjectsEPNS2_26Hipc2ClientProxyBaseObjectENS6_6client27OutObjectClientArgumentTypeENSM_26InHandleClientArgumentTypeENSM_23InRawClientArgumentTypeILm8ELm8EvEEjPNS0_13SharedPointerINS0_14IServiceObjectEEE = 0x000000000006fc90 + __sdk_start;
_ZN2nn5audio15BehaviorManagerC2Ej = 0x0000000000080e90 + __sdk_start;
_ZN2nn5codec17CAacDecoder_CloseEPNS0_20AAC_DECODER_INSTANCEE = 0x000000000012aa60 + __sdk_start;
_ZN2nn6fontll18ScalableFontEngine10GetKerningEPiS2_jj = 0x0000000000199e30 + __sdk_start;
_ZNK2nn5audio6server12SplitterInfo19GetDestinationCountEv = 0x00000000000ab230 + __sdk_start;
_ZN2nn2ec6detail23ShopServiceAccessServer15PublicPortProxyILi4EE28GetProxyObjectMemoryResourceEv = 0x000000000018ac90 + __sdk_start;
_ZN2nn2sf4cmif6client6detail13CmifProxyImplINS_3hid10IHidServerENS0_4hipc6client18Hipc2ProxyKindBaseILNS7_6detail11MessageTypeE6EEENS0_25StatelessAllocationPolicyINS0_22ExpHeapStaticAllocatorILm16384ENS5_6detail9HidServerEEEEES6_NS3_19ProcessModifierImplINS2_21DefaultProxyFilterTagEEEE37_nn_sf_sync_EndPermitVibrationSessionEv = 0x0000000000255410 + __sdk_start;
_ZN2nn6crypto6detail9GhashImpl20ProcessRemainingDataEPKhm = 0x000000000017db80 + __sdk_start;
_ZTVN2nn2sf6detail38ObjectImplFactoryWithStatefulAllocatorINS0_4cmif6client6detail9CmifProxyINS_2am7service13ILockAccessorENS4_19CmifDomainProxyKindINS0_4hipc6client38Hipc2ClientSessionManagedProxyKindBaseINSC_18Hipc2ProxyKindBaseILNSB_6detail11MessageTypeE6EEEEEEENS0_30MemoryResourceAllocationPolicyENS5_19ProcessModifierImplINS4_21DefaultProxyFilterTagEEEvEESK_E6ObjectE = 0x0000000000bc4078 + __sdk_start;
NvRmGpuChannelSetInterleave = 0x00000000003eefe0 + __sdk_start;
_ZN7android13GraphicBuffer6unlockEv = 0x000000000002ef70 + __sdk_start;
nnmem_nlib_wcscat = 0x00000000002c1a10 + __sdk_start;
_ZN2nn2sf4cmif6client6detail13CmifProxyImplINS_6capsrv2sf29IScreenShotApplicationServiceENS0_4hipc6client18Hipc2ProxyKindBaseILNS8_6detail11MessageTypeE6EEENS0_30MemoryResourceAllocationPolicyES7_NS3_19ProcessModifierImplINS2_21DefaultProxyFilterTagEEEE17GetCmifBaseObjectEv = 0x00000000000d5160 + __sdk_start;
_ZN2nn2sf4cmif6client6detail13CmifProxyImplINS_6hidbus13IHidbusServerENS0_4hipc6client18Hipc2ProxyKindBaseILNS7_6detail11MessageTypeE6EEENS0_25StatelessAllocationPolicyINS0_22ExpHeapStaticAllocatorILm16384ENS5_6server12HidbusServerEEEEES6_NS3_19ProcessModifierImplINS2_21DefaultProxyFilterTagEEEE39_nn_sf_sync_EnableJoyPollingReceiveModeERKNS0_8InBufferEONS0_12NativeHandleEjjNS5_9BusHandleE = 0x000000000025d7d0 + __sdk_start;
_ZN2nn5audio6server10WaveBufferC1Ev = 0x00000000000abd30 + __sdk_start;
_ZN2nn2os18TryJamMessageQueueEPNS0_16MessageQueueTypeEm = 0x0000000000326140 + __sdk_start;
_ZTIN3nne4nlib15NullInputStreamE = 0x0000000000be51b0 + __sdk_start;
_ZN2nn2sf4hipc6client24Hipc2ClientCoreProcessorILNS1_6detail11MessageTypeE6ENS0_4cmif6detail14CoreMethodInfoINSt3__15tupleIJNS7_18OutRawArgumentInfoILm128ELm8ELl0EEEEEELm0ELm128ELb0EEESD_E7ProcessEPNS2_26Hipc2ClientProxyBaseObjectENS6_6client24OutRawClientArgumentTypeILm128ELm8EEEj = 0x0000000000079020 + __sdk_start;
_ZN2nn5audio15BehaviorManager32SetMemroyPoolForceMappingEnabledEb = 0x0000000000080f80 + __sdk_start;
_ZN2nn2sf4hipc6client24Hipc2ClientCoreProcessorILNS1_6detail11MessageTypeE6ENS0_4cmif6detail14CoreMethodInfoINSt3__15tupleIJNS7_18BufferArgumentInfoILi0ELi22ELm128EEEEEELm0ELm0ELb0EEESD_E7ProcessEPNS2_26Hipc2ClientProxyBaseObjectENS6_6client24BufferClientArgumentTypeEj = 0x0000000000344a00 + __sdk_start;
_ZN2nn8settings6detail42SetConsoleSixAxisSensorAngularAccelerationERKNS0_6system39ConsoleSixAxisSensorAngularAccelerationE = 0x000000000034f2a0 + __sdk_start;
thread_store_set = 0x00000000000100d0 + __sdk_start;
__nnmusl_path_length_within_range = 0x0000000000505b60 + __sdk_start;
_ZN2nn5image6detail4jpeg20jpeg_suppress_tablesEPNS2_20jpeg_compress_structEb = 0x000000000026c6b0 + __sdk_start;
_ZN2nn2fs6detail30FileSystemServiceObjectAdapterC1EONS_2sf13SharedPointerINS_5fssrv2sf11IFileSystemEEE = 0x000000000020bc60 + __sdk_start;
nncodecLibopus_silk_stereo_decode_pred = 0x00000000001025a0 + __sdk_start;
_ZN2nn2sf4cmif6client34CmifDomainProxyClientCoreProcessorINS0_4hipc6client38Hipc2ClientSessionManagedProxyKindBaseINS5_18Hipc2ProxyKindBaseILNS4_6detail11MessageTypeE6EEEEENS1_6detail14CoreMethodInfoINSt3__15tupleIJNSC_18OutRawArgumentInfoILm88ELm4ELl0EEENSC_17InRawArgumentInfoILm48ELm4ELl0EEEEEELm48ELm88ELb0EEESK_E7ProcessEPNS2_23CmifDomainClientMessageISB_E15ProxyBaseObjectENS2_24OutRawClientArgumentTypeILm88ELm4EEENS2_23InRawClientArgumentTypeILm48ELm4EvEEj = 0x00000000002f64e0 + __sdk_start;
wctrans = 0x00000000004d79c0 + __sdk_start;
_ZN2nn4edid6detail24IsDetailedTimingSerratedEh = 0x0000000000193a90 + __sdk_start;
_ZN2nn2fs17SetBisRootForHostENS0_14BisPartitionIdEPKc = 0x00000000001f5580 + __sdk_start;
_ZTVN2nn2sf6detail38ObjectImplFactoryWithStatefulAllocatorINS0_4cmif6client6detail9CmifProxyINS_2am7service15IAppletAccessorENS0_4hipc6client18Hipc2ProxyKindBaseILNSA_6detail11MessageTypeE6EEENS0_30MemoryResourceAllocationPolicyENS5_19ProcessModifierImplINS4_21DefaultProxyFilterTagEEEvEESG_E6ObjectE = 0x0000000000bc8938 + __sdk_start;
_ZTVN2nn2sf6detail38ObjectImplFactoryWithStatefulAllocatorINS0_4cmif6client6detail9CmifProxyINS_2am7service19IOverlayAppletProxyENS0_4hipc6client18Hipc2ProxyKindBaseILNSA_6detail11MessageTypeE6EEENS0_30MemoryResourceAllocationPolicyENS5_19ProcessModifierImplINS4_21DefaultProxyFilterTagEEEvEESG_E6ObjectE = 0x0000000000bc97f8 + __sdk_start;
_ZN2nn5codec24GetAacDecoderChannelInfoEi = 0x0000000000121080 + __sdk_start;
_ZN2nn4pctl33IsRestrictedSystemSettingsEnteredEv = 0x0000000000331450 + __sdk_start;
_ZN2nn8irsensor6detail19StatusManagerHolderC1Ev = 0x0000000000299e70 + __sdk_start;
ffsl = 0x00000000004e7248 + __sdk_start;
_ZN2nn2sf4hipc6client24Hipc2ClientCoreProcessorILNS1_6detail11MessageTypeE6ENS0_4cmif6detail14CoreMethodInfoINSt3__15tupleIJNS7_18BufferArgumentInfoILi0ELi22ELm256EEEEEELm0ELm0ELb0EEESD_E7ProcessEPNS2_26Hipc2ClientProxyBaseObjectENS6_6client24BufferClientArgumentTypeEj = 0x0000000000320680 + __sdk_start;
_ZN2nn8settings6system48SetUserSystemClockAutomaticCorrectionUpdatedTimeERKNS_4time20SteadyClockTimePointE = 0x0000000000346d40 + __sdk_start;
_ZN2nn2sf4cmif6client6detail13CmifProxyImplINS_3hid16IHidSystemServerENS0_4hipc6client18Hipc2ProxyKindBaseILNS7_6detail11MessageTypeE6EEENS0_25StatelessAllocationPolicyINS0_22ExpHeapStaticAllocatorILm16384ENS5_6detail15HidSystemServerEEEEES6_NS3_19ProcessModifierImplINS2_21DefaultProxyFilterTagEEEE40_nn_sf_sync_RegisterAppletResourceUserIdENS_6applet20AppletResourceUserIdEb = 0x0000000000258af0 + __sdk_start;
NvRmSyncGetSyncpoints = 0x00000000003d0fb0 + __sdk_start;
_ZN2nn4util6TinyMt10InitializeEPKji = 0x000000000039cfe0 + __sdk_start;
_ZN2nn2sf4hipc6client24Hipc2ClientCoreProcessorILNS1_6detail11MessageTypeE6ENS0_4cmif6detail14CoreMethodInfoINSt3__15tupleIJNS7_18BufferArgumentInfoILi0ELi6ELm0EEEEEELm0ELm0ELb0EEESD_E7ProcessEPNS2_26Hipc2ClientProxyBaseObjectENS6_6client24BufferClientArgumentTypeEj = 0x000000000017dfe0 + __sdk_start;
_ZN2nn5audio23GetDelayChannelCountMaxEPKNS0_9DelayTypeE = 0x0000000000082b30 + __sdk_start;
_ZN2nn2oe31LeaveExitRequestHandlingSectionEv = 0x0000000000322fa0 + __sdk_start;
_ZNKSt3__114error_category23default_error_conditionEi = 0x000000000049d540 + __sdk_start;
_ZN2nn4diag6detail18OnAssertionFailureENS0_13AssertionTypeEPKcS4_S4_iS4_z = 0x000000000017ef80 + __sdk_start;
_ZN2nn2os6detail13MultiWaitImpl38AddToEachObjectListAndCheckObjectStateEv = 0x000000000032b380 + __sdk_start;
_ZN2nn7account6detail21TryPopPreselectedUserEv = 0x000000000003ad70 + __sdk_start;
nncodecLibopus_silk_solve_LDL_FIX = 0x000000000010c320 + __sdk_start;
_ZN2nn2oe21SwitchLcdBacklightOffEv = 0x0000000000323d30 + __sdk_start;
_ZN2nn8settings6detail29SetDeviceTimeZoneLocationNameERKNS_4time12LocationNameE = 0x0000000000350330 + __sdk_start;
_ZN2nn2sf4hipc6client24Hipc2ClientCoreProcessorILNS1_6detail11MessageTypeE6ENS0_4cmif6detail14CoreMethodInfoINSt3__15tupleIJNS7_18BufferArgumentInfoILi0ELi22ELm384EEEEEELm0ELm0ELb0EEESD_E7ProcessEPNS2_26Hipc2ClientProxyBaseObjectENS6_6client24BufferClientArgumentTypeEj = 0x0000000000351e00 + __sdk_start;
_ZN2nn8irsensor6detail15IrSensorSession34GetTeraPluginProcessorStateDefaultEPNS0_24TeraPluginProcessorStateERKNS0_14IrCameraHandleE = 0x000000000029ca60 + __sdk_start;
nnsocketSockAtMark = 0x0000000000360ba0 + __sdk_start;
_ZNK2nn5audio14MemoryPoolInfo14IsInTransitionEv = 0x0000000000085ad0 + __sdk_start;
_ZN2nn2sf4cmif6client6detail13CmifProxyImplINS_3mii6detail16IDatabaseServiceENS2_19CmifDomainProxyKindINS0_4hipc6client38Hipc2ClientSessionManagedProxyKindBaseINSA_18Hipc2ProxyKindBaseILNS9_6detail11MessageTypeE6EEEEEEENS0_30MemoryResourceAllocationPolicyES7_NS3_19ProcessModifierImplINS2_21DefaultProxyFilterTagEEEE23_nn_sf_sync_BuildRandomENS0_3OutINS5_8CharInfoEvEEiii = 0x00000000002f4fe0 + __sdk_start;
_ZNKSt3__15ctypeIcE9do_narrowEPKcS3_cPc = 0x0000000000485b18 + __sdk_start;
_ZN2nn2sf22UnmanagedServiceObjectINS0_4hipc6detail12IHipcManagerENS2_6server34HipcServerSessionManagerWithDomain15HipcManagerImplEE7ReleaseEv = 0x000000000035c640 + __sdk_start;
_ZN2nn4pctl22GetSafetyLevelSettingsEPNS0_19RestrictionSettingsENS0_11SafetyLevelE = 0x0000000000330c20 + __sdk_start;
_ZN2nn2sf4cmif6client6detail13CmifProxyImplINS_3hid10IHidServerENS0_4hipc6client18Hipc2ProxyKindBaseILNS7_6detail11MessageTypeE6EEENS0_25StatelessAllocationPolicyINS0_22ExpHeapStaticAllocatorILm16384ENS5_6detail9HidServerEEEEES6_NS3_19ProcessModifierImplINS2_21DefaultProxyFilterTagEEEE39_nn_sf_sync_SetIsPalmaPairedConnectableENS_6applet20AppletResourceUserIdEb = 0x0000000000255ab0 + __sdk_start;
_ZN2nn2sf4cmif6client6detail13CmifProxyImplINS_3hid16IHidSystemServerENS0_4hipc6client18Hipc2ProxyKindBaseILNS7_6detail11MessageTypeE6EEENS0_25StatelessAllocationPolicyINS0_22ExpHeapStaticAllocatorILm16384ENS5_6detail15HidSystemServerEEEEES6_NS3_19ProcessModifierImplINS2_21DefaultProxyFilterTagEEEE55_nn_sf_sync_AcquirePlayReportControllerUsageUpdateEventENS0_3OutINS0_12NativeHandleEvEE = 0x0000000000258ca0 + __sdk_start;
NvRmGpuChannelSetTimeslice = 0x00000000003ef010 + __sdk_start;
_ZNSt3__17__sort5IRNS_6__lessIssEEPsEEjT0_S5_S5_S5_S5_T_ = 0x00000000004459d0 + __sdk_start;
_ZNSt3__118shared_timed_mutex8try_lockEv = 0x00000000004935a0 + __sdk_start;
_ZN2nn2sf4hipc6server2v124HipcServerSessionManager6AcceptENS_3svc6HandleEONS0_4cmif6server20CmifServerObjectInfoE = 0x00000000003583d0 + __sdk_start;
_ZN2nn4util6detail19FileInputStreamImpl6Close_Ev = 0x00000000003a2690 + __sdk_start;
_ZTIN2nn2sf4cmif6client6detail9CmifProxyINS_2am7service17IOverlayFunctionsENS0_4hipc6client18Hipc2ProxyKindBaseILNS8_6detail11MessageTypeE6EEENS0_30MemoryResourceAllocationPolicyENS3_19ProcessModifierImplINS2_21DefaultProxyFilterTagEEEvEE = 0x0000000000bc9a80 + __sdk_start;
_ZN2nn5audio3dsp20DspExceptionNotifier15AddObserverImplEPFvPvES3_ = 0x00000000000bcd50 + __sdk_start;
_ZN2nn2sf4cmif6client6detail13CmifProxyImplINS_3hid16IHidSystemServerENS0_4hipc6client18Hipc2ProxyKindBaseILNS7_6detail11MessageTypeE6EEENS0_30MemoryResourceAllocationPolicyES6_NS3_19ProcessModifierImplINS2_21DefaultProxyFilterTagEEEE39_nn_sf_sync_InitializeUsbFirmwareUpdateENS_6applet20AppletResourceUserIdEONS0_12NativeHandleEm = 0x000000000025f310 + __sdk_start;
_ZNK7android21SurfaceComposerClient9initCheckEv = 0x000000000002a750 + __sdk_start;
__gnu_h2f_ieee = 0x00000000004ff150 + __sdk_start;
FDKaalloc_L = 0x0000000000171f20 + __sdk_start;
_ZN2nn3err14SystemErrorArgC2ENS0_9ErrorCodeEPKcS4_RKNS_8settings12LanguageCodeE = 0x0000000000196560 + __sdk_start;
_ZN2nn3mii6detail12StoreDataRaw17BuildWithCoreDataEPNS1_11UtilityImplERKNS1_11CoreDataRawE = 0x00000000002ea480 + __sdk_start;
_ZN2nn2sf4cmif6client6detail13CmifProxyImplINS_8settings22IFactorySettingsServerENS0_4hipc6client18Hipc2ProxyKindBaseILNS7_6detail11MessageTypeE6EEENS0_30MemoryResourceAllocationPolicyES6_NS3_19ProcessModifierImplINS2_21DefaultProxyFilterTagEEEE27_nn_sf_sync_GetEciDeviceKeyENS0_3OutINS5_7factory16EccB233DeviceKeyEvEE = 0x00000000003518b0 + __sdk_start;
_ZNK2nn4bcat21DeliveryCacheProgress9GetStatusEv = 0x00000000000c1ca0 + __sdk_start;
_ZN2nn8irsensor6detail14SessionManagerC2Ev = 0x000000000029cbc0 + __sdk_start;
_ZNK7android6Parcel24readParcelFileDescriptorERi = 0x000000000000ab80 + __sdk_start;
_ZTIN2nn7account3nas21IAuthorizationRequestE = 0x0000000000bbdda0 + __sdk_start;
nnutilZlib_crc32_z = 0x000000000038c320 + __sdk_start;
_ZN2nn2sf4cmif6client6detail13CmifProxyImplINS_2am7service17IOverlayFunctionsENS0_4hipc6client18Hipc2ProxyKindBaseILNS8_6detail11MessageTypeE6EEENS0_30MemoryResourceAllocationPolicyES7_NS3_19ProcessModifierImplINS2_21DefaultProxyFilterTagEEEE46_nn_sf_sync_BeginToWatchShortHomeButtonMessageEv = 0x0000000000073b10 + __sdk_start;
_ZN2nn2sf4cmif6client6detail13CmifProxyImplINS_5visrv2sf21ISystemDisplayServiceENS0_4hipc6client18Hipc2ProxyKindBaseILNS8_6detail11MessageTypeE6EEENS0_30MemoryResourceAllocationPolicyES7_NS3_19ProcessModifierImplINS2_21DefaultProxyFilterTagEEEE33_nn_sf_sync_DisconnectSharedLayerENS_2vi7fbshare17SharedLayerHandleE = 0x00000000003a5d30 + __sdk_start;
_ZN2nn6socket6detail8InetNtopENS0_6FamilyEPKvPcj = 0x000000000036aff0 + __sdk_start;
_ZTIN2nn2sf4cmif6client6detail13CmifProxyImplINS_2am7service25IProcessWindingControllerENS0_4hipc6client18Hipc2ProxyKindBaseILNS8_6detail11MessageTypeE6EEENS0_30MemoryResourceAllocationPolicyES7_NS3_19ProcessModifierImplINS2_21DefaultProxyFilterTagEEEEE = 0x0000000000bc8b00 + __sdk_start;
_ZN2nn5audio3dsp17ApplyUniformGain2ILi23EEEvPiPKiii = 0x00000000000bc150 + __sdk_start;
_ZN2nn6socket8SendMMsgEiPNS0_7MMsgHdrEmNS0_7MsgFlagE = 0x0000000000360800 + __sdk_start;
_ZN2nn2sf4cmif6client6detail13CmifProxyImplINS_2am7service26ILibraryAppletSelfAccessorENS0_4hipc6client18Hipc2ProxyKindBaseILNS8_6detail11MessageTypeE6EEENS0_30MemoryResourceAllocationPolicyES7_NS3_19ProcessModifierImplINS2_21DefaultProxyFilterTagEEEE12GetProxyInfoEv = 0x0000000000071960 + __sdk_start;
_ZN2nn6fontll18ScalableFontEngine8SetScaleEiiii = 0x0000000000199dc0 + __sdk_start;
_ZNSt13runtime_errorC1EPKc = 0x00000000004939a8 + __sdk_start;
_ZN2nn2sf4cmif6client6detail13CmifProxyImplINS_7account4baas24IManagerForSystemServiceENS2_19CmifDomainProxyKindINS0_4hipc6client38Hipc2ClientSessionManagedProxyKindBaseINSA_18Hipc2ProxyKindBaseILNS9_6detail11MessageTypeE6EEEEEEENS0_25StatelessAllocationPolicyINS0_22ExpHeapStaticAllocatorILm2048ENS5_6detail12ObjectHolder24ObjectHolderAllocatorTagEEEEES7_NS3_19ProcessModifierImplINS2_21DefaultProxyFilterTagEEEE42_nn_sf_sync_SetSystemProgramIdentificationERKNS5_27SystemProgramIdentificationEm = 0x00000000000423a0 + __sdk_start;
_ZN2nn5audio16ApplyDelayEffectEPKNS0_14DelayParameterEPNS0_10DelayStateEbPPKiPPii = 0x00000000000b36f0 + __sdk_start;
_ZN2nn2sf4hipc6client24Hipc2ClientCoreProcessorILNS1_6detail11MessageTypeE6ENS0_4cmif6detail14CoreMethodInfoINSt3__15tupleIJNS7_18OutRawArgumentInfoILm24ELm4ELl0EEENS7_17InRawArgumentInfoILm4ELm4ELl4EEENSD_ILm24ELm4ELl8EEENSD_ILm1ELm1ELl0EEENSD_ILm24ELm4ELl32EEENSD_ILm24ELm4ELl56EEENSD_ILm20ELm4ELl80EEEEEELm100ELm24ELb0EEESK_E7ProcessEPNS2_26Hipc2ClientProxyBaseObjectENS6_6client24OutRawClientArgumentTypeILm24ELm4EEENSP_23InRawClientArgumentTypeILm4ELm4EvEENSS_ILm24ELm4EvEENSS_ILm1ELm1EvEESU_SU_NSS_ILm20ELm4EvEEj = 0x00000000000c9940 + __sdk_start;
_ZN2nn5codec25BindOpusEncoderCodingModeEPNS0_15OpusEncoderTypeENS0_14OpusCodingModeE = 0x000000000011ead0 + __sdk_start;
_ZN2nn3web19ShowYouTubeVideoArgC2Ev = 0x00000000003b55c0 + __sdk_start;
_ZNSt3__111__call_onceERVmPvPFvS2_E = 0x0000000000492a88 + __sdk_start;
_ZN2nn4lmem6detail16DestroyFrameHeapEPNS1_8HeapHeadE = 0x00000000002bcfa0 + __sdk_start;
nnmem_nlib_thread_create = 0x00000000002d3070 + __sdk_start;
_ZN2nn2sf4cmif6server23CmifServerDomainManager14EntryAllocatorC2EPNSt3__115aligned_storageILm48ELm8EE4typeEi = 0x0000000000354e90 + __sdk_start;
_ZN2nn2sf4cmif6client6detail13CmifProxyImplINS_7account6detail13IAsyncContextENS2_19CmifDomainProxyKindINS0_4hipc6client38Hipc2ClientSessionManagedProxyKindBaseINSA_18Hipc2ProxyKindBaseILNS9_6detail11MessageTypeE6EEEEEEENS0_30MemoryResourceAllocationPolicyES7_NS3_19ProcessModifierImplINS2_21DefaultProxyFilterTagEEEE19_nn_sf_sync_HasDoneENS0_3OutIbvEE = 0x0000000000049560 + __sdk_start;
_ZN2nn4pctl34SynchronizeParentalControlSettingsEPNS_4time9PosixTimeE = 0x0000000000331a00 + __sdk_start;
_ZN2nn2sf4cmif6client6detail13CmifProxyImplINS_3ssl2sf11ISslContextENS2_19CmifDomainProxyKindINS0_4hipc6client38Hipc2ClientSessionManagedProxyKindBaseINSA_18Hipc2ProxyKindBaseILNS9_6detail11MessageTypeE6EEEEEEENS0_24StatefulAllocationPolicyINS0_16ExpHeapAllocatorEEES7_NS3_19ProcessModifierImplINS2_21DefaultProxyFilterTagEEEE27_nn_sf_sync_RemoveServerPkiEm = 0x000000000037c730 + __sdk_start;
_ZN2nn3ldn6detail15ConvertToStringERKNS0_4SsidEPcm = 0x00000000002b6e90 + __sdk_start;
_ZN2nn3nfc6client25GetUserInterfaceForCommonEv = 0x00000000002fa1d0 + __sdk_start;
_ZN2nn3hid15VibrationTargetC2ERKNS0_21VibrationDeviceHandleE = 0x000000000024dd90 + __sdk_start;
_ZN7android12ConsumerBase15addReleaseFenceEiNS_2spINS_13GraphicBufferEEERKNS1_INS_5FenceEEE = 0x000000000001c2b0 + __sdk_start;
_ZN2nn2sf4cmif6client34CmifDomainProxyClientCoreProcessorINS0_4hipc6client38Hipc2ClientSessionManagedProxyKindBaseINS5_18Hipc2ProxyKindBaseILNS4_6detail11MessageTypeE6EEEEENS1_6detail14CoreMethodInfoINSt3__15tupleIJNSC_18BufferArgumentInfoILi0ELi6ELm0EEEEEELm0ELm0ELb0EEESI_E7ProcessEPNS2_23CmifDomainClientMessageISB_E15ProxyBaseObjectENS2_24BufferClientArgumentTypeEj = 0x00000000002023d0 + __sdk_start;
_ZN2nn2sf4hipc6server24HipcServerSessionManager31RegisterServerSessionToWaitBaseEPNS2_21HipcServerSessionBaseE = 0x000000000035bb90 + __sdk_start;
_ZN2nn3ngc6detail18GetLanguageSettingEb = 0x0000000000306690 + __sdk_start;
_ZN2nn3hid6detail29GetNpadHandheldActivationModeEPNS0_26NpadHandheldActivationModeE = 0x0000000000232e80 + __sdk_start;
_ZN2nn6socket8resolver3tls6Client22GetCurrentHErrorStringEv = 0x00000000003758b0 + __sdk_start;
_ZTIN2nn2sf4cmif6client6detail13CmifProxyImplINS_2am7service13ILockAccessorENS2_19CmifDomainProxyKindINS0_4hipc6client38Hipc2ClientSessionManagedProxyKindBaseINSA_18Hipc2ProxyKindBaseILNS9_6detail11MessageTypeE6EEEEEEENS0_30MemoryResourceAllocationPolicyES7_NS3_19ProcessModifierImplINS2_21DefaultProxyFilterTagEEEEE = 0x0000000000bc4100 + __sdk_start;
sbrDecoder_drcDisable = 0x000000000016eeb0 + __sdk_start;
_ZN2nn5audio26GetAuxLimiterAttackTimeMaxEPKNS0_14AuxLimiterTypeE = 0x0000000000080c80 + __sdk_start;
_ZN2nn5audio27InitializeI3dl2ReverbEffectEPKNS0_20I3dl2ReverbParameterEPNS0_16I3dl2ReverbStateEPv = 0x00000000000b9830 + __sdk_start;
_ZN2nn2lm6detail24LogPacketTransmitterBaseC1EPvmPFbPKhmEhhmbb = 0x00000000002b99d0 + __sdk_start;
nnmem_nlib_strto_float_fallback = 0x00000000002ce8d0 + __sdk_start;
_ZN2nn2fs23RegisterUpdatePartitionEv = 0x0000000000211980 + __sdk_start;
NvOsSnprintf = 0x00000000003c41b0 + __sdk_start;
_ZTVN2nn2fs17FileHandleStorageE = 0x0000000000bd35f8 + __sdk_start;
_ZN2nn7friends14FriendPresenceC1Ev = 0x00000000001dbf70 + __sdk_start;
_ZN2nn2sf6detail38ObjectImplFactoryWithStatefulAllocatorINS0_4cmif6client6detail9CmifProxyINS_2am7service8IStorageENS0_4hipc6client18Hipc2ProxyKindBaseILNSA_6detail11MessageTypeE6EEENS0_30MemoryResourceAllocationPolicyENS5_19ProcessModifierImplINS4_21DefaultProxyFilterTagEEEvEESG_E6Object12AddReferenceEv = 0x000000000006b150 + __sdk_start;
_ZTIN2nn2sf4cmif6client6detail9CmifProxyINS_5visrv2sf22IManagerDisplayServiceENS0_4hipc6client18Hipc2ProxyKindBaseILNS8_6detail11MessageTypeE6EEENS0_30MemoryResourceAllocationPolicyENS3_19ProcessModifierImplINS2_21DefaultProxyFilterTagEEEvEE = 0x0000000000be5b90 + __sdk_start;
_ZN2nn5audio33GetOscMessageNextArgumentAsDoubleEPNS0_14OscMessageTypeE = 0x0000000000086860 + __sdk_start;
_ZN2nn5audio6server16CommandGenerator25GenerateDeviceSinkCommandEiPNS1_12SinkInfoBaseE = 0x00000000000a4890 + __sdk_start;
_ZN2nn2sf4hipc6client24Hipc2ClientCoreProcessorILNS1_6detail11MessageTypeE6ENS0_4cmif6detail14CoreMethodInfoINSt3__15tupleIJNS7_18OutRawArgumentInfoILm1ELm1ELl0EEENS7_17InRawArgumentInfoILm1ELm1ELl0EEEEEELm1ELm1ELb0EEESF_E7ProcessEPNS2_26Hipc2ClientProxyBaseObjectENS6_6client24OutRawClientArgumentTypeILm1ELm1EEENSK_23InRawClientArgumentTypeILm1ELm1EvEEj = 0x00000000002f6f20 + __sdk_start;
nvdcQueryDisplays = 0x00000000003b7dd0 + __sdk_start;
NvOsTlsAllocWithDestructor = 0x00000000003c36a0 + __sdk_start;
_ZN7android7String85clearEv = 0x00000000000354d0 + __sdk_start;
_ZN2nn5image11ExifBuilderC2EPvm = 0x0000000000295a10 + __sdk_start;
_ZN2nn5audio6common11DumpCommandEPKNS0_22DownMix6chTo2chCommandE = 0x00000000000aec80 + __sdk_start;
_ZN2nn3btm4user23GetGattIncludedServicesEPNS1_11GattServiceEhjt = 0x00000000000d1bf0 + __sdk_start;
unw_local_addr_space = 0x0000000000bfaa80 + __sdk_start;
getwc_unlocked = 0x00000000004f2560 + __sdk_start;
_ZN2nn2sf4cmif6client6detail13CmifProxyImplINS_7account4baas24IManagerForSystemServiceENS2_19CmifDomainProxyKindINS0_4hipc6client38Hipc2ClientSessionManagedProxyKindBaseINSA_18Hipc2ProxyKindBaseILNS9_6detail11MessageTypeE6EEEEEEENS0_25StatelessAllocationPolicyINS0_22ExpHeapStaticAllocatorILm2048ENS5_6detail12ObjectHolder24ObjectHolderAllocatorTagEEEEES7_NS3_19ProcessModifierImplINS2_21DefaultProxyFilterTagEEEE47_nn_sf_sync_GetNintendoAccountUserResourceCacheENS0_3OutINS5_17NintendoAccountIdEvEENST_INS5_3nas11NasUserBaseEvEERKNS0_9OutBufferE = 0x00000000000424e0 + __sdk_start;
_ZN2nn7account33ExternalNetworkServiceAccountInfoC2EPNS0_4baas18IGuestLoginRequestE = 0x0000000000049d90 + __sdk_start;
applyLimiter = 0x000000000014ebe0 + __sdk_start;
_ZThn16_N2nn2sf4cmif6client6detail13CmifProxyImplINS_3hid15IAppletResourceENS0_4hipc6client18Hipc2ProxyKindBaseILNS7_6detail11MessageTypeE6EEENS0_25StatelessAllocationPolicyINS0_22ExpHeapStaticAllocatorILm16384ENS5_6detail9HidServerEEEEES6_NS3_19ProcessModifierImplINS2_21DefaultProxyFilterTagEEEE17GetCmifBaseObjectEv = 0x0000000000255da0 + __sdk_start;
_ZN2nn7friends19RejectFriendRequestEPNS0_12AsyncContextERKNS_7account3UidENS0_9RequestIdE = 0x00000000001d8560 + __sdk_start;
_ZNK2nn7friends11BlockedUser11GetNicknameEv = 0x00000000001db100 + __sdk_start;
_ZN2nn3hid6detail18SharedMemoryHolderC1Ev = 0x000000000023a740 + __sdk_start;
_ZN2nn2sf4cmif6client6detail13CmifProxyImplINS_3hid10IHidServerENS0_4hipc6client18Hipc2ProxyKindBaseILNS7_6detail11MessageTypeE6EEENS0_25StatelessAllocationPolicyINS0_22ExpHeapStaticAllocatorILm16384ENS5_6detail9HidServerEEEEES6_NS3_19ProcessModifierImplINS2_21DefaultProxyFilterTagEEEE36_nn_sf_sync_SetNpadCommunicationModeENS_6applet20AppletResourceUserIdEl = 0x0000000000255b50 + __sdk_start;
nnosInitializeMultiWaitHolderForSystemEvent = 0x00000000003293b0 + __sdk_start;
_ZN2nn6socket6detail5IoctlEiNS0_12IoctlCommandEPvm = 0x0000000000369590 + __sdk_start;
_ZN2nn5album26GetAlbumScreenshotFileListEPiPNS0_14AlbumFileEntryEi = 0x000000000004e100 + __sdk_start;
_ZNKSt3__17codecvtIDic11__mbstate_tE16do_always_noconvEv = 0x0000000000488670 + __sdk_start;
_ZN2nn2sf4cmif6client34CmifDomainProxyClientCoreProcessorINS0_4hipc6client38Hipc2ClientSessionManagedProxyKindBaseINS5_18Hipc2ProxyKindBaseILNS4_6detail11MessageTypeE6EEEEENS1_6detail14CoreMethodInfoINSt3__15tupleIJNSC_18OutRawArgumentInfoILm4ELm4ELl0EEENSC_18BufferArgumentInfoILi0ELi6ELm0EEENSC_17InRawArgumentInfoILm16ELm8ELl8EEENSK_ILm4ELm4ELl0EEEEEELm24ELm4ELb0EEESN_E7ProcessEPNS2_23CmifDomainClientMessageISB_E15ProxyBaseObjectENS2_24OutRawClientArgumentTypeILm4ELm4EEENS2_24BufferClientArgumentTypeENS2_23InRawClientArgumentTypeILm16ELm8EvEENSX_ILm4ELm4EvEEj = 0x00000000001e22f0 + __sdk_start;
_ZN2nn4nifm7RequestC1ERKNS0_17RequestParametersE = 0x000000000031a7f0 + __sdk_start;
_ZN2nn3web19ShowYouTubeVideoArgC2EPKc = 0x00000000003b56b0 + __sdk_start;
_ZN2nn6socket8resolver10serializer13DNSSerializer6SizeOfI8addrinfoEEmRKT_ = 0x00000000003614f0 + __sdk_start;
_ZN2nn8settings15GetLanguageCodeEPNS0_12LanguageCodeE = 0x0000000000347ba0 + __sdk_start;
_ZN2nn2sf4cmif6client6detail13CmifProxyImplINS_2am7service18IHomeMenuFunctionsENS2_19CmifDomainProxyKindINS0_4hipc6client38Hipc2ClientSessionManagedProxyKindBaseINSA_18Hipc2ProxyKindBaseILNS9_6detail11MessageTypeE6EEEEEEENS0_30MemoryResourceAllocationPolicyES7_NS3_19ProcessModifierImplINS2_21DefaultProxyFilterTagEEEE33_nn_sf_sync_PopFromGeneralChannelENS0_3OutINS0_13SharedPointerINS6_8IStorageEEEvEE = 0x000000000005da90 + __sdk_start;
_ZNK2nn3mii6detail12StoreDataRaw16GetEyebrowAspectEv = 0x00000000002e9ee0 + __sdk_start;
_ZN2nn4timemiERKNS0_12CalendarTimeERKNS_8TimeSpanE = 0x0000000000384330 + __sdk_start;
_ZN2nn6crypto6detail11XtsModeImplD1Ev = 0x0000000000178a60 + __sdk_start;
_ZTIN2nn4util9IFunctionIFNS_6ResultEmmEEE = 0x0000000000be0810 + __sdk_start;
_ZN2nn9bluetooth14CircularBuffer17DiscardOldPacketsEhi = 0x00000000000ce680 + __sdk_start;
_ZN2nn2sf4cmif6client6detail13CmifProxyImplINS_3hid16IHidSystemServerENS0_4hipc6client18Hipc2ProxyKindBaseILNS7_6detail11MessageTypeE6EEENS0_30MemoryResourceAllocationPolicyES6_NS3_19ProcessModifierImplINS2_21DefaultProxyFilterTagEEEE27_nn_sf_sync_GetNpadsWithNfcENS0_3OutIlvEERKNS0_8OutArrayIjEE = 0x000000000025e470 + __sdk_start;
_ZNK7android10VectorImpl12itemLocationEm = 0x0000000000039420 + __sdk_start;
_ZTVNSt3__112future_errorE = 0x0000000000beb2a0 + __sdk_start;
_ZN2nn2os33AttachReadableHandleToSystemEventEPNS0_15SystemEventTypeEjbNS0_14EventClearModeE = 0x0000000000325a80 + __sdk_start;
_ZN2nn2sf4cmif6client6detail13CmifProxyImplINS_4pctl6detail3ipc23IParentalControlServiceENS2_19CmifDomainProxyKindINS0_4hipc6client38Hipc2ClientSessionManagedProxyKindBaseINSB_18Hipc2ProxyKindBaseILNSA_6detail11MessageTypeE6EEEEEEENS0_30MemoryResourceAllocationPolicyES8_NS3_19ProcessModifierImplINS2_21DefaultProxyFilterTagEEEE36_nn_sf_sync_RetrievePairingInfoAsyncENS0_3OutINS6_9AsyncDataEvEENSO_INS0_12NativeHandleEvEE = 0x0000000000334530 + __sdk_start;
_ZNSt3__115basic_streambufIcNS_11char_traitsIcEEE10pubseekposENS_4fposI11__mbstate_tEEj = 0x0000000000452e10 + __sdk_start;
iscntrl = 0x00000000004d6c50 + __sdk_start;
_ZN2nn3mii6detail11CharInfoRaw19SetFromStoreDataRawERKNS1_12StoreDataRawE = 0x00000000002e2ca0 + __sdk_start;
_ZN2nn2sf4cmif6client6detail13CmifProxyImplINS_5visrv2sf21ISystemDisplayServiceENS0_4hipc6client18Hipc2ProxyKindBaseILNS8_6detail11MessageTypeE6EEENS0_30MemoryResourceAllocationPolicyES7_NS3_19ProcessModifierImplINS2_21DefaultProxyFilterTagEEEE29_nn_sf_sync_GetDisplayCmuLumaENS0_3OutIfvEEm = 0x00000000003a5c50 + __sdk_start;
nnosSetThreadCoreMask = 0x00000000003290a0 + __sdk_start;
_ZN2nn2sf4cmif6client6detail36GetClientProcessorImplWithObjectBaseINS2_19CmifDomainProxyKindINS0_4hipc6client38Hipc2ClientSessionManagedProxyKindBaseINS7_18Hipc2ProxyKindBaseILNS6_6detail11MessageTypeE6EEEEEEENS3_19ProcessModifierImplINS2_21DefaultProxyFilterTagEEEE14ObjectAssignerINS0_30MemoryResourceAllocationPolicyENS_14MemoryResourceEE14AllocateObjectINS_4bcat6detail3ipc12IBcatServiceEEEvi = 0x00000000000c3420 + __sdk_start;
__subsf3 = 0x0000000000501630 + __sdk_start;
_ZTVN2nn2sf6detail39ObjectImplFactoryWithStatelessAllocatorINS0_4cmif6client6detail9CmifProxyINS_7account4baas22IManagerForApplicationENS4_19CmifDomainProxyKindINS0_4hipc6client38Hipc2ClientSessionManagedProxyKindBaseINSC_18Hipc2ProxyKindBaseILNSB_6detail11MessageTypeE6EEEEEEENS0_25StatelessAllocationPolicyINS0_22ExpHeapStaticAllocatorILm2048ENS7_6detail12ObjectHolder24ObjectHolderAllocatorTagEEEEENS5_19ProcessModifierImplINS4_21DefaultProxyFilterTagEEEvEESQ_E6ObjectE = 0x0000000000bbda38 + __sdk_start;
nncodecLibopus_ec_dec_uint = 0x00000000000e89f0 + __sdk_start;
_ZN2nn3hid19GetJoyXpadLeftStateEPNS0_12JoyXpadStateERKNS0_9JoyXpadIdE = 0x0000000000244f80 + __sdk_start;
_ZN2nn2sf4cmif6client6detail13CmifProxyImplINS_3hid10IHidServerENS0_4hipc6client18Hipc2ProxyKindBaseILNS7_6detail11MessageTypeE6EEENS0_25StatelessAllocationPolicyINS0_22ExpHeapStaticAllocatorILm16384ENS5_6detail9HidServerEEEEES6_NS3_19ProcessModifierImplINS2_21DefaultProxyFilterTagEEEE38_nn_sf_sync_ActivateSevenSixAxisSensorENS_6applet20AppletResourceUserIdE = 0x00000000002554e0 + __sdk_start;
_ZN2nn5codec15mul_dbl_sgl_rndEis = 0x0000000000140e60 + __sdk_start;
nnutilZlib_inflate_table = 0x0000000000395800 + __sdk_start;
_ZN2nn2sf4cmif6client6detail13CmifProxyImplINS_2am7service21IApplicationFunctionsENS0_4hipc6client18Hipc2ProxyKindBaseILNS8_6detail11MessageTypeE6EEENS0_30MemoryResourceAllocationPolicyES7_NS3_19ProcessModifierImplINS2_21DefaultProxyFilterTagEEEE53_nn_sf_sync_InitializeApplicationCopyrightFrameBufferEONS0_12NativeHandleEmii = 0x0000000000074b10 + __sdk_start;
_ZN2nn2sf6detail38ObjectImplFactoryWithStatefulAllocatorINS0_4cmif6client6detail9CmifProxyINS_3mii6detail16IDatabaseServiceENS4_19CmifDomainProxyKindINS0_4hipc6client38Hipc2ClientSessionManagedProxyKindBaseINSC_18Hipc2ProxyKindBaseILNSB_6detail11MessageTypeE6EEEEEEENS0_30MemoryResourceAllocationPolicyENS5_19ProcessModifierImplINS4_21DefaultProxyFilterTagEEEvEESK_E6Object7ReleaseEv = 0x00000000002f4e40 + __sdk_start;
_ZN2nn4nifm6detail13RequestClient15GetRequestStateEv = 0x0000000000313130 + __sdk_start;
_ZN2nn2sf4cmif6client6detail13CmifProxyImplINS_5visrv2sf22IManagerDisplayServiceENS0_4hipc6client18Hipc2ProxyKindBaseILNS8_6detail11MessageTypeE6EEENS0_30MemoryResourceAllocationPolicyES7_NS3_19ProcessModifierImplINS2_21DefaultProxyFilterTagEEEE29_nn_sf_sync_CreateSharedLayerENS0_3OutINS_2vi7fbshare17SharedLayerHandleEvEENS_6applet20AppletResourceUserIdE = 0x00000000003a7840 + __sdk_start;
_Unwind_ForcedUnwind = 0x000000000050f110 + __sdk_start;
_ZN2nn2sf4cmif6client6detail13CmifProxyImplINS_7friends6detail3ipc14IFriendServiceENS2_19CmifDomainProxyKindINS0_4hipc6client38Hipc2ClientSessionManagedProxyKindBaseINSB_18Hipc2ProxyKindBaseILNSA_6detail11MessageTypeE6EEEEEEENS0_30MemoryResourceAllocationPolicyES8_NS3_19ProcessModifierImplINS2_21DefaultProxyFilterTagEEEE24_nn_sf_sync_ClearPlayLogERKNS_7account3UidE = 0x00000000001dfc00 + __sdk_start;
_ZNSt3__113basic_istreamIwNS_11char_traitsIwEEE4syncEv = 0x0000000000458eb8 + __sdk_start;
_ZN2nn5image11ExifBuilder14SetOrientationENS0_15ExifOrientationE = 0x0000000000295a80 + __sdk_start;
_ZN2nn2fs23IsAccessFailureDetectedEm = 0x00000000001f4a60 + __sdk_start;
_ZN2nn2la21CommonArgumentsWriter12SetLaVersionEj = 0x00000000002b5480 + __sdk_start;
_ZN2nn2sf4cmif6client6detail13CmifProxyImplINS_3mii6detail16IDatabaseServiceENS2_19CmifDomainProxyKindINS0_4hipc6client38Hipc2ClientSessionManagedProxyKindBaseINSA_18Hipc2ProxyKindBaseILNS9_6detail11MessageTypeE6EEEEEEENS0_30MemoryResourceAllocationPolicyES7_NS3_19ProcessModifierImplINS2_21DefaultProxyFilterTagEEEE25_nn_sf_sync_UpdateLatest1ENS0_3OutINS5_9StoreDataEvEERKSO_i = 0x00000000002f50c0 + __sdk_start;
_ZN2nn3ldn16CloseAccessPointEv = 0x00000000002b6310 + __sdk_start;
__cxa_get_globals = 0x00000000004b46a8 + __sdk_start;
__lesf2 = 0x00000000004fd6e0 + __sdk_start;
_ZNK2nn4util17BinaryBlockHeader13FindNextBlockEi = 0x0000000000398970 + __sdk_start;
_ZN2nn2os6detail13MultiWaitImpl19InternalWaitAnyImplEbNS_8TimeSpanE = 0x000000000032b440 + __sdk_start;
_ZN2nn2sf4hipc6client24Hipc2ClientCoreProcessorILNS1_6detail11MessageTypeE6ENS0_4cmif6detail14CoreMethodInfoINSt3__15tupleIJNS7_18BufferArgumentInfoILi0ELi5ELm0EEENS7_18OutRawArgumentInfoILm4ELm4ELl0EEEEEELm0ELm4ELb0EEESF_E7ProcessEPNS2_26Hipc2ClientProxyBaseObjectENS6_6client24BufferClientArgumentTypeENSK_24OutRawClientArgumentTypeILm4ELm4EEEj = 0x0000000000094b00 + __sdk_start;
_ZN2nn5audio6server38CommandProcessingTimeEstimatorVersion18EstimateERKNS0_10AuxCommandE = 0x00000000000a4c90 + __sdk_start;
_ZN2nn5audio6server7MixInfoC2EPiiRKNS1_12BehaviorInfoE = 0x00000000000a93f0 + __sdk_start;
_ZN2nn2sf4cmif6client6detail13CmifProxyImplINS_3nim6detail24IShopServiceAccessServerENS0_4hipc6client18Hipc2ProxyKindBaseILNS8_6detail11MessageTypeE6EEENS0_30MemoryResourceAllocationPolicyES7_NS3_19ProcessModifierImplINS2_21DefaultProxyFilterTagEEEE35_nn_sf_sync_CreateAccessorInterfaceENS0_3OutINS0_13SharedPointerINS6_20IShopServiceAccessorEEEvEEh = 0x000000000018baa0 + __sdk_start;
_ZN2nn3hid6detail28SetTouchScreenAutoPilotStateILm10EEENS_6ResultERKNS0_5debug25TouchScreenAutoPilotStateIXT_EEE = 0x000000000023e330 + __sdk_start;
cabsf = 0x00000000004cc770 + __sdk_start;
_ZN2nn2fs23ScopedAutoAbortDisablerC2Ev = 0x00000000001e6930 + __sdk_start;
_ZN2nn5audio3dsp9ApplyMix4ILi15EEEvPiPKiii = 0x00000000000bad30 + __sdk_start;
_ZN2nn2lm6detail15LogPacketHeader11SetThreadIdEm = 0x00000000002b9770 + __sdk_start;
_ZN2nn2sf4cmif6client34CmifDomainProxyClientCoreProcessorINS0_4hipc6client38Hipc2ClientSessionManagedProxyKindBaseINS5_18Hipc2ProxyKindBaseILNS4_6detail11MessageTypeE6EEEEENS1_6detail14CoreMethodInfoINSt3__15tupleIJNSC_18OutRawArgumentInfoILm4ELm4ELl0EEENSC_17InRawArgumentInfoILm4ELm4ELl0EEEEEELm4ELm4ELb0EEESK_E7ProcessEPNS2_23CmifDomainClientMessageISB_E15ProxyBaseObjectENS2_24OutRawClientArgumentTypeILm4ELm4EEENS2_23InRawClientArgumentTypeILm4ELm4EvEEj = 0x00000000002f5340 + __sdk_start;
_ZN2nn2sf4cmif6client34CmifDomainProxyClientCoreProcessorINS0_4hipc6client38Hipc2ClientSessionManagedProxyKindBaseINS5_18Hipc2ProxyKindBaseILNS4_6detail11MessageTypeE6EEEEENS1_6detail14CoreMethodInfoINSt3__15tupleIJNSC_18OutRawArgumentInfoILm4ELm4ELl0EEENSG_ILm4ELm4ELl4EEENSC_17InRawArgumentInfoILm4ELm4ELl0EEENSC_18BufferArgumentInfoILi0ELi33ELm0EEEEEELm4ELm8ELb0EEESN_E7ProcessEPNS2_23CmifDomainClientMessageISB_E15ProxyBaseObjectENS2_24OutRawClientArgumentTypeILm4ELm4EEESV_NS2_23InRawClientArgumentTypeILm4ELm4EvEENS2_24BufferClientArgumentTypeEj = 0x0000000000371160 + __sdk_start;
_ZN2nn5swkbd13SetOkTextUtf8EPNS0_14KeyboardConfigEPKc = 0x000000000037fdb0 + __sdk_start;
_ZN2nv16FinalizeGraphicsEv = 0x00000000003c4fe0 + __sdk_start;
_ZdlPvSt11align_val_tRKSt9nothrow_t = 0x0000000000492de0 + __sdk_start;
__udivmodsi4 = 0x0000000000501de8 + __sdk_start;
_ZTIN2nn2sf6detail38ObjectImplFactoryWithStatefulAllocatorINS0_4cmif6client6detail9CmifProxyINS_4nifm6detail12IScanRequestENS4_19CmifDomainProxyKindINS0_4hipc6client38Hipc2ClientSessionManagedProxyKindBaseINSC_18Hipc2ProxyKindBaseILNSB_6detail11MessageTypeE6EEEEEEENS0_30MemoryResourceAllocationPolicyENS5_19ProcessModifierImplINS4_21DefaultProxyFilterTagEEEvEESK_E6ObjectE = 0x0000000000bde140 + __sdk_start;
_ZN2nn2sf4cmif6client6detail13CmifProxyImplINS_5visrv2sf26IApplicationDisplayServiceENS0_4hipc6client18Hipc2ProxyKindBaseILNS8_6detail11MessageTypeE6EEENS0_30MemoryResourceAllocationPolicyES7_NS3_19ProcessModifierImplINS2_21DefaultProxyFilterTagEEEE36_nn_sf_sync_GetIndirectLayerImageMapENS0_3OutIlvEESK_RKNS0_9OutBufferEllmNS_6applet20AppletResourceUserIdE = 0x00000000003a5510 + __sdk_start;
csin = 0x00000000004cdbb8 + __sdk_start;
_ZN2nn2fs19MountSystemSaveDataEPKcmNS0_6UserIdE = 0x000000000021c920 + __sdk_start;
_ZN2nn4lmem6detail17SetExpHeapGroupIdEPNS1_8HeapHeadEt = 0x00000000002bc810 + __sdk_start;
_ZTIN2nn2ro6detail12IRoInterfaceE = 0x0000000000be0720 + __sdk_start;
_ZN2nn2sf4hipc6client24Hipc2ClientCoreProcessorILNS1_6detail11MessageTypeE6ENS0_4cmif6detail14CoreMethodInfoINSt3__15tupleIJNS7_17InRawArgumentInfoILm8ELm8ELl48EEENSB_ILm1ELm1ELl0EEENSB_ILm20ELm4ELl4EEENSB_ILm20ELm4ELl24EEENS7_18BufferArgumentInfoILi0ELi9ELm0EEENSB_ILm1ELm1ELl1EEEEEELm56ELm0ELb1EEESJ_E7ProcessEPNS2_26Hipc2ClientProxyBaseObjectENS6_6client23InRawClientArgumentTypeILm8ELm8EvEENSP_ILm1ELm1EvEENSP_ILm20ELm4EvEESS_NSO_24BufferClientArgumentTypeESR_j = 0x00000000000cd700 + __sdk_start;
_ZN2nn3grc14OpenMovieLayerEPPNS0_10MovieLayerEmii = 0x000000000022a140 + __sdk_start;
_ZN2nn3hid5debug6detail36GetAvailableFirmwareVersionForRevertEPNS0_6system15FirmwareVersionENS3_11UniquePadIdE = 0x000000000022dba0 + __sdk_start;
__cos = 0x00000000004e4b48 + __sdk_start;
_ZN2nn2sf4cmif6client6detail13CmifProxyImplINS_7friends6detail3ipc28IDaemonSuspendSessionServiceENS2_19CmifDomainProxyKindINS0_4hipc6client38Hipc2ClientSessionManagedProxyKindBaseINSB_18Hipc2ProxyKindBaseILNSA_6detail11MessageTypeE6EEEEEEENS0_30MemoryResourceAllocationPolicyES8_NS3_19ProcessModifierImplINS2_21DefaultProxyFilterTagEEEE17GetCmifBaseObjectEv = 0x00000000001e4b70 + __sdk_start;
_ZN2nn8irsensor6detail13StatusManager20AllocatePointingLifoERKNS0_14IrCameraHandleE = 0x0000000000299aa0 + __sdk_start;
__cxa_current_primary_exception = 0x00000000004b79f0 + __sdk_start;
__cxa_guard_release = 0x00000000004b48a0 + __sdk_start;
_ZN2nn4lmem12SetFillValueENS0_8FillTypeEj = 0x00000000002bb050 + __sdk_start;
_ZN2nn8settings6detail20GetXpadGenericPadMapEPNS0_22BasicXpadGenericPadMapEi = 0x0000000000353820 + __sdk_start;
cabsl = 0x00000000004cc778 + __sdk_start;
_ZTIN2nn2sf4cmif6client6detail9CmifProxyINS_3apm8IManagerENS0_4hipc6client18Hipc2ProxyKindBaseILNS7_6detail11MessageTypeE6EEENS0_30MemoryResourceAllocationPolicyENS3_19ProcessModifierImplINS2_21DefaultProxyFilterTagEEEvEE = 0x0000000000bcac40 + __sdk_start;
_ZNK2nn7friends16SnsAccountFriend7GetTypeEv = 0x00000000001dcfa0 + __sdk_start;
_ZN2nn2vi6detail18IndirectLayerTableD2Ev = 0x00000000003af6c0 + __sdk_start;
_ZN2nn3hid15VibrationTarget24GetVibrationDeviceHandleEv = 0x000000000024df50 + __sdk_start;
_ZN2nn2fs6detail29DirectoryServiceObjectAdapter15DoGetEntryCountEPl = 0x000000000020bc30 + __sdk_start;
_ZN2nn4time6detail7service21ServiceProviderClientC1Ev = 0x0000000000387390 + __sdk_start;
_ZN2nn2sf4cmif6client6detail13CmifProxyImplINS_6grcsrv17IGameMovieTrimmerENS0_4hipc6client18Hipc2ProxyKindBaseILNS7_6detail11MessageTypeE6EEENS0_30MemoryResourceAllocationPolicyES6_NS3_19ProcessModifierImplINS2_21DefaultProxyFilterTagEEEE21_nn_sf_sync_BeginTrimERKNS5_11GameMovieIdEii = 0x0000000000072870 + __sdk_start;
_ZN2nn5audio6server22PerformanceManagerImplINS1_33PerformanceManagerImplVersion2TagENS0_6common30PerformanceFrameHeaderVersion2ENS4_24PerformanceEntryVersion2ENS4_25PerformanceDetailVersion2ENS0_20PerformanceSysDetailEE13CopyHistoriesEPvm = 0x00000000000a7650 + __sdk_start;
_ZN2nn2sf4cmif6client34CmifDomainProxyClientCoreProcessorINS0_4hipc6client38Hipc2ClientSessionManagedProxyKindBaseINS5_18Hipc2ProxyKindBaseILNS4_6detail11MessageTypeE6EEEEENS1_6detail14CoreMethodInfoINSt3__15tupleIJNSC_18BufferArgumentInfoILi0ELi25ELm769EEENSG_ILi1ELi25ELm769EEEEEELm0ELm0ELb0EEESJ_E7ProcessEPNS2_23CmifDomainClientMessageISB_E15ProxyBaseObjectENS2_24BufferClientArgumentTypeESQ_j = 0x00000000001fc990 + __sdk_start;
_ZN2nn2fs44OpenSaveDataTransferProhibiterForCloudBackUpEPNSt3__110unique_ptrINS0_40SaveDataTransferProhibiterForCloudBackUpENS1_14default_deleteIS3_EEEENS_3ncm13ApplicationIdE = 0x000000000021e6f0 + __sdk_start;
_ZN2nn2ec22ShowShopEnterCodeSceneERKNS_7account10UserHandleE = 0x00000000001898f0 + __sdk_start;
_ZN2nn2sf4cmif6client6detail13CmifProxyImplINS_3ntc6detail7service38IEnsureNetworkClockAvailabilityServiceENS0_4hipc6client18Hipc2ProxyKindBaseILNS9_6detail11MessageTypeE6EEENS0_30MemoryResourceAllocationPolicyES8_NS3_19ProcessModifierImplINS2_21DefaultProxyFilterTagEEEE24_nn_sf_sync_IsProcessingENS0_3OutIbvEE = 0x000000000038ba30 + __sdk_start;
_ZN2nn3hid6detail15InitializePalmaERKNS0_21PalmaConnectionHandleE = 0x0000000000238210 + __sdk_start;
_ZN7android8String16C1ERKS0_mm = 0x0000000000033e60 + __sdk_start;
_ZNKSt3__18time_getIcNS_19istreambuf_iteratorIcNS_11char_traitsIcEEEEE16do_get_monthnameES4_S4_RNS_8ios_baseERjP2tm = 0x000000000046c908 + __sdk_start;
_ZN2nn2vi6detail18SystemServiceProxyC1Ev = 0x00000000003af570 + __sdk_start;
_ZN2nn3web22ShowOfflineHtmlPageArg24OverrideMediaAudioVolumeEf = 0x00000000003b2a20 + __sdk_start;
_ZN2nn8irsensor6detail28GetClusteringProcessorStatesEPNS0_24ClusteringProcessorStateEPiiRKNS0_14IrCameraHandleE = 0x0000000000297fa0 + __sdk_start;
hdcp_enable = 0x00000000003ba720 + __sdk_start;
_ZN2nn2sf4cmif6server22CmifDomainServerObject14ProcessMessageEPNS0_14IServiceObjectEPNS2_17CmifServerMessageERKNS0_6detail14PointerAndSizeE = 0x00000000003599f0 + __sdk_start;
_ZN7android10VectorImpl9replaceAtEPKvm = 0x0000000000038fd0 + __sdk_start;
_ZN2nn5codec20aStateConstant2StateE = 0x0000000000bd0ea8 + __sdk_start;
_ZN2nn8settings25GetAvailableLanguageCodesEPNS0_12LanguageCodeEi = 0x0000000000347bf0 + __sdk_start;
_ZN4nerd11Butterworth6Apply2EPKsPsmm = 0x000000000024f4f0 + __sdk_start;
_ZN2nn4util10SdkVersionEv = 0x000000000039cd40 + __sdk_start;
_ZTIN2nn2sf13InterfaceInfoINS_5audio6detail12IAudioDeviceEE4_tABINS5_5_tO2NINS2_6server24AudioRendererManagerImpl15AudioDeviceImplEE4typeES4_E4typeE = 0x0000000000bcce90 + __sdk_start;
_ZN2nn3hid6system18EnableHandheldHidsEv = 0x0000000000244560 + __sdk_start;
_ZN2nn2os6detail36GetWritableHandleOfInterProcessEventEPKNS1_21InterProcessEventTypeE = 0x0000000000329970 + __sdk_start;
_ZN2nn3hid25DisableAnyPalmaConnectionEv = 0x0000000000249020 + __sdk_start;
_ZNK2nn6hidbus6detail20ClientResourceHolder19GetSharedMemorySizeEv = 0x000000000025d1f0 + __sdk_start;
_ZN2nn2sf4cmif6client6detail13CmifProxyImplINS_6hidbus13IHidbusServerENS0_4hipc6client18Hipc2ProxyKindBaseILNS7_6detail11MessageTypeE6EEENS0_25StatelessAllocationPolicyINS0_22ExpHeapStaticAllocatorILm16384ENS5_6server12HidbusServerEEEEES6_NS3_19ProcessModifierImplINS2_21DefaultProxyFilterTagEEEE38_nn_sf_sync_GetSendCommandAsynceResultENS0_3OutIjvEERKNS0_9OutBufferENS5_9BusHandleE = 0x000000000025d760 + __sdk_start;
_ZN2nn2sf4cmif6client6detail13CmifProxyImplINS_4nifm6detail12IScanRequestENS2_19CmifDomainProxyKindINS0_4hipc6client38Hipc2ClientSessionManagedProxyKindBaseINSA_18Hipc2ProxyKindBaseILNS9_6detail11MessageTypeE6EEEEEEENS0_30MemoryResourceAllocationPolicyES7_NS3_19ProcessModifierImplINS2_21DefaultProxyFilterTagEEEE40_nn_sf_sync_GetSystemEventReadableHandleENS0_3OutINS0_12NativeHandleEvEE = 0x00000000003154a0 + __sdk_start;
NvRmSyncCalculateSizeForInplaceSyncpoints = 0x00000000003d0740 + __sdk_start;
_ZNSt3__119__shared_weak_countD1Ev = 0x0000000000492120 + __sdk_start;
__nnmusl_pthread_rwlock_unlock = 0x00000000005089b0 + __sdk_start;
_ZTIN2nn5audio6server8SinkInfoINS0_6common23CircularBufferParameterENS1_23CircularBufferSinkStateEEE = 0x0000000000bcd950 + __sdk_start;
_ZN2nn2vi6detail17IndirectLayerImpl27UnregisterIndirectLayerImplEPNS0_13IndirectLayerEPNS1_18IndirectLayerTableE = 0x00000000003aef70 + __sdk_start;
_ZThn8_N7android12BnMemoryHeap10onTransactEjRKNS_6ParcelEPS1_j = 0x00000000000039b0 + __sdk_start;
_ZN7android21SurfaceComposerClient14setContentTypeERKNS_2spINS_7IBinderEEEi = 0x000000000002c130 + __sdk_start;
_ZN2nn2sf4cmif6client6detail13CmifProxyImplINS_2am7service25IProcessWindingControllerENS2_19CmifDomainProxyKindINS0_4hipc6client38Hipc2ClientSessionManagedProxyKindBaseINSA_18Hipc2ProxyKindBaseILNS9_6detail11MessageTypeE6EEEEEEENS0_30MemoryResourceAllocationPolicyES7_NS3_19ProcessModifierImplINS2_21DefaultProxyFilterTagEEEE27_nn_sf_sync_GetLaunchReasonENS0_3OutINS6_25AppletProcessLaunchReasonEvEE = 0x000000000005c5c0 + __sdk_start;
_ZNK2nn2sf13SharedPointerINS_4nifm6detail15IGeneralServiceEE19FunctionForBoolTypeEv = 0x00000000003188d0 + __sdk_start;
__atomic_fetch_and_1 = 0x0000000000503bb8 + __sdk_start;
_ZN2nn8settings6detail16SetNfcEnableFlagEb = 0x000000000034e0b0 + __sdk_start;
__atomic_fetch_and_2 = 0x0000000000503c40 + __sdk_start;
_ZN2nn2sf4cmif6client6detail13CmifProxyImplINS_3hid16IHidSystemServerENS0_4hipc6client18Hipc2ProxyKindBaseILNS7_6detail11MessageTypeE6EEENS0_30MemoryResourceAllocationPolicyES6_NS3_19ProcessModifierImplINS2_21DefaultProxyFilterTagEEEE45_nn_sf_sync_AcquireNfcDeviceUpdateEventHandleENS0_3OutINS0_12NativeHandleEvEE = 0x000000000025e450 + __sdk_start;
_ZN2nn2sf4cmif6client6detail13CmifProxyImplINS_6hidbus13IHidbusServerENS0_4hipc6client18Hipc2ProxyKindBaseILNS7_6detail11MessageTypeE6EEENS0_25StatelessAllocationPolicyINS0_22ExpHeapStaticAllocatorILm16384ENS5_6server12HidbusServerEEEEES6_NS3_19ProcessModifierImplINS2_21DefaultProxyFilterTagEEEE37_nn_sf_sync_IsExternalDeviceConnectedENS0_3OutIbvEENS5_9BusHandleE = 0x000000000025d680 + __sdk_start;
__atomic_fetch_and_4 = 0x0000000000503cc8 + __sdk_start;
_ZN2nn5image11JpegEncoderC2Ev = 0x0000000000294ff0 + __sdk_start;
_ZTIN2nn2sf4cmif6client6detail13CmifProxyImplINS_2am7service24ITransferStorageAccessorENS2_19CmifDomainProxyKindINS0_4hipc6client38Hipc2ClientSessionManagedProxyKindBaseINSA_18Hipc2ProxyKindBaseILNS9_6detail11MessageTypeE6EEEEEEENS0_30MemoryResourceAllocationPolicyES7_NS3_19ProcessModifierImplINS2_21DefaultProxyFilterTagEEEEE = 0x0000000000bc4830 + __sdk_start;
_ZN2nn2sf4cmif6client6detail13CmifProxyImplINS_3apm8IManagerENS0_4hipc6client18Hipc2ProxyKindBaseILNS7_6detail11MessageTypeE6EEENS0_30MemoryResourceAllocationPolicyES6_NS3_19ProcessModifierImplINS2_21DefaultProxyFilterTagEEEE23_nn_sf_sync_OpenSessionENS0_3OutINS0_13SharedPointerINS5_8ISessionEEEvEE = 0x0000000000079e30 + __sdk_start;
_ZNSt3__114codecvt_bynameIcc11__mbstate_tED2Ev = 0x000000000047c338 + __sdk_start;
_ZN2nn2fs20ResolveAccessFailureEm = 0x00000000001f4c60 + __sdk_start;
_ZN2nn3ngc6detail15CompressedArrayD1Ev = 0x0000000000311230 + __sdk_start;
_ZNK2nn3ngc6detail3Set12GetBitVectorEv = 0x000000000030e990 + __sdk_start;
nnsslContextGetContextId = 0x000000000037b030 + __sdk_start;
_ZTVSt13bad_exception = 0x0000000000bf12e0 + __sdk_start;
_ZN2nn2sf4cmif6client6detail13CmifProxyImplINS_2am7service17IOverlayFunctionsENS0_4hipc6client18Hipc2ProxyKindBaseILNS8_6detail11MessageTypeE6EEENS0_30MemoryResourceAllocationPolicyES7_NS3_19ProcessModifierImplINS2_21DefaultProxyFilterTagEEEE37_nn_sf_sync_SetRequiresGpuResourceUseEb = 0x0000000000073c60 + __sdk_start;
_ZN2nn2sf4cmif6client6detail13CmifProxyImplINS_2am7service30IAllSystemAppletProxiesServiceENS0_4hipc6client18Hipc2ProxyKindBaseILNS8_6detail11MessageTypeE6EEENS0_30MemoryResourceAllocationPolicyES7_NS3_19ProcessModifierImplINS2_21DefaultProxyFilterTagEEEE33_nn_sf_sync_OpenSystemAppletProxyENS0_3OutINS0_13SharedPointerINS6_18ISystemAppletProxyEEEvEEmONS0_12NativeHandleE = 0x00000000000674b0 + __sdk_start;
_ZNK2nn5audio6server9VoiceInfo10ShouldSkipEv = 0x00000000000ac8e0 + __sdk_start;
_ZN2nn2ec19ShopServiceAccessorD1Ev = 0x0000000000189d90 + __sdk_start;
_ZN2nn3mii6detail15BufferAllocator13GetCurrentPtrEv = 0x00000000002e2600 + __sdk_start;
_ZN2nn3mii6detail11UtilityImplC2Ev = 0x00000000002ea8e0 + __sdk_start;
_ZNK2nn7friends6Friend11GetPresenceEv = 0x00000000001db350 + __sdk_start;
_ZN2nn3mii6detail16Ver3StoreDataRaw9SetGenderEi = 0x00000000002f0b40 + __sdk_start;
_ZN2nn2sf6detail38ObjectImplFactoryWithStatefulAllocatorINS0_4cmif6client6detail9CmifProxyINS_4nifm6detail8IRequestENS4_19CmifDomainProxyKindINS0_4hipc6client38Hipc2ClientSessionManagedProxyKindBaseINSC_18Hipc2ProxyKindBaseILNSB_6detail11MessageTypeE6EEEEEEENS0_30MemoryResourceAllocationPolicyENS5_19ProcessModifierImplINS4_21DefaultProxyFilterTagEEEvEESK_E6Object7ReleaseEv = 0x00000000003155d0 + __sdk_start;
__atomic_fetch_and_8 = 0x0000000000503d50 + __sdk_start;
_ZN2nn2fs31SaveDataTransferManagerVersion224OpenSaveDataDiffImporterEPNSt3__110unique_ptrINS0_25ISaveDataDivisionImporterENS2_14default_deleteIS4_EEEERKNS0_19InitialDataVersion2ENS0_15SaveDataSpaceIdEm = 0x000000000021e0c0 + __sdk_start;
nnmem_nlib_ticktime = 0x00000000002d2150 + __sdk_start;
_ZN2nn7account13ProfileEditorC1ERKNS0_3UidEPNS0_7profile14IProfileEditorE = 0x000000000004d880 + __sdk_start;
_ZN2nn8settings6detail19SetShutdownRtcValueEl = 0x000000000034c0a0 + __sdk_start;
_ZN2nn4time39ClaimPeriodicBenefitWithUserSystemClockEPNS0_27PeriodicBenefitClaimContextERKNS0_13ClockSnapshotERKNS_8TimeSpanES8_PKNS0_25CheckCalendarTimeCallbackE = 0x0000000000383870 + __sdk_start;
_ZN2nn3hid6detail19SendVibrationValuesEPKNS0_21VibrationDeviceHandleEPKNS0_14VibrationValueEi = 0x00000000002422b0 + __sdk_start;
_ZN2nn3grc3dev25InitializeMovieVideoProxyEv = 0x0000000000229930 + __sdk_start;
_ZNK2nn3mem19NumberLineAllocator17GetAllocationModeEv = 0x00000000002e0fb0 + __sdk_start;
_ZN2nn2sf6detail38ObjectImplFactoryWithStatefulAllocatorINS0_4cmif6client6detail9CmifProxyINS_2am7service24ITransferStorageAccessorENS0_4hipc6client18Hipc2ProxyKindBaseILNSA_6detail11MessageTypeE6EEENS0_30MemoryResourceAllocationPolicyENS5_19ProcessModifierImplINS4_21DefaultProxyFilterTagEEEvEESG_E6Object12AddReferenceEv = 0x000000000006ba90 + __sdk_start;
nncodecLibopus_silk_NSQ_del_dec_c = 0x00000000000f5100 + __sdk_start;
_ZN2nn2fs28OpenSaveDataExportProhibiterEPNSt3__110unique_ptrINS0_40SaveDataTransferProhibiterForCloudBackUpENS1_14default_deleteIS3_EEEEPNS_3ncm13ApplicationIdEi = 0x000000000021e850 + __sdk_start;
_ZN2nn3mii6detail11UtilityImpl9GetRandomEi = 0x00000000002eaa60 + __sdk_start;
_ZN2nn5swkbd22CopyUserDictionaryInfoEPNS0_15ShowKeyboardArgEi = 0x000000000037f270 + __sdk_start;
_ZN2nn5swkbd25GetRequiredWorkBufferSizeEb = 0x000000000037fcc0 + __sdk_start;
_ZN2nn2vi15SetDisplayAlphaEPNS0_7DisplayEf = 0x00000000003ab0d0 + __sdk_start;
_ZNKSt3__18messagesIcE7do_openERKNS_12basic_stringIcNS_11char_traitsIcEENS_9allocatorIcEEEERKNS_6localeE = 0x000000000047c268 + __sdk_start;
_ZNSt3__115__get_classnameEPKcb = 0x00000000004930e0 + __sdk_start;
nncodecLibopus_silk_sigm_Q15 = 0x0000000000101520 + __sdk_start;
_ZN2nn2oe22GetNotificationMessageEv = 0x0000000000322840 + __sdk_start;
_ZN2nn2sf4cmif6client6detail13CmifProxyImplINS_7account4baas28IFloatingRegistrationRequestENS2_19CmifDomainProxyKindINS0_4hipc6client38Hipc2ClientSessionManagedProxyKindBaseINSA_18Hipc2ProxyKindBaseILNS9_6detail11MessageTypeE6EEEEEEENS0_25StatelessAllocationPolicyINS0_22ExpHeapStaticAllocatorILm2048ENS5_6detail12ObjectHolder24ObjectHolderAllocatorTagEEEEES7_NS3_19ProcessModifierImplINS2_21DefaultProxyFilterTagEEEE53_nn_sf_sync_RegisterNetworkServiceAccountWithUidAsyncENS0_3OutINS0_13SharedPointerINSK_13IAsyncContextEEEvEERKNS5_3UidE = 0x0000000000045c50 + __sdk_start;
_ZN2nn2sf4cmif6client6detail13CmifProxyImplINS_2am7service21IApplicationFunctionsENS0_4hipc6client18Hipc2ProxyKindBaseILNS8_6detail11MessageTypeE6EEENS0_30MemoryResourceAllocationPolicyES7_NS3_19ProcessModifierImplINS2_21DefaultProxyFilterTagEEEE42_nn_sf_sync_QueryApplicationPlayStatisticsENS0_3OutIivEERKNS0_8OutArrayINS_3pdm25ApplicationPlayStatisticsEEERKNS0_7InArrayINS_3ncm13ApplicationIdEEE = 0x0000000000074bd0 + __sdk_start;
_ZN2nn5audio3dsp14MapUserPointerEjNS0_7CpuAddrEm = 0x00000000000b2750 + __sdk_start;
_ZN2nn3hid6detail20SharedMemoryAccessorD1Ev = 0x0000000000239930 + __sdk_start;
_ZN2nn7friends11UserSetting24ChangePresencePermissionEPNS0_12AsyncContextENS0_18PresencePermissionE = 0x00000000001dc420 + __sdk_start;
_ZN2nn2sf4cmif6client6detail36GetClientProcessorImplWithObjectBaseINS2_19CmifDomainProxyKindINS0_4hipc6client38Hipc2ClientSessionManagedProxyKindBaseINS7_18Hipc2ProxyKindBaseILNS6_6detail11MessageTypeE6EEEEEEENS3_19ProcessModifierImplINS2_21DefaultProxyFilterTagEEEE14ObjectAssignerINS0_24StatefulAllocationPolicyINS0_16ExpHeapAllocatorEEESL_E14AllocateObjectINS_3ssl2sf11ISslContextEEEvi = 0x000000000037c460 + __sdk_start;
_ZN2nn4time39AsyncEnsureNetworkClockAvailabilityTask10InitializeENS_2os14EventClearModeE = 0x0000000000383e30 + __sdk_start;
_ZN2nn2sf4hipc6server6detail29HipcAllInOneServerManagerBase20ProcessInvokeRequestEPNS_2os19MultiWaitHolderTypeE = 0x000000000035b4f0 + __sdk_start;
_ZNK2nn3mii16CharInfoAccessor15GetFacelineTypeEv = 0x00000000002e16b0 + __sdk_start;
_ZN2nn2fs16IsExFatSupportedEv = 0x000000000021b250 + __sdk_start;
_ZN2nn2sf4cmif6client6detail13CmifProxyImplINS_6grcsrv17IGameMovieTrimmerENS0_4hipc6client18Hipc2ProxyKindBaseILNS7_6detail11MessageTypeE6EEENS0_30MemoryResourceAllocationPolicyES6_NS3_19ProcessModifierImplINS2_21DefaultProxyFilterTagEEEE31_nn_sf_sync_GetNotTrimmingEventENS0_3OutINS0_12NativeHandleEvEE = 0x00000000000728c0 + __sdk_start;
_ZN2nn5audio27GetBufferSizeForDspProfilerEPNS0_20DspProfilerParameterE = 0x0000000000097180 + __sdk_start;
_ZN2nn5audio20SetAudioInBufferInfoEPNS0_13AudioInBufferEPvm = 0x0000000000098ed0 + __sdk_start;
_ZN2nn2sf13SharedPointerINS_3btm8IBtmUserEED2Ev = 0x00000000000d2530 + __sdk_start;
_ZN2nn3mii6detail18GetEyeRotateOffsetENS0_7EyeTypeE = 0x00000000002e2560 + __sdk_start;
_ZN2nn3ntc4shim31CorrectionNetworkClockAsyncTaskC1ENS_2os14EventClearModeENS0_34EnsureNetworkClockAvailabilityModeE = 0x000000000038b170 + __sdk_start;
_ZTVNSt3__18ios_baseE = 0x0000000000beb780 + __sdk_start;
_ZN2nn4util16FileOutputStream5FlushEv = 0x00000000003a3290 + __sdk_start;
_ZN2nn7friends6detail20AsyncContextInternal9CallAsyncEPKcPFNS_6ResultEPNS1_3ipc14IFriendServiceEPvES9_m = 0x00000000001dd860 + __sdk_start;
_ZN2nn5swkbd25GetRequiredWorkBufferSizeEi = 0x000000000037f2c0 + __sdk_start;
_ZN2nn2vi6detail18SystemServiceProxy37FinalizeApplicationDisplayServiceImplEv = 0x00000000003b0430 + __sdk_start;
NvRmFenceGetFromFile = 0x00000000003d4f60 + __sdk_start;
_ZN2nn2fs6detail22PathBasedFileDataCache6RemoveEONS1_10UniqueLockEPNS1_18FileSystemAccessorERKNS1_12FilePathHashEPKc = 0x0000000000224750 + __sdk_start;
nnsocketBind = 0x0000000000360b30 + __sdk_start;
_ZN2nn5audio3dsp14ConvertFormat4EPiPKfii = 0x00000000000b2d50 + __sdk_start;
_ZN2nn2sf4cmif6client6detail13CmifProxyImplINS_4bcat6detail3ipc30IDeliveryCacheDirectoryServiceENS2_19CmifDomainProxyKindINS0_4hipc6client38Hipc2ClientSessionManagedProxyKindBaseINSB_18Hipc2ProxyKindBaseILNSA_6detail11MessageTypeE6EEEEEEENS0_30MemoryResourceAllocationPolicyES8_NS3_19ProcessModifierImplINS2_21DefaultProxyFilterTagEEEE17GetCmifBaseObjectEv = 0x00000000000c4d20 + __sdk_start;
_ZNK2nn3hid6detail8RingLifoINS0_16TouchScreenStateILm16EEELi16ENS1_29TouchScreenStateAtomicStorageEE8ReadImplINS3_ILm4EEEEEiPT_i = 0x000000000023e8f0 + __sdk_start;
_ZN2nn2fs13EraseGameCardENS0_12GameCardSizeEm = 0x000000000020d2a0 + __sdk_start;
_ZN2nn4nifm10InitializeEv = 0x00000000003185f0 + __sdk_start;
NvRmGpuRegOpsSessionSetHwpmContextSwitchMode = 0x00000000003ef190 + __sdk_start;
_ZN2nn2sf4cmif6client6detail13CmifProxyImplINS_2am7service18IDisplayControllerENS2_19CmifDomainProxyKindINS0_4hipc6client38Hipc2ClientSessionManagedProxyKindBaseINSA_18Hipc2ProxyKindBaseILNS9_6detail11MessageTypeE6EEEEEEENS0_30MemoryResourceAllocationPolicyES7_NS3_19ProcessModifierImplINS2_21DefaultProxyFilterTagEEEE42_nn_sf_sync_GetLastApplicationCaptureImageERKNS0_9OutBufferE = 0x000000000005a660 + __sdk_start;
_ZN2nn2sf4cmif6client6detail13CmifProxyImplINS_2am7service26ILibraryAppletSelfAccessorENS2_19CmifDomainProxyKindINS0_4hipc6client38Hipc2ClientSessionManagedProxyKindBaseINSA_18Hipc2ProxyKindBaseILNS9_6detail11MessageTypeE6EEEEEEENS0_30MemoryResourceAllocationPolicyES7_NS3_19ProcessModifierImplINS2_21DefaultProxyFilterTagEEEE29_nn_sf_sync_UnpopExtraStorageENS0_13SharedPointerINS6_8IStorageEEE = 0x000000000005f6e0 + __sdk_start;
_ZN2nn5audio6server38CommandProcessingTimeEstimatorVersion210InitializeEii = 0x00000000000a4db0 + __sdk_start;
_ZN2nn2sf4cmif6client6detail13CmifProxyImplINS_4bcat6detail3ipc12IBcatServiceENS2_19CmifDomainProxyKindINS0_4hipc6client38Hipc2ClientSessionManagedProxyKindBaseINSB_18Hipc2ProxyKindBaseILNSA_6detail11MessageTypeE6EEEEEEENS0_30MemoryResourceAllocationPolicyES8_NS3_19ProcessModifierImplINS2_21DefaultProxyFilterTagEEEE12GetProxyInfoEv = 0x00000000000c3540 + __sdk_start;
_ZN2nn2sf13SharedPointerINS_3nfp6detail7ISystemEED2Ev = 0x00000000002fdd90 + __sdk_start;
_longjmp = 0x00000000004b90c4 + __sdk_start;
_ZN2nn2fs6detail30FileSystemServiceObjectAdapter19DoGetTotalSpaceSizeEPlPKc = 0x000000000020c5d0 + __sdk_start;
_ZN2nn3ngc6detail11InputStream5CloseEv = 0x000000000030c850 + __sdk_start;
_ZN2nn3ngc6detail11InputStreamD0Ev = 0x000000000030d520 + __sdk_start;
_ZNK2nn5audio6server17AudioRenderSystem18GetRenderingDeviceEv = 0x000000000009cc80 + __sdk_start;
_ZN2nn4time27EphemeralNetworkSystemClock11from_time_tEl = 0x0000000000385560 + __sdk_start;
_ZTIN2nn2sf6detail13CmifProxyInfoE = 0x0000000000bd1458 + __sdk_start;
_ZN2nn8settings6detail29GetAvailableLanguageCodeCountEPi = 0x000000000034d6b0 + __sdk_start;
_ZN2nn2sf4cmif6client6detail13CmifProxyImplINS_3hid15IHidDebugServerENS0_4hipc6client18Hipc2ProxyKindBaseILNS7_6detail11MessageTypeE6EEENS0_25StatelessAllocationPolicyINS0_22ExpHeapStaticAllocatorILm16384ENS5_6detail14HidDebugServerEEEEES6_NS3_19ProcessModifierImplINS2_21DefaultProxyFilterTagEEEE38_nn_sf_sync_DisableRailDeviceFilteringEb = 0x0000000000252460 + __sdk_start;
_ZTIN2nn2fs6detail26EventNotifierObjectAdapterE = 0x0000000000bd3b60 + __sdk_start;
_ZN2nn5audio6server11InfoUpdaterC2EmmmmjRNS1_12BehaviorInfoE = 0x00000000000a5950 + __sdk_start;
_ZN2nn5audio3dsp18ApplyBiquadFilter1EPfPKfPKsS6_Pli = 0x00000000000af4e0 + __sdk_start;
_ZN2nn3ssl10Connection20SetRenegotiationModeENS1_17RenegotiationModeE = 0x0000000000379550 + __sdk_start;
_ZN2nn3web6detail14WebSessionImpl18StorageHandleQueue7enqueueERKNS_6applet13StorageHandleE = 0x00000000003b6b60 + __sdk_start;
_ZN2nn3hid6detail28InitializeSevenSixAxisSensorEPvm = 0x000000000022c6e0 + __sdk_start;
_ZTVN2nn3ngc6detail12OutputStreamE = 0x0000000000bddbf8 + __sdk_start;
_ZN7android12ConsumerBaseD2Ev = 0x000000000001b850 + __sdk_start;
_ZN2nn4diag6detail22InvokeSdkAbortObserverERKNS0_12SdkAbortInfoE = 0x0000000000180260 + __sdk_start;
_ZN2nn3hid6detail19GetTouchScreenStateILm14EEENS_6ResultEPNS0_16TouchScreenStateIXT_EEE = 0x000000000023c9f0 + __sdk_start;
_ZN7android7String810appendPathEPKc = 0x0000000000036e20 + __sdk_start;
nnmem_nlib_thread_attr_init = 0x00000000002bdf00 + __sdk_start;
_ZTVN2nn5audio6server13CommandBufferE = 0x0000000000bccf80 + __sdk_start;
_ZN2nn4nifm18GetSsidListVersionEPNS0_15SsidListVersionE = 0x0000000000319dc0 + __sdk_start;
_ZN2nn8settings6detail24GetUsb30DeviceEnableFlagEPb = 0x00000000003508b0 + __sdk_start;
NvRmModuleGetCapabilities = 0x00000000003cecc0 + __sdk_start;
fgetpos = 0x00000000004f2390 + __sdk_start;
_ZTIN2nn2sf6detail39ObjectImplFactoryWithStatelessAllocatorINS0_4cmif6client6detail9CmifProxyINS_7account31IAccountServiceForSystemServiceENS4_19CmifDomainProxyKindINS0_4hipc6client38Hipc2ClientSessionManagedProxyKindBaseINSB_18Hipc2ProxyKindBaseILNSA_6detail11MessageTypeE6EEEEEEENS0_25StatelessAllocationPolicyINS0_22ExpHeapStaticAllocatorILm2048ENS7_6detail12ObjectHolder24ObjectHolderAllocatorTagEEEEENS5_19ProcessModifierImplINS4_21DefaultProxyFilterTagEEEvEESP_E6ObjectE = 0x0000000000bbe2f0 + __sdk_start;
_ZN2nn5audio6server22CircularBufferSinkInfoC1Ev = 0x00000000000aac20 + __sdk_start;
_ZN2nn3err45CreateErrorViewerStartupParamForRecordedErrorEPvPmmPKcS4_NS_4time9PosixTimeE = 0x0000000000195570 + __sdk_start;
_ZN2nn4pctl21IsAllFeaturesDisabledEPb = 0x00000000003304a0 + __sdk_start;
_ZN2nn5audio21SetReverbPredelayTimeEPNS0_10ReverbTypeENS_8TimeSpanE = 0x0000000000084b70 + __sdk_start;
_ZN2nn5audio36GetFinalOutputRecorderBufferDataSizeEPKNS0_25FinalOutputRecorderBufferE = 0x0000000000099ec0 + __sdk_start;
_ZN2nn5audio6server32PerformanceMeasuredCommandBuffer28GenerateCopyMixBufferCommandEiij = 0x00000000000a0a20 + __sdk_start;
_ZNK2nn5audio6server11SinkContext7GetInfoEi = 0x00000000000aadf0 + __sdk_start;
_ZNSt3__115basic_streambufIcNS_11char_traitsIcEEE5sputnEPKcl = 0x0000000000452fc8 + __sdk_start;
_ZN2nn2fs24HierarchicalRomFileTable8FindOpenEPNS1_12FindPositionEi = 0x00000000001e81a0 + __sdk_start;
_ZN2nn6result6detail18ConvertInvalidImplENS_6ResultE = 0x000000000033c750 + __sdk_start;
_ZN2nn4bcat30CancelSyncDeliveryCacheRequestEv = 0x00000000000bf9f0 + __sdk_start;
_ZN2nn2ec4json7adaptor11AdaptorBaseILi8ELi128EE10UpdateImplERKNS_4http4json8JsonPathILi8ELi128ELb0EEEDn = 0x0000000000192610 + __sdk_start;
_ZN4nerd16VibrationDecoder13GenerateChunkERKN2nn3hid14VibrationValueEPs = 0x0000000000250d60 + __sdk_start;
_ZNSt3__115basic_streambufIwNS_11char_traitsIwEEED2Ev = 0x00000000004533f0 + __sdk_start;
_ZN2nn5image6detail4jpeg18jpeg_finish_outputEPNS2_22jpeg_decompress_structE = 0x000000000027b3b0 + __sdk_start;
_ZTIN2nn2fs25ISaveDataDivisionExporterE = 0x0000000000bd6100 + __sdk_start;
_ZN2nn8settings6system13GetRegionCodeEPNS1_10RegionCodeE = 0x0000000000348d10 + __sdk_start;
_ZN2nn8settings6detail42GetConsoleSixAxisSensorAngularVelocityGainEPNS0_6system39ConsoleSixAxisSensorAngularVelocityGainE = 0x000000000034f020 + __sdk_start;
_ZNK2nn4util10Cancelable10IsCanceledEv = 0x00000000003a2a30 + __sdk_start;
_ZN2nn2sf4cmif6client34CmifDomainProxyClientCoreProcessorINS0_4hipc6client38Hipc2ClientSessionManagedProxyKindBaseINS5_18Hipc2ProxyKindBaseILNS4_6detail11MessageTypeE6EEEEENS1_6detail14CoreMethodInfoINSt3__15tupleIJNSC_21OutObjectArgumentInfoILi0ELi0EEENSC_18BufferArgumentInfoILi0ELi9ELm0EEEEEELm0ELm0ELb0EEESK_E21ProcessWithOutObjectsEPNS2_23CmifDomainClientMessageISB_E15ProxyBaseObjectENS2_27OutObjectClientArgumentTypeENS2_24BufferClientArgumentTypeEjPNS0_13SharedPointerINS0_14IServiceObjectEEE = 0x0000000000047640 + __sdk_start;
_ZN2nn2os25InitializeMultiWaitHolderEPNS0_19MultiWaitHolderTypeEPNS0_16MessageQueueTypeENS0_20MessageQueueWaitTypeE = 0x00000000003267c0 + __sdk_start;
nnosConvertNanoSecondsToTick = 0x0000000000329700 + __sdk_start;
_ZN2nn6crypto6detail6BigNum6SubModEPjPKjS5_S5_i = 0x00000000001764b0 + __sdk_start;
_ZN2nn3mii6detail11CoreDataRaw16SetFacelineColorEi = 0x00000000002e5dd0 + __sdk_start;
sinf = 0x00000000004e4028 + __sdk_start;
_ZTIN2nn2sf4cmif6client6detail13CmifProxyImplINS_2am7service17IApplicationProxyENS0_4hipc6client18Hipc2ProxyKindBaseILNS8_6detail11MessageTypeE6EEENS0_30MemoryResourceAllocationPolicyES7_NS3_19ProcessModifierImplINS2_21DefaultProxyFilterTagEEEEE = 0x0000000000bc9be0 + __sdk_start;
_ZThn16_N2nn2sf4cmif6client6detail13CmifProxyImplINS_3apm18IManagerPrivilegedENS0_4hipc6client18Hipc2ProxyKindBaseILNS7_6detail11MessageTypeE6EEENS0_30MemoryResourceAllocationPolicyES6_NS3_19ProcessModifierImplINS2_21DefaultProxyFilterTagEEEE17GetCmifBaseObjectEv = 0x000000000007a4c0 + __sdk_start;
_ZN2nn8settings6system31GetAccountOnlineStorageSettingsEPNS1_28AccountOnlineStorageSettingsEi = 0x00000000003487b0 + __sdk_start;
_ZN7android21SurfaceComposerClient24clearAnimationFrameStatsEv = 0x000000000002c430 + __sdk_start;
srand = 0x00000000004e8c78 + __sdk_start;
_ZN2nn6socket8resolver3tls6Client8FinalizeEv = 0x00000000003756f0 + __sdk_start;
_ZN2nn2sf4cmif6client6detail13CmifProxyImplINS_4nifm6detail15IGeneralServiceENS2_19CmifDomainProxyKindINS0_4hipc6client38Hipc2ClientSessionManagedProxyKindBaseINSA_18Hipc2ProxyKindBaseILNS9_6detail11MessageTypeE6EEEEEEENS0_30MemoryResourceAllocationPolicyES7_NS3_19ProcessModifierImplINS2_21DefaultProxyFilterTagEEEE50_nn_sf_sync_GetTelemetorySystemEventReadableHandleENS0_3OutINS0_12NativeHandleEvEE = 0x0000000000314fa0 + __sdk_start;
_ZTIN2nn2sf4cmif6client6detail9CmifProxyINS_8settings22IFactorySettingsServerENS0_4hipc6client18Hipc2ProxyKindBaseILNS7_6detail11MessageTypeE6EEENS0_30MemoryResourceAllocationPolicyENS3_19ProcessModifierImplINS2_21DefaultProxyFilterTagEEEvEE = 0x0000000000be1e10 + __sdk_start;
_ZN2nn3web19ShowOfflineHtmlPageEPNS0_26OfflineHtmlPageReturnValueERKNS0_22ShowOfflineHtmlPageArgE = 0x00000000003b18e0 + __sdk_start;
_ZN2nn3hid6detail30SetNpadJoyAssignmentModeSingleERKjNS0_17NpadJoyDeviceTypeE = 0x0000000000233710 + __sdk_start;
sinh = 0x00000000004e4200 + __sdk_start;
_ZN2nn7friends17SendFriendRequestEPNS0_12AsyncContextERKNS_7account3UidENS3_23NetworkServiceAccountIdENS0_11RequestTypeERKNS0_7MiiNameERKNS0_16MiiImageUrlParamESB_SE_ = 0x00000000001d8280 + __sdk_start;
_ZN2nn2fs17FileHandleStorageC1ENS0_10FileHandleEb = 0x00000000001ea6f0 + __sdk_start;
_ZN2nn4bcat6detail17ShimLibraryGlobal31EnumerateDeliveryCacheDirectoryEPiPNS0_13DirectoryNameEi = 0x00000000000c2530 + __sdk_start;
nncodecLibopus_downmix_int = 0x0000000000110210 + __sdk_start;
_ZN2nn2os6detail27TransferMemoryImplByHorizon5CloseEj = 0x000000000032db90 + __sdk_start;
_ZN2nn2sf4cmif6client6detail13CmifProxyImplINS_2am7service17IOverlayFunctionsENS2_19CmifDomainProxyKindINS0_4hipc6client38Hipc2ClientSessionManagedProxyKindBaseINSA_18Hipc2ProxyKindBaseILNS9_6detail11MessageTypeE6EEEEEEENS0_30MemoryResourceAllocationPolicyES7_NS3_19ProcessModifierImplINS2_21DefaultProxyFilterTagEEEE46_nn_sf_sync_BeginToWatchShortHomeButtonMessageEv = 0x0000000000061630 + __sdk_start;
_ZTVN2nn5audio6server14EffectInfoBaseE = 0x0000000000bcd6d8 + __sdk_start;
_ZN2nn5codec11OpusEncoder10SetBitRateEi = 0x000000000011e580 + __sdk_start;
_ZNSt3__111regex_errorD2Ev = 0x0000000000492ff0 + __sdk_start;
sinl = 0x00000000004e4380 + __sdk_start;
nnutilZlib_deflateEnd = 0x000000000038cc90 + __sdk_start;
_ZThn8_N2nn2fs6detail30FileSystemServiceObjectAdapter20GetMultiCommitTargetEv = 0x000000000020cbe0 + __sdk_start;
_ZN2nn2sf4cmif6client6detail13CmifProxyImplINS_2am7service26ILibraryAppletSelfAccessorENS2_19CmifDomainProxyKindINS0_4hipc6client38Hipc2ClientSessionManagedProxyKindBaseINSA_18Hipc2ProxyKindBaseILNS9_6detail11MessageTypeE6EEEEEEENS0_30MemoryResourceAllocationPolicyES7_NS3_19ProcessModifierImplINS2_21DefaultProxyFilterTagEEEE34_nn_sf_sync_PushInteractiveOutDataENS0_13SharedPointerINS6_8IStorageEEE = 0x000000000005f3e0 + __sdk_start;
_ZN2nn4util27ConvertCharacterUtf8ToUtf32EPDiPKc = 0x00000000003a12a0 + __sdk_start;
_ZN3nne4nlib16NullOutputStreamC2Ev = 0x00000000003a2380 + __sdk_start;
_ZN2nn2sf4cmif6client6detail36GetClientProcessorImplWithObjectBaseINS2_19CmifDomainProxyKindINS0_4hipc6client38Hipc2ClientSessionManagedProxyKindBaseINS7_18Hipc2ProxyKindBaseILNS6_6detail11MessageTypeE6EEEEEEENS3_19ProcessModifierImplINS2_21DefaultProxyFilterTagEEEE14ObjectAssignerINS0_30MemoryResourceAllocationPolicyENS_14MemoryResourceEE14AllocateObjectINS_4bcat6detail3ipc25IDeliveryCacheFileServiceEEEvi = 0x00000000000c4610 + __sdk_start;
_ZN2nn2ec6detail40ShowShopMembershipServiceInformationImplERKNS_7account3UidENS_4util8optionalINS_13ApplicationIdEEENS7_INS0_29MembershipServiceGuidedReasonEEENS0_8SourceIdE = 0x000000000018e3c0 + __sdk_start;
_ZN2nn2lm6detail15LogPacketHeader7SetTailEb = 0x00000000002b97b0 + __sdk_start;
_ZNK2nn4time13ClockSnapshot35GetStandardUserSystemClockPosixTimeEv = 0x00000000003847f0 + __sdk_start;
_ZTIN2nn5fssrv2sf17ISaveDataExporterE = 0x0000000000bd4850 + __sdk_start;
_ZNK2nn3mem19NumberLineAllocator4DumpEmi = 0x00000000002e1010 + __sdk_start;
_ZN2nn2sf44InitializeForHipcServerSessionManagerHandlerEv = 0x0000000000357f30 + __sdk_start;
_ZNK2nn7friends11BlockedUser7IsValidEv = 0x00000000001db1d0 + __sdk_start;
_ZNK2nn4pctl11PairingInfo8GetStateEv = 0x0000000000332810 + __sdk_start;
_ZN2nn3htc22GetEnvironmentVariableEPmPcmPKc = 0x000000000025f7f0 + __sdk_start;
_ZN2nn5audio6common11SupportTags17ElapsedFrameCountE = 0x0000000000bcb4a0 + __sdk_start;
_ZN7android6Parcel19writeInterfaceTokenERKNS_8String16E = 0x0000000000008350 + __sdk_start;
scalb = 0x00000000004e35d8 + __sdk_start;
_ZN2nn2sf4hipc6server6detail29HipcAllInOneServerManagerBase11ProcessAutoEPNS_2os19MultiWaitHolderTypeE = 0x000000000035b950 + __sdk_start;
_ZN2nn2sf4cmif6client6detail13CmifProxyImplINS_2am7service13ILockAccessorENS2_19CmifDomainProxyKindINS0_4hipc6client38Hipc2ClientSessionManagedProxyKindBaseINSA_18Hipc2ProxyKindBaseILNS9_6detail11MessageTypeE6EEEEEEENS0_30MemoryResourceAllocationPolicyES7_NS3_19ProcessModifierImplINS2_21DefaultProxyFilterTagEEEE12GetProxyInfoEv = 0x00000000000579a0 + __sdk_start;
_ZN2nn2sf4cmif6client6detail13CmifProxyImplINS_2am7service18ICommonStateGetterENS0_4hipc6client18Hipc2ProxyKindBaseILNS8_6detail11MessageTypeE6EEENS0_30MemoryResourceAllocationPolicyES7_NS3_19ProcessModifierImplINS2_21DefaultProxyFilterTagEEEE47_nn_sf_sync_GetApplicationIdByContentActionNameENS0_3OutImvEERKNS0_7InArrayIcEE = 0x0000000000068e10 + __sdk_start;
_ZNSt3__18__c_node5__addEPNS_8__i_nodeE = 0x000000000044ea00 + __sdk_start;
_ZN2nn4util14AsyncExecutionC1EOS1_ = 0x00000000003a2e80 + __sdk_start;
_ZN2nn3mii15PrivateDatabaseD2Ev = 0x00000000002f3320 + __sdk_start;
_ZTIN2nn6jitsrv15IJitEnvironmentE = 0x0000000000bda2c0 + __sdk_start;
_ZN2nn9bluetooth14GattDescriptorC1Ev = 0x00000000000d0c30 + __sdk_start;
tgammaf = 0x00000000004e4a08 + __sdk_start;
tsearch = 0x00000000004f19e8 + __sdk_start;
_ZN2nn4util17MessagePackWriter14WriteExtensionEaPKvj = 0x000000000039a3b0 + __sdk_start;
_ZN2nn3hid6detail20GetTouchScreenStatesILm11EEENS_6ResultEPiPNS0_16TouchScreenStateIXT_EEEi = 0x000000000023d860 + __sdk_start;
_ZNSt3__18__i_nodeD1Ev = 0x000000000044e490 + __sdk_start;
_ZTINSt3__17codecvtIwc11__mbstate_tEE = 0x0000000000bed170 + __sdk_start;
_ZN2nn2sf4cmif6server23CmifServerDomainManager6DomainC2EPS3_ = 0x0000000000354f90 + __sdk_start;
_ZNK2nn3ngc6detail3Sbv7MemSizeEv = 0x000000000030fb30 + __sdk_start;
_ZN2nn2sf4cmif6client6detail13CmifProxyImplINS_4pctl6detail3ipc23IParentalControlServiceENS2_19CmifDomainProxyKindINS0_4hipc6client38Hipc2ClientSessionManagedProxyKindBaseINSB_18Hipc2ProxyKindBaseILNSA_6detail11MessageTypeE6EEEEEEENS0_30MemoryResourceAllocationPolicyES8_NS3_19ProcessModifierImplINS2_21DefaultProxyFilterTagEEEE34_nn_sf_sync_FinishAuthorizePairingENS0_3OutINS6_15PairingInfoBaseEvEENS6_9AsyncDataE = 0x0000000000334510 + __sdk_start;
_ZN2nn3hid6detail20GetTouchScreenStatesILm16EEENS_6ResultEPiPNS0_16TouchScreenStateIXT_EEEi = 0x000000000023dcc0 + __sdk_start;
_ZN7android7String813appendFormatVEPKcSt9__va_list = 0x00000000000353e0 + __sdk_start;
_ZN2nn2sf4hipc6client24Hipc2ClientCoreProcessorILNS1_6detail11MessageTypeE6ENS0_4cmif6detail14CoreMethodInfoINSt3__15tupleIJNS7_18OutRawArgumentInfoILm4ELm4ELl0EEENSB_ILm4ELm4ELl4EEENS7_17InRawArgumentInfoILm4ELm4ELl0EEENS7_18BufferArgumentInfoILi0ELi33ELm0EEENSE_ILm4ELm4ELl4EEEEEELm8ELm8ELb0EEESJ_E7ProcessEPNS2_26Hipc2ClientProxyBaseObjectENS6_6client24OutRawClientArgumentTypeILm4ELm4EEESQ_NSO_23InRawClientArgumentTypeILm4ELm4EvEENSO_24BufferClientArgumentTypeESS_j = 0x000000000036d180 + __sdk_start;
_ZN2nn6socket8resolver3tls12GetServerTLSERPv = 0x00000000003734c0 + __sdk_start;
_ZN2nn2sf4cmif6client6detail13CmifProxyImplINS_7account31IAccountServiceForSystemServiceENS2_19CmifDomainProxyKindINS0_4hipc6client38Hipc2ClientSessionManagedProxyKindBaseINS9_18Hipc2ProxyKindBaseILNS8_6detail11MessageTypeE6EEEEEEENS0_25StatelessAllocationPolicyINS0_22ExpHeapStaticAllocatorILm2048ENS5_6detail12ObjectHolder24ObjectHolderAllocatorTagEEEEES6_NS3_19ProcessModifierImplINS2_21DefaultProxyFilterTagEEEE39_nn_sf_sync_GetUserRegistrationNotifierENS0_3OutINS0_13SharedPointerINSJ_9INotifierEEEvEE = 0x0000000000041a00 + __sdk_start;
_ZThn16_N2nn2sf4cmif6client6detail13CmifProxyImplINS_2am7service22IAppletCommonFunctionsENS0_4hipc6client18Hipc2ProxyKindBaseILNS8_6detail11MessageTypeE6EEENS0_30MemoryResourceAllocationPolicyES7_NS3_19ProcessModifierImplINS2_21DefaultProxyFilterTagEEEE17GetCmifBaseObjectEv = 0x0000000000070de0 + __sdk_start;
_ZN2nn2sf4cmif6client6detail13CmifProxyImplINS_3apm14ISystemManagerENS0_4hipc6client18Hipc2ProxyKindBaseILNS7_6detail11MessageTypeE6EEENS0_30MemoryResourceAllocationPolicyES6_NS3_19ProcessModifierImplINS2_21DefaultProxyFilterTagEEEE32_nn_sf_sync_LoadAndApplySettingsEv = 0x000000000007aff0 + __sdk_start;
_ZN2nn2sf4cmif6client6detail13CmifProxyImplINS_7friends6detail3ipc14IFriendServiceENS2_19CmifDomainProxyKindINS0_4hipc6client38Hipc2ClientSessionManagedProxyKindBaseINSB_18Hipc2ProxyKindBaseILNSA_6detail11MessageTypeE6EEEEEEENS0_30MemoryResourceAllocationPolicyES8_NS3_19ProcessModifierImplINS2_21DefaultProxyFilterTagEEEE49_nn_sf_sync_RequestListSummaryOverlayNotificationEv = 0x00000000001df6c0 + __sdk_start;
_ZN2nn2sf4cmif6client6detail13CmifProxyImplINS_4pctl6detail3ipc23IParentalControlServiceENS2_19CmifDomainProxyKindINS0_4hipc6client38Hipc2ClientSessionManagedProxyKindBaseINSB_18Hipc2ProxyKindBaseILNSA_6detail11MessageTypeE6EEEEEEENS0_30MemoryResourceAllocationPolicyES8_NS3_19ProcessModifierImplINS2_21DefaultProxyFilterTagEEEE46_nn_sf_sync_RevertRestrictionTemporaryUnlockedEv = 0x0000000000333a20 + __sdk_start;
__pthread_tsd_run_dtors = 0x0000000000507138 + __sdk_start;
FDKafree = 0x0000000000171e40 + __sdk_start;
_ZN2nn2sf4cmif6client6detail13CmifProxyImplINS_8irsensor21IIrSensorSystemServerENS0_4hipc6client18Hipc2ProxyKindBaseILNS7_6detail11MessageTypeE6EEENS0_25StatelessAllocationPolicyINS0_22ExpHeapStaticAllocatorILm16384ENS5_6detail20IrSensorSystemServerEEEEES6_NS3_19ProcessModifierImplINS2_21DefaultProxyFilterTagEEEE12GetProxyInfoEv = 0x000000000029ff60 + __sdk_start;
_ZNK7android6Region8getArrayEPm = 0x00000000000323a0 + __sdk_start;
_ZN2nn6capsrv28SaveScreenShotForApplicationEPNS0_21ApplicationAlbumEntryEPKvmRKNS0_19ScreenShotAttributeERKNS0_10UserIdListEj = 0x00000000000d4d10 + __sdk_start;
_ZN2nn3hid6detail33GetUniquePadDeviceTypeSetInternalEPNS_4util10BitFlagSetILi32ENS1_18DeviceTypeInternalEEERKNS0_6system11UniquePadIdE = 0x0000000000241400 + __sdk_start;
tgammal = 0x00000000004c55d8 + __sdk_start;
_ZN2nn2fs24HierarchicalRomFileTable19CreateRootDirectoryEv = 0x00000000001e6dc0 + __sdk_start;
_ZN7android21SurfaceComposerClientD2Ev = 0x000000000002a5c0 + __sdk_start;
_ZN2nn2sf4hipc6client24Hipc2ClientCoreProcessorILNS1_6detail11MessageTypeE6ENS0_4cmif6detail14CoreMethodInfoINSt3__15tupleIJNS7_17InRawArgumentInfoILm1ELm1ELl0EEENS7_18BufferArgumentInfoILi0ELi5ELm0EEEEEELm1ELm0ELb0EEESF_E7ProcessEPNS2_26Hipc2ClientProxyBaseObjectENS6_6client23InRawClientArgumentTypeILm1ELm1EvEENSK_24BufferClientArgumentTypeEj = 0x000000000006e070 + __sdk_start;
_ZN2nn5album14LoadAlbumImageEPiS1_PmPvmS3_mS3_mRKNS0_14AlbumFileEntryE = 0x000000000004e5e0 + __sdk_start;
_ZN2nn3hid6detail34GetSixAxisSensorHandlePlayerNumberERKNS0_19SixAxisSensorHandleE = 0x000000000023a930 + __sdk_start;
_ZN2nn3hid6detail25SetDebugPadAutoPilotStateERKNS0_5debug22DebugPadAutoPilotStateE = 0x000000000022d790 + __sdk_start;
_ZN2nn2sf6detail39ObjectImplFactoryWithStatelessAllocatorINS0_4cmif6client6detail9CmifProxyINS_7account4baas28IFloatingRegistrationRequestENS4_19CmifDomainProxyKindINS0_4hipc6client38Hipc2ClientSessionManagedProxyKindBaseINSC_18Hipc2ProxyKindBaseILNSB_6detail11MessageTypeE6EEEEEEENS0_25StatelessAllocationPolicyINS0_22ExpHeapStaticAllocatorILm2048ENS7_6detail12ObjectHolder24ObjectHolderAllocatorTagEEEEENS5_19ProcessModifierImplINS4_21DefaultProxyFilterTagEEEvEESQ_E6Object7ReleaseEv = 0x0000000000045a10 + __sdk_start;
_ZN2nn5audio6server24AudioRendererManagerImpl15AudioDeviceImpl27QueryAudioDeviceOutputEventENS_2sf3OutINS4_12NativeHandleEvEE = 0x00000000000aea20 + __sdk_start;
_ZN2nn2sf4hipc6client24Hipc2ClientCoreProcessorILNS1_6detail11MessageTypeE6ENS0_4cmif6detail14CoreMethodInfoINSt3__15tupleIJNS7_17InRawArgumentInfoILm8ELm8ELl8EEENSB_ILm4ELm4ELl4EEENSB_ILm1ELm1ELl0EEEEEELm16ELm0ELb1EEESF_E7ProcessEPNS2_26Hipc2ClientProxyBaseObjectENS6_6client23InRawClientArgumentTypeILm8ELm8EvEENSL_ILm4ELm4EvEENSL_ILm1ELm1EvEEj = 0x00000000002561a0 + __sdk_start;
_ZThn16_N2nn2sf4cmif6client6detail13CmifProxyImplINS_3nim6detail17IShopServiceAsyncENS0_4hipc6client18Hipc2ProxyKindBaseILNS8_6detail11MessageTypeE6EEENS0_30MemoryResourceAllocationPolicyES7_NS3_19ProcessModifierImplINS2_21DefaultProxyFilterTagEEEE17GetCmifBaseObjectEv = 0x000000000018c3a0 + __sdk_start;
_ZN2nn2ec4json7adaptor37ConsumableServiceItemRightDataAdaptor19NotifyObjectEndImplERKNS_4http4json8JsonPathILi8ELi128ELb0EEE = 0x0000000000192550 + __sdk_start;
_ZN2nn3hid6detail24UnsetMouseAutoPilotStateEv = 0x0000000000232720 + __sdk_start;
_ZN2nn7account8FinalizeEv = 0x000000000003b560 + __sdk_start;
_ZN2nn5audio25SetBufferMixerInputOutputEPNS0_15BufferMixerTypeEPKaS4_i = 0x0000000000082250 + __sdk_start;
_ZN2nn9bluetooth24GetBleConnectionInfoListEPNS0_17BleConnectionInfoEi = 0x00000000000cf120 + __sdk_start;
nncodecLibopus_alg_unquant = 0x00000000000ee810 + __sdk_start;
_ZNK2nn3mii6detail15BufferAllocator11GetRestSizeEv = 0x00000000002e2620 + __sdk_start;
nnmem_nlib_wcscplen = 0x00000000002c25f0 + __sdk_start;
_ZN2nn7account49ExternalNetworkServiceAccountIntroducingProcedureD0Ev = 0x000000000004d700 + __sdk_start;
_ZTIN2nn2sf6detail38ObjectImplFactoryWithStatefulAllocatorINS0_4cmif6client6detail9CmifProxyINS_6grcsrv11IMovieMakerENS4_19CmifDomainProxyKindINS0_4hipc6client38Hipc2ClientSessionManagedProxyKindBaseINSB_18Hipc2ProxyKindBaseILNSA_6detail11MessageTypeE6EEEEEEENS0_30MemoryResourceAllocationPolicyENS5_19ProcessModifierImplINS4_21DefaultProxyFilterTagEEEvEESJ_E6ObjectE = 0x0000000000bc6ba0 + __sdk_start;
_ZN2nn5audio6server11EntryAspectD2Ev = 0x00000000000a1f50 + __sdk_start;
_ZN2nn5codec11CreatePsDecEPPNS0_6PS_DECEi = 0x00000000001635f0 + __sdk_start;
_ZN2nn3nfc22KeepPassThroughSessionERKNS0_12DeviceHandleE = 0x00000000002fb4e0 + __sdk_start;
_ZNSt3__121__undeclare_reachableEPv = 0x00000000004924b0 + __sdk_start;
nncodecLibopus_silk_NLSF_VQ_weights_laroia = 0x00000000000f2b50 + __sdk_start;
_ZN2nn2sf4cmif6client6detail13CmifProxyImplINS_4nifm6detail12IScanRequestENS2_19CmifDomainProxyKindINS0_4hipc6client38Hipc2ClientSessionManagedProxyKindBaseINSA_18Hipc2ProxyKindBaseILNS9_6detail11MessageTypeE6EEEEEEENS0_30MemoryResourceAllocationPolicyES7_NS3_19ProcessModifierImplINS2_21DefaultProxyFilterTagEEEE17GetCmifBaseObjectEv = 0x00000000003154f0 + __sdk_start;
_ZN2nn8settings6system25SetInRepairProcessEnabledEb = 0x00000000003467a0 + __sdk_start;
_ZN2nn2fs6detail50DisableSessionForRealtimeOnlyAndChangeSessionCountEi = 0x00000000001f8b10 + __sdk_start;
_ZN2nn2os19InitializeSemaphoreEPNS0_13SemaphoreTypeEii = 0x0000000000327600 + __sdk_start;
_ZN2nn2ec6detail18g_ShopPageArgMutexE = 0x0000000000bd1b68 + __sdk_start;
_ZN2nn4htcs6detail7connectENS_2sf13SharedPointerINS_3tma7ISocketEEEPKNS0_12SockAddrHtcsERi = 0x0000000000268ac0 + __sdk_start;
_ZNK2nn2sf13SharedPointerINS_3ssl2sf11ISslContextEE19FunctionForBoolTypeEv = 0x0000000000378e50 + __sdk_start;
wcslen = 0x00000000004f91d8 + __sdk_start;
_ZN2nn2sf4cmif6client6detail13CmifProxyImplINS_2am7service18ICommonStateGetterENS0_4hipc6client18Hipc2ProxyKindBaseILNS8_6detail11MessageTypeE6EEENS0_30MemoryResourceAllocationPolicyES7_NS3_19ProcessModifierImplINS2_21DefaultProxyFilterTagEEEE27_nn_sf_sync_SetCpuBoostModeEi = 0x0000000000068e40 + __sdk_start;
_ZTIN2nn2ec6detail23ShopServiceAccessServer5ProxyE = 0x0000000000bd1bc0 + __sdk_start;
NvRmStreamPushSetClass = 0x00000000003d3000 + __sdk_start;
_ZN2nn2fs26GetContentStorageMountNameENS0_16ContentStorageIdE = 0x00000000001f68a0 + __sdk_start;
_ZN2nn6socket8resolver10serializer13DNSSerializer6SizeOfINS0_6InAddrEEEmRKT_ = 0x0000000000363250 + __sdk_start;
_ZN2nn5audio6server18PerformanceManager12GetNextEntryEPNS1_25PerformanceEntryAddressesENS0_21PerformanceDetailTypeENS0_20PerformanceEntryTypeEj = 0x00000000000a6e40 + __sdk_start;
_ZN2nn2fs14MountRomOnFileEPKcNS0_10FileHandleEPvm = 0x00000000002134d0 + __sdk_start;
_ZN2nn2sf4cmif6client6detail13CmifProxyImplINS_3apm14ISystemManagerENS0_4hipc6client18Hipc2ProxyKindBaseILNS7_6detail11MessageTypeE6EEENS0_30MemoryResourceAllocationPolicyES6_NS3_19ProcessModifierImplINS2_21DefaultProxyFilterTagEEEE36_nn_sf_sync_ClearLastThrottlingStateEv = 0x000000000007afd0 + __sdk_start;
_ZNK2nn3web10WebSession16NeedsWaitForExitEv = 0x00000000003b5cd0 + __sdk_start;
_ZN2nn2sf4cmif6client6detail13CmifProxyImplINS_2am7service18IAppletProxyCommonENS2_19CmifDomainProxyKindINS0_4hipc6client38Hipc2ClientSessionManagedProxyKindBaseINSA_18Hipc2ProxyKindBaseILNS9_6detail11MessageTypeE6EEEEEEENS0_30MemoryResourceAllocationPolicyENS6_19ILibraryAppletProxyENS3_19ProcessModifierImplINS2_21DefaultProxyFilterTagEEEE29_nn_sf_sync_GetDebugFunctionsENS0_3OutINS0_13SharedPointerINS6_15IDebugFunctionsEEEvEE = 0x000000000005ede0 + __sdk_start;
_ZN2nn3mii6detail16Ver3StoreDataRaw14SetMouthAspectEi = 0x00000000002f0d70 + __sdk_start;
_ZN2nn3mii8DatabaseC2Ev = 0x00000000002f2e00 + __sdk_start;
_ZN2nn2sf6detail38ObjectImplFactoryWithStatefulAllocatorINS0_4cmif6client6detail9CmifProxyINS_6hidbus19IHidbusSystemServerENS0_4hipc6client18Hipc2ProxyKindBaseILNS9_6detail11MessageTypeE6EEENS0_30MemoryResourceAllocationPolicyENS5_19ProcessModifierImplINS4_21DefaultProxyFilterTagEEEvEESF_E6Object12AddReferenceEv = 0x000000000025f480 + __sdk_start;
_ZNSt10bad_typeidD2Ev = 0x00000000004b5860 + __sdk_start;
_ZN2nn2sf4hipc6client24Hipc2ClientCoreProcessorILNS1_6detail11MessageTypeE6ENS0_4cmif6detail14CoreMethodInfoINSt3__15tupleIJNS7_17InRawArgumentInfoILm8ELm4ELl0EEENS7_18BufferArgumentInfoILi0ELi21ELm512EEEEEELm8ELm0ELb0EEESF_E7ProcessEPNS2_26Hipc2ClientProxyBaseObjectENS6_6client23InRawClientArgumentTypeILm8ELm4EvEENSK_24BufferClientArgumentTypeEj = 0x0000000000072330 + __sdk_start;
_ZNK7android6Parcel16enforceInterfaceERKNS_8String16EPNS_14IPCThreadStateE = 0x0000000000008510 + __sdk_start;
_ZN2nn4util41InitializeStreamingCompressDeflateContextEPNS0_28StreamingCompressZlibContextEPvmii = 0x000000000039ad10 + __sdk_start;
nnmem_nlib_memutf32_to_utf8 = 0x00000000002c1e70 + __sdk_start;
_ZN2nn2sf4cmif6client34CmifDomainProxyClientCoreProcessorINS0_4hipc6client38Hipc2ClientSessionManagedProxyKindBaseINS5_18Hipc2ProxyKindBaseILNS4_6detail11MessageTypeE6EEEEENS1_6detail14CoreMethodInfoINSt3__15tupleIJNSC_21OutHandleArgumentInfoILi0ELi1EEENSG_ILi1ELi1EEEEEELm0ELm0ELb0EEESJ_E7ProcessEPNS2_23CmifDomainClientMessageISB_E15ProxyBaseObjectENS2_27OutHandleClientArgumentTypeESQ_j = 0x0000000000315a80 + __sdk_start;
_ZN2nn2sf4cmif6client6detail13CmifProxyImplINS_5visrv2sf21ISystemDisplayServiceENS0_4hipc6client18Hipc2ProxyKindBaseILNS8_6detail11MessageTypeE6EEENS0_30MemoryResourceAllocationPolicyES7_NS3_19ProcessModifierImplINS2_21DefaultProxyFilterTagEEEE35_nn_sf_sync_SetDisplayContrastRatioEmf = 0x00000000003a5bd0 + __sdk_start;
_ZN2nn5album14SaveScreenshotEPKvmNS0_9ImageSizeENS0_16ImageOrientationENS0_17AlbumReportOptionEPKNS_7account3UidEi = 0x0000000000050840 + __sdk_start;
_ZN2nn8irsensor17RunIrLedProcessorERKNS0_14IrCameraHandleERKNS0_20IrLedProcessorConfigE = 0x000000000029da20 + __sdk_start;
__fpclassify = 0x00000000004e4e40 + __sdk_start;
_ZN7android12ConsumerBase23onSidebandStreamChangedEv = 0x000000000001beb0 + __sdk_start;
_ZNSt3__113basic_istreamIwNS_11char_traitsIwEEErsEPNS_15basic_streambufIwS2_EE = 0x0000000000456c38 + __sdk_start;
_ZN2nn3hid6system6detail27CheckFirmwareUpdateRequiredEPNS1_28FirmwareUpdateRequiredReasonENS1_11UniquePadIdE = 0x000000000022e360 + __sdk_start;
NvOsHeapAllocatorFree = 0x00000000003c29d0 + __sdk_start;
_ZNK7android22IGraphicBufferConsumer10BufferItem10getPodSizeEv = 0x00000000000101a0 + __sdk_start;
pthread_attr_setscope = 0x00000000004bcf90 + __sdk_start;
_ZN2nn4util6detail7msgpack22WriteUnsignedInteger16EPNS0_17MessagePackWriter11StreamParamEt = 0x000000000039c9c0 + __sdk_start;
_ZN2nn2ec6detail23ShopServiceAccessServer5ProxyD0Ev = 0x000000000018f2f0 + __sdk_start;
_ZN2nn3mii13AppletManager15SetResultCancelEv = 0x00000000002f7e10 + __sdk_start;
_ZN2nn2sf4cmif6client6detail13CmifProxyImplINS_4pctl6detail3ipc23IParentalControlServiceENS2_19CmifDomainProxyKindINS0_4hipc6client38Hipc2ClientSessionManagedProxyKindBaseINSB_18Hipc2ProxyKindBaseILNSA_6detail11MessageTypeE6EEEEEEENS0_30MemoryResourceAllocationPolicyES8_NS3_19ProcessModifierImplINS2_21DefaultProxyFilterTagEEEE41_nn_sf_sync_ConfirmStereoVisionPermissionEv = 0x0000000000333ae0 + __sdk_start;
_ZN2nn4time13IsInitializedEv = 0x0000000000383060 + __sdk_start;
fnt_RoundToDoubleGrid = 0x00000000001b5cf0 + __sdk_start;
_ZTIN2nn2sf4cmif6client6detail13CmifProxyImplINS_2am7service15IAppletAccessorENS2_19CmifDomainProxyKindINS0_4hipc6client38Hipc2ClientSessionManagedProxyKindBaseINSA_18Hipc2ProxyKindBaseILNS9_6detail11MessageTypeE6EEEEEEENS0_30MemoryResourceAllocationPolicyENS6_22ILibraryAppletAccessorENS3_19ProcessModifierImplINS2_21DefaultProxyFilterTagEEEEE = 0x0000000000bc5580 + __sdk_start;
_ZN2nn8settings6system20IsUsb30DeviceEnabledEv = 0x000000000034a170 + __sdk_start;
NvRmMemHandleExportForAruid = 0x00000000003cff10 + __sdk_start;
NvRmGpuDeviceGetCpuTimeCorrelationInfo = 0x00000000003ee8f0 + __sdk_start;
_ZNK2nn4nifm6detail13RequestClient11GetSubmitIdEPj = 0x0000000000313470 + __sdk_start;
_ZN2nn8settings6system28NeedsToUpdateHeadphoneVolumeEPbPab = 0x00000000003460b0 + __sdk_start;
comp_phantom_points = 0x00000000001bc610 + __sdk_start;
_ZN2nn2sf4cmif6client6detail13CmifProxyImplINS_3hid10IHidServerENS0_4hipc6client18Hipc2ProxyKindBaseILNS7_6detail11MessageTypeE6EEENS0_25StatelessAllocationPolicyINS0_22ExpHeapStaticAllocatorILm16384ENS5_6detail9HidServerEEEEES6_NS3_19ProcessModifierImplINS2_21DefaultProxyFilterTagEEEE29_nn_sf_sync_PlayPalmaActivityENS5_21PalmaConnectionHandleEm = 0x00000000002557d0 + __sdk_start;
_ZN2nn3ldn15OpenAccessPointEv = 0x00000000002b62e0 + __sdk_start;
_ZN2nn3hid14GetMouseStatesEPNS0_10MouseStateEi = 0x00000000002466f0 + __sdk_start;
_ZN7android10VectorImpl8insertAtEPKvmm = 0x0000000000038990 + __sdk_start;
_ZN2nn2fs15DeleteDirectoryEPKc = 0x00000000001f1b10 + __sdk_start;
_ZN2nn2sf4cmif6client6detail13CmifProxyImplINS_3nim6detail17IShopServiceAsyncENS0_4hipc6client18Hipc2ProxyKindBaseILNS8_6detail11MessageTypeE6EEENS0_30MemoryResourceAllocationPolicyES7_NS3_19ProcessModifierImplINS2_21DefaultProxyFilterTagEEEE19_nn_sf_sync_RequestEv = 0x000000000018c340 + __sdk_start;
_ZN2nn4time6detail4util10IsLeapYearEi = 0x000000000038a800 + __sdk_start;
_ZNSt3__113basic_ostreamIcNS_11char_traitsIcEEE6sentryC2ERS3_ = 0x00000000004594b8 + __sdk_start;
__nnmusl_FileStat = 0x0000000000505000 + __sdk_start;
_ZN2nn2os6detail26MultiWaitHolderOfSemaphore20RemoveFromObjectListEv = 0x000000000032ba20 + __sdk_start;
_ZThn32_N2nn2sf4cmif6client6detail13CmifProxyImplINS_2am7service21IApplicationFunctionsENS2_19CmifDomainProxyKindINS0_4hipc6client38Hipc2ClientSessionManagedProxyKindBaseINSA_18Hipc2ProxyKindBaseILNS9_6detail11MessageTypeE6EEEEEEENS0_30MemoryResourceAllocationPolicyES7_NS3_19ProcessModifierImplINS2_21DefaultProxyFilterTagEEEE17GetCmifBaseObjectEv = 0x00000000000628c0 + __sdk_start;
_ZN2nn2sf4cmif6client6detail13CmifProxyImplINS_2am7service25IProcessWindingControllerENS0_4hipc6client18Hipc2ProxyKindBaseILNS8_6detail11MessageTypeE6EEENS0_30MemoryResourceAllocationPolicyES7_NS3_19ProcessModifierImplINS2_21DefaultProxyFilterTagEEEE33_nn_sf_sync_ReserveToStartAndWaitENS0_13SharedPointerINS6_22ILibraryAppletAccessorEEE = 0x000000000006ea70 + __sdk_start;
_ZN2nn2sf6detail38ObjectImplFactoryWithStatefulAllocatorINS0_4cmif6client6detail9CmifProxyINS_2am7service17IOverlayFunctionsENS4_19CmifDomainProxyKindINS0_4hipc6client38Hipc2ClientSessionManagedProxyKindBaseINSC_18Hipc2ProxyKindBaseILNSB_6detail11MessageTypeE6EEEEEEENS0_30MemoryResourceAllocationPolicyENS5_19ProcessModifierImplINS4_21DefaultProxyFilterTagEEEvEESK_E6Object12AddReferenceEv = 0x00000000000615b0 + __sdk_start;
_ZN2nn4nifm30PersistTemporaryNetworkProfileENS0_20NetworkProfileHandleE = 0x0000000000319e30 + __sdk_start;
_ZN2nn8settings6detail15GetEciDeviceKeyEPNS0_7factory16EccB233DeviceKeyE = 0x000000000034c920 + __sdk_start;
_ZNSt3__112basic_stringIwNS_11char_traitsIwEENS_9allocatorIwEEE6insertEmmw = 0x00000000004975d0 + __sdk_start;
wctob = 0x00000000004e8b30 + __sdk_start;
__nnmusl_pthread_rwlock_tryrdlock = 0x00000000005089f8 + __sdk_start;
_ZN2nn5audio29GetI3dl2ReverbReflectionsGainEPKNS0_15I3dl2ReverbTypeE = 0x00000000000837d0 + __sdk_start;
nnmem_nlib_int16_from_chars = 0x00000000002cefb0 + __sdk_start;
_ZTIN2nn3tma7ISocketE = 0x0000000000bd9350 + __sdk_start;
_ZNK2nn3mii6detail11CoreDataRaw12GetNoseScaleEv = 0x00000000002e7150 + __sdk_start;
_ZN2nn3mii6detail16Ver3StoreDataRaw13SetMiiVersionEi = 0x00000000002f0ac0 + __sdk_start;
_ZTVN2nn3hid23VibrationNodeConnectionE = 0x0000000000bd6ce0 + __sdk_start;
NvRmSurfaceComputePitch = 0x00000000003cbde0 + __sdk_start;
_ZN7android23BnSurfaceComposerClient10onTransactEjRKNS_6ParcelEPS1_j = 0x0000000000023d00 + __sdk_start;
_ZN7android4Rect8offsetToEii = 0x0000000000030230 + __sdk_start;
__nnmusl_force_subf = 0x00000000004c5630 + __sdk_start;
__memcpy_fast = 0x00000000004cbac8 + __sdk_start;
_ZNK2nn8irsensor6detail13StatusManager17GetIrCameraStatusERKNS0_14IrCameraHandleE = 0x0000000000299690 + __sdk_start;
nnsocketFreeAddrInfo = 0x0000000000360e80 + __sdk_start;
_ZN2nn9bluetooth4user13SetLeResponseEhNS0_17GattAttributeUuidES2_PKht = 0x00000000000cc6c0 + __sdk_start;
_ZN2nn5audio17MemoryPoolManager7AcquireEPvm = 0x0000000000085dc0 + __sdk_start;
_ZN2nn7account13ProfileEditorC2Ev = 0x000000000004d920 + __sdk_start;
_ZN2nn7friends12UserPresence15SetAppValueImplEPKcS3_ = 0x00000000001dbda0 + __sdk_start;
_ZNSt3__18ios_base7failureD2Ev = 0x000000000045d920 + __sdk_start;
_ZN2nn2sf4cmif6client6detail13CmifProxyImplINS_2am7service22IGlobalStateControllerENS2_19CmifDomainProxyKindINS0_4hipc6client38Hipc2ClientSessionManagedProxyKindBaseINSA_18Hipc2ProxyKindBaseILNS9_6detail11MessageTypeE6EEEEEEENS0_30MemoryResourceAllocationPolicyES7_NS3_19ProcessModifierImplINS2_21DefaultProxyFilterTagEEEE30_nn_sf_sync_StartSleepSequenceEb = 0x000000000005e080 + __sdk_start;
_ZN2nn3mii6detail14CalculateCrc16EPKvit = 0x00000000002e8370 + __sdk_start;
_ZN2nn6applet25SetStartLibraryAppletHookEPFbNS_2sf13SharedPointerINS_2am7service22ILibraryAppletAccessorEEENS0_8AppletIdENS0_17LibraryAppletModeEPvE = 0x000000000007baf0 + __sdk_start;
_ZN2nn8settings6system13GetLdnChannelEv = 0x00000000003482e0 + __sdk_start;
NvUAlloc0 = 0x00000000003be5f0 + __sdk_start;
_ZN2nn7account33ExternalNetworkServiceAccountInfoC2EOS1_ = 0x0000000000049da0 + __sdk_start;
sbrDecoder_Header = 0x000000000016e510 + __sdk_start;
nncodecLibopus_haar1 = 0x00000000000d91e0 + __sdk_start;
fs__malloc = 0x00000000001a4730 + __sdk_start;
NvRmGpuRegOpsSessionCreateChannelless = 0x00000000003eea20 + __sdk_start;
_ZN2nn5codec13lppTransposerEPNS0_13SBR_LPP_TRANSEPNS0_16QMF_SCALE_FACTOREPPiS5_S6_iiiiiPNS0_9INVF_MODEES8_ = 0x000000000015f480 + __sdk_start;
_ZN2nn2sf4cmif6client6detail13CmifProxyImplINS_8settings21ISystemSettingsServerENS0_4hipc6client18Hipc2ProxyKindBaseILNS7_6detail11MessageTypeE6EEENS0_30MemoryResourceAllocationPolicyES6_NS3_19ProcessModifierImplINS2_21DefaultProxyFilterTagEEEE17GetCmifBaseObjectEv = 0x0000000000343020 + __sdk_start;
_ZN2nn2fs26GetApplicationSaveDataSizeEPlS1_NS_3ncm13ApplicationIdENS0_12SaveDataTypeERKNS_7account3UidE = 0x00000000002282b0 + __sdk_start;
_ZN2nn7account8NotifierC2Ev = 0x000000000004cf60 + __sdk_start;
_ZTIN2nn2sf6detail38ObjectImplFactoryWithStatefulAllocatorINS0_4cmif6client6detail9CmifProxyINS_7friends6detail3ipc14IFriendServiceENS4_19CmifDomainProxyKindINS0_4hipc6client38Hipc2ClientSessionManagedProxyKindBaseINSD_18Hipc2ProxyKindBaseILNSC_6detail11MessageTypeE6EEEEEEENS0_30MemoryResourceAllocationPolicyENS5_19ProcessModifierImplINS4_21DefaultProxyFilterTagEEEvEESL_E6ObjectE = 0x0000000000bd2a10 + __sdk_start;
_ZN2nn4nifm6detail13RequestClient14SetRawPriorityEh = 0x0000000000313530 + __sdk_start;
_ZN2nn2fs16SaveDataIteratorC2EONS_2sf13SharedPointerINS_5fssrv2sf19ISaveDataInfoReaderEEE = 0x0000000000215290 + __sdk_start;
_ZN2nn2sf4cmif6client6detail13CmifProxyImplINS_7account4baas14IAdministratorENS2_19CmifDomainProxyKindINS0_4hipc6client38Hipc2ClientSessionManagedProxyKindBaseINSA_18Hipc2ProxyKindBaseILNS9_6detail11MessageTypeE6EEEEEEENS0_25StatelessAllocationPolicyINS0_22ExpHeapStaticAllocatorILm2048ENS5_6detail12ObjectHolder24ObjectHolderAllocatorTagEEEEES7_NS3_19ProcessModifierImplINS2_21DefaultProxyFilterTagEEEE43_nn_sf_sync_DebugSetAvailabilityErrorDetailEj = 0x0000000000046e60 + __sdk_start;
nncodecLibopus_silk_NLSF_decode = 0x00000000000f2c40 + __sdk_start;
_ZN2nn6crypto16DecryptAes128CbcEPvmPKvmS3_mS3_m = 0x0000000000172020 + __sdk_start;
_ZN2nn9bluetooth22RegisterLeCoreDataPathERKNS0_17GattAttributeUuidE = 0x00000000000cbd50 + __sdk_start;
_ZN2nn2sf4cmif6client6detail13CmifProxyImplINS_4npns9INpnsUserENS0_4hipc6client18Hipc2ProxyKindBaseILNS7_6detail11MessageTypeE6EEENS0_30MemoryResourceAllocationPolicyES6_NS3_19ProcessModifierImplINS2_21DefaultProxyFilterTagEEEE24_nn_sf_sync_DestroyTokenERKNS_7account3UidEm = 0x000000000031c6d0 + __sdk_start;
_ZTIN2nn3ldn6detail30IUserLocalCommunicationServiceE = 0x0000000000bdaa00 + __sdk_start;
_ZN22nerd_gillette_internal5otete9SerializeINS0_15BitStreamReaderINS0_14InputBitStreamEEEEEbRNS0_5plato21PlatoReflectionPacketERT_ = 0x00000000002a4e80 + __sdk_start;
_ZN2nn5audio3dsp17SendCommandBufferEimmibm = 0x00000000000b2780 + __sdk_start;
_ZZN2nn2sf40SimpleAllInOneHipcSubDomainClientManagerILm27EE27InitializeShimLibraryHolderINS_4bcat6detail3ipc15IServiceCreatorENS0_4cmif6client6detail19ProcessModifierImplINS9_21DefaultProxyFilterTagEEEEENS_6ResultEPNS0_23ShimLibraryObjectHolderIT_EEPKcPNS_14MemoryResourceEENKUlPvE_clESN_ = 0x00000000000c4d50 + __sdk_start;
_ZN7android16ISurfaceComposerD1Ev = 0x0000000000020150 + __sdk_start;
_ZN2nn2sf4cmif6client6detail13CmifProxyImplINS_2am7service25IProcessWindingControllerENS0_4hipc6client18Hipc2ProxyKindBaseILNS8_6detail11MessageTypeE6EEENS0_30MemoryResourceAllocationPolicyES7_NS3_19ProcessModifierImplINS2_21DefaultProxyFilterTagEEEE12GetProxyInfoEv = 0x000000000006e820 + __sdk_start;
_ZN2nn8settings6detail28GetWirelessCertificationFileEPmPvm = 0x00000000003500c0 + __sdk_start;
FSS_new_client = 0x00000000001a3900 + __sdk_start;
_ZNSt3__124__libcpp_debug_exceptionC2Ev = 0x000000000044e158 + __sdk_start;
nnmem_nlib_mq_getattr = 0x00000000002c54a0 + __sdk_start;
_ZN2nn5album14LoadAlbumImageEPiS1_PvmS2_mRKNS0_14AlbumFileEntryE = 0x000000000004e450 + __sdk_start;
_ZN22nerd_gillette_internal5otete7jaimev219DecodePacketModeROKERNS0_4ModeEPKhmPm = 0x00000000002a27a0 + __sdk_start;
_ZN2nn4diag6detail9nnText_osEPKc = 0x00000000001814a0 + __sdk_start;
_ZN2nn2sf4cmif6client6detail13CmifProxyImplINS_7timesrv6detail7service16ITimeZoneServiceENS2_19CmifDomainProxyKindINS0_4hipc6client38Hipc2ClientSessionManagedProxyKindBaseINSB_18Hipc2ProxyKindBaseILNSA_6detail11MessageTypeE6EEEEEEENS0_30MemoryResourceAllocationPolicyES8_NS3_19ProcessModifierImplINS2_21DefaultProxyFilterTagEEEE33_nn_sf_sync_ToPosixTimeWithMyRuleENS0_3OutIivEERKNS0_8OutArrayINS_4time9PosixTimeEEENSR_12CalendarTimeE = 0x0000000000388f50 + __sdk_start;
_ZN2nn3hid6detail16ActivateIrSensorERjNS_6applet20AppletResourceUserIdE = 0x0000000000237af0 + __sdk_start;
_ZN2nn6crypto6detail6BigNum3SubEPjPKjS5_i = 0x0000000000173ca0 + __sdk_start;
_ZN2nn2sf4cmif6client6detail13CmifProxyImplINS_2am7service13ILockAccessorENS0_4hipc6client18Hipc2ProxyKindBaseILNS8_6detail11MessageTypeE6EEENS0_30MemoryResourceAllocationPolicyES7_NS3_19ProcessModifierImplINS2_21DefaultProxyFilterTagEEEE17GetCmifBaseObjectEv = 0x0000000000069520 + __sdk_start;
_ZN2nn2sf4cmif6client6detail13CmifProxyImplINS_2am7service18IDisplayControllerENS0_4hipc6client18Hipc2ProxyKindBaseILNS8_6detail11MessageTypeE6EEENS0_30MemoryResourceAllocationPolicyES7_NS3_19ProcessModifierImplINS2_21DefaultProxyFilterTagEEEE52_nn_sf_sync_ReleaseLastForegroundCaptureSharedBufferEv = 0x000000000006cb80 + __sdk_start;
_ZN2nn3ldn18MakeNetworkAddressENS0_11Ipv4AddressENS0_10SubnetMaskE = 0x00000000002b6d60 + __sdk_start;
_ZTv0_n24_N7android10IInterfaceD0Ev = 0x0000000000001fc0 + __sdk_start;
_ZTIN2nn2sf4cmif6server23CmifServerDomainManagerE = 0x0000000000be2698 + __sdk_start;
_ZN2nn3ldn17ClearAcceptFilterEv = 0x00000000002b65e0 + __sdk_start;
_ZN2nn3hid6detail23DetachHdlsVirtualDeviceERKNS0_5debug10HdlsHandleE = 0x000000000022f3b0 + __sdk_start;
_ZN2nn2sf4cmif6client6detail13CmifProxyImplINS_4bcat6detail3ipc25IDeliveryCacheFileServiceENS2_19CmifDomainProxyKindINS0_4hipc6client38Hipc2ClientSessionManagedProxyKindBaseINSB_18Hipc2ProxyKindBaseILNSA_6detail11MessageTypeE6EEEEEEENS0_30MemoryResourceAllocationPolicyES8_NS3_19ProcessModifierImplINS2_21DefaultProxyFilterTagEEEE21_nn_sf_sync_GetDigestENS0_3OutINS5_6DigestEvEE = 0x00000000000c47b0 + __sdk_start;
_ZN2nn2sf4cmif6client6detail13CmifProxyImplINS_8settings21ISystemSettingsServerENS0_4hipc6client18Hipc2ProxyKindBaseILNS7_6detail11MessageTypeE6EEENS0_30MemoryResourceAllocationPolicyES6_NS3_19ProcessModifierImplINS2_21DefaultProxyFilterTagEEEE40_nn_sf_sync_SetNetworkSystemClockContextERKNS_4time18SystemClockContextE = 0x0000000000341f30 + __sdk_start;
nnosInitializeMultiWaitHolderForEvent = 0x0000000000329430 + __sdk_start;
_ZN2nn2sf4cmif6client6detail13CmifProxyImplINS_6grcsrv11IMovieMakerENS2_19CmifDomainProxyKindINS0_4hipc6client38Hipc2ClientSessionManagedProxyKindBaseINS9_18Hipc2ProxyKindBaseILNS8_6detail11MessageTypeE6EEEEEEENS0_30MemoryResourceAllocationPolicyES6_NS3_19ProcessModifierImplINS2_21DefaultProxyFilterTagEEEE30_nn_sf_sync_OpenOffscreenLayerENS0_3OutIivEEm = 0x00000000000644c0 + __sdk_start;
_ZNSt3__17__sort5IRNS_6__lessIyyEEPyEEjT0_S5_S5_S5_S5_T_ = 0x000000000044a7e0 + __sdk_start;
_ZN2nn4diag14OnResultHandleENS_6ResultERKNS0_10SourceInfoE = 0x000000000017fb90 + __sdk_start;
_ZN2nn4lmem18InvalidateUnitHeapEPNS0_6detail8HeapHeadE = 0x00000000002bbdd0 + __sdk_start;
_ZN2nn5audio21GetDelayChannelSpreadEPKNS0_9DelayTypeE = 0x0000000000082d70 + __sdk_start;
_ZN2nn3hid6detail28DisableExternalMcuOnNxDeviceEb = 0x00000000002380d0 + __sdk_start;
NvRmSurfaceGetYuvColorFormat = 0x00000000003cbcc0 + __sdk_start;
_ZN2nn3ngc19ProfanityFilterBase24GetPatternBitsFromRegionEbb = 0x0000000000306570 + __sdk_start;
_ZN2nn2sf4cmif6client6detail36GetClientProcessorImplWithObjectBaseINS2_19CmifDomainProxyKindINS0_4hipc6client38Hipc2ClientSessionManagedProxyKindBaseINS7_18Hipc2ProxyKindBaseILNS6_6detail11MessageTypeE6EEEEEEENS3_19ProcessModifierImplINS2_21DefaultProxyFilterTagEEEE14ObjectAssignerINS0_30MemoryResourceAllocationPolicyENS_14MemoryResourceEE14AllocateObjectINS_2am7service26ILibraryAppletSelfAccessorEEEvi = 0x000000000005f120 + __sdk_start;
_ZNK2nn5audio6server10PoolMapper6UpdateEPNS1_14MemoryPoolInfoEPKNS0_14MemoryPoolInfo11InParameterEPNS5_9OutStatusE = 0x00000000000a90d0 + __sdk_start;
_ZN2nn8settings6detail13GetColorSetIdEPi = 0x000000000034f6a0 + __sdk_start;
__isoc99_swscanf = 0x00000000004f4048 + __sdk_start;
_ZN2nn2sf4cmif6client6detail13CmifProxyImplINS_2am7service25IProcessWindingControllerENS2_19CmifDomainProxyKindINS0_4hipc6client38Hipc2ClientSessionManagedProxyKindBaseINSA_18Hipc2ProxyKindBaseILNS9_6detail11MessageTypeE6EEEEEEENS0_30MemoryResourceAllocationPolicyES7_NS3_19ProcessModifierImplINS2_21DefaultProxyFilterTagEEEE12GetProxyInfoEv = 0x000000000005c5b0 + __sdk_start;
sync_create_nvrm_mapping = 0x000000000002d900 + __sdk_start;
_ZN2nn3web16ShowSharePageArgC2Ev = 0x000000000035e160 + __sdk_start;
_ZN2nn8irsensor6detail15IrSensorSession20FinalizeSharedMemoryEv = 0x000000000029cbb0 + __sdk_start;
_ZN2nn2fs16SaveDataImporter15GetSaveDataInfoEv = 0x000000000021d890 + __sdk_start;
_ZN2nn4util15FileInputStreamD1Ev = 0x00000000003a3190 + __sdk_start;
_ZN2nn2sf4cmif6client6detail13CmifProxyImplINS_2am7service18ICommonStateGetterENS2_19CmifDomainProxyKindINS0_4hipc6client38Hipc2ClientSessionManagedProxyKindBaseINSA_18Hipc2ProxyKindBaseILNS9_6detail11MessageTypeE6EEEEEEENS0_30MemoryResourceAllocationPolicyES7_NS3_19ProcessModifierImplINS2_21DefaultProxyFilterTagEEEE27_nn_sf_sync_SetCpuBoostModeEi = 0x0000000000057640 + __sdk_start;
_ZN2nn2sf4cmif6client6detail36GetClientProcessorImplWithObjectBaseINS0_4hipc6client18Hipc2ProxyKindBaseILNS5_6detail11MessageTypeE6EEENS3_19ProcessModifierImplINS2_21DefaultProxyFilterTagEEEE14ObjectAssignerINS0_30MemoryResourceAllocationPolicyENS_14MemoryResourceEE14AllocateObjectINS_2am7service22ILibraryAppletAccessorEEEvi = 0x000000000006ebf0 + __sdk_start;
_ZTIN2nn2sf4cmif6client6detail9CmifProxyINS_3mii6detail21IImageDatabaseServiceENS0_4hipc6client18Hipc2ProxyKindBaseILNS8_6detail11MessageTypeE6EEENS0_30MemoryResourceAllocationPolicyENS3_19ProcessModifierImplINS2_21DefaultProxyFilterTagEEEvEE = 0x0000000000bdc8a0 + __sdk_start;
_IO_putc = 0x00000000004f3b90 + __sdk_start;
_ZTVN2nn3ssl6detail10SslApiBaseE = 0x0000000000be3b50 + __sdk_start;
nvdcutilDsiPacketRead = 0x00000000003ba230 + __sdk_start;
_ZN2nn2sf4cmif6client6detail13CmifProxyImplINS_8settings22IFactorySettingsServerENS0_4hipc6client18Hipc2ProxyKindBaseILNS7_6detail11MessageTypeE6EEENS0_30MemoryResourceAllocationPolicyES6_NS3_19ProcessModifierImplINS2_21DefaultProxyFilterTagEEEE27_nn_sf_sync_GetSerialNumberENS0_3OutINS5_7factory12SerialNumberEvEE = 0x0000000000351710 + __sdk_start;
_ZN2nn3hid6detail30EnableAppletToGetSixAxisSensorERKNS_6applet20AppletResourceUserIdEb = 0x000000000022aa30 + __sdk_start;
_ZTVNSt3__115time_get_bynameIcNS_19istreambuf_iteratorIcNS_11char_traitsIcEEEEEE = 0x0000000000bebf08 + __sdk_start;
_ZN2nn6crypto6detail10Sha256Impl6UpdateEPKvm = 0x000000000017b9d0 + __sdk_start;
_ZN2nn2sf4cmif6client6detail13CmifProxyImplINS_2am7service18ICommonStateGetterENS2_19CmifDomainProxyKindINS0_4hipc6client38Hipc2ClientSessionManagedProxyKindBaseINSA_18Hipc2ProxyKindBaseILNS9_6detail11MessageTypeE6EEEEEEENS0_30MemoryResourceAllocationPolicyES7_NS3_19ProcessModifierImplINS2_21DefaultProxyFilterTagEEEE36_nn_sf_sync_SetLcdBacklighOffEnabledEb = 0x00000000000574d0 + __sdk_start;
_ZN2nn7friends6detail20AsyncContextInternal11IsCompletedEv = 0x00000000001ddac0 + __sdk_start;
_ZN2nn2sf4cmif6client6detail13CmifProxyImplINS_7timesrv6detail7service14IStaticServiceENS2_19CmifDomainProxyKindINS0_4hipc6client38Hipc2ClientSessionManagedProxyKindBaseINSB_18Hipc2ProxyKindBaseILNSA_6detail11MessageTypeE6EEEEEEENS0_30MemoryResourceAllocationPolicyES8_NS3_19ProcessModifierImplINS2_21DefaultProxyFilterTagEEEE64_nn_sf_sync_SetStandardUserSystemClockAutomaticCorrectionEnabledEb = 0x00000000003882d0 + __sdk_start;
_ZN2nn2sf6detail39ObjectImplFactoryWithStatelessAllocatorINS0_4cmif6client6detail9CmifProxyINS_3hid10IHidServerENS0_4hipc6client18Hipc2ProxyKindBaseILNS9_6detail11MessageTypeE6EEENS0_25StatelessAllocationPolicyINS0_22ExpHeapStaticAllocatorILm16384ENS7_6detail9HidServerEEEEENS5_19ProcessModifierImplINS4_21DefaultProxyFilterTagEEEvEESK_E6Object7ReleaseEv = 0x0000000000254670 + __sdk_start;
_ZN7android12ConsumerBase13abandonLockedEv = 0x000000000001bec0 + __sdk_start;
_ZTINSt3__115time_get_bynameIwNS_19istreambuf_iteratorIwNS_11char_traitsIwEEEEEE = 0x0000000000bedc30 + __sdk_start;
_ZN2nn2fs18CreateCacheStorageENS_3ncm13ApplicationIdENS0_15SaveDataSpaceIdEmllj = 0x00000000002164c0 + __sdk_start;
_ZN2nn2os6detail17MemoryHeapManager13ReleaseToHeapEmm = 0x000000000032af70 + __sdk_start;
_ZN2nn2sf4hipc6client24Hipc2ClientCoreProcessorILNS1_6detail11MessageTypeE6ENS0_4cmif6detail14CoreMethodInfoINSt3__15tupleIJNS7_18BufferArgumentInfoILi0ELi21ELm128EEEEEELm0ELm0ELb0EEESD_E7ProcessEPNS2_26Hipc2ClientProxyBaseObjectENS6_6client24BufferClientArgumentTypeEj = 0x0000000000344ba0 + __sdk_start;
_ZNSt3__119__shared_weak_count12__add_sharedEv = 0x0000000000492190 + __sdk_start;
_ZN2nn4lmem6detail13FreeToExpHeapEPNS1_8HeapHeadEPv = 0x00000000002bc680 + __sdk_start;
_ZN2nn5codec19ToggleReadDirectionEh = 0x0000000000126f80 + __sdk_start;
_ZN2nn8settings6detail24GetSettingsItemValueSizeEPmPKcS4_ = 0x000000000033f9c0 + __sdk_start;
_ZN2nn3hid32ResetSevenSixAxisSensorTimestampEv = 0x0000000000243b30 + __sdk_start;
_ZN2nn2sf4cmif6client6detail13CmifProxyImplINS_7account4baas12IManagerBaseENS2_19CmifDomainProxyKindINS0_4hipc6client38Hipc2ClientSessionManagedProxyKindBaseINSA_18Hipc2ProxyKindBaseILNS9_6detail11MessageTypeE6EEEEEEENS0_25StatelessAllocationPolicyINS0_22ExpHeapStaticAllocatorILm2048ENS5_6detail12ObjectHolder24ObjectHolderAllocatorTagEEEEENS6_24IManagerForSystemServiceENS3_19ProcessModifierImplINS2_21DefaultProxyFilterTagEEEE35_nn_sf_sync_EnsureIdTokenCacheAsyncENS0_3OutINS0_13SharedPointerINSK_13IAsyncContextEEEvEE = 0x00000000000422e0 + __sdk_start;
_ZN2nn2sf4cmif6client6detail13CmifProxyImplINS_7account24IBaasAccessTokenAccessorENS2_19CmifDomainProxyKindINS0_4hipc6client38Hipc2ClientSessionManagedProxyKindBaseINS9_18Hipc2ProxyKindBaseILNS8_6detail11MessageTypeE6EEEEEEENS0_30MemoryResourceAllocationPolicyES6_NS3_19ProcessModifierImplINS2_21DefaultProxyFilterTagEEEE28_nn_sf_sync_EnsureCacheAsyncENS0_3OutINS0_13SharedPointerINS5_6detail13IAsyncContextEEEvEERKNS5_3UidE = 0x00000000000492d0 + __sdk_start;
_ZTIN2nn2sf6detail38ObjectImplFactoryWithStatefulAllocatorINS0_4cmif6client6detail9CmifProxyINS_2am7service26ILibraryAppletSelfAccessorENS0_4hipc6client18Hipc2ProxyKindBaseILNSA_6detail11MessageTypeE6EEENS0_30MemoryResourceAllocationPolicyENS5_19ProcessModifierImplINS4_21DefaultProxyFilterTagEEEvEESG_E6ObjectE = 0x0000000000bc96a0 + __sdk_start;
_ZN7android13GraphicBufferD1Ev = 0x000000000002eb00 + __sdk_start;
_ZN2nn3ngc6detail12OutputStream14GetWorkBuffer_Ev = 0x000000000030d140 + __sdk_start;
_ZN2nn2sf4cmif6client6detail13CmifProxyImplINS_2am7service21IApplicationFunctionsENS2_19CmifDomainProxyKindINS0_4hipc6client38Hipc2ClientSessionManagedProxyKindBaseINSA_18Hipc2ProxyKindBaseILNS9_6detail11MessageTypeE6EEEEEEENS0_30MemoryResourceAllocationPolicyES7_NS3_19ProcessModifierImplINS2_21DefaultProxyFilterTagEEEE30_nn_sf_sync_GetDesiredLanguageENS0_3OutINS_8settings12LanguageCodeEvEE = 0x0000000000062260 + __sdk_start;
_ZNK7android7String811getPathLeafEv = 0x00000000000366b0 + __sdk_start;
_ZN2nn5image11JpegEncoder7AnalyzeEv = 0x00000000002950d0 + __sdk_start;
_ZN2nn7nlibsdk4heap10CachedHeap15ReleaseAllCacheEv = 0x00000000002ddef0 + __sdk_start;
_ZN2nn2oe34EnableAllThreadDumpOnCrashForDebugEb = 0x0000000000321c20 + __sdk_start;
_ZN2nn2sf4hipc6client24Hipc2ClientCoreProcessorILNS1_6detail11MessageTypeE6ENS0_4cmif6detail14CoreMethodInfoINSt3__15tupleIJNS7_18BufferArgumentInfoILi0ELi21ELm256EEEEEELm0ELm0ELb0EEESD_E7ProcessEPNS2_26Hipc2ClientProxyBaseObjectENS6_6client24BufferClientArgumentTypeEj = 0x0000000000341170 + __sdk_start;
NvRmSurfaceGetDecompressionPolicy = 0x00000000003cbb40 + __sdk_start;
_ZN2nn4util6detail19FileInputStreamImpl4ReadEPmPvm = 0x00000000003a24b0 + __sdk_start;
nncodecLibopus_celt_lcg_rand = 0x00000000000d8410 + __sdk_start;
_ZN2nn2ec6detail18ShowShopCouponImplENS1_10LaunchModeENS0_8CouponIdERKNS_7account3UidENS0_8SourceIdE = 0x000000000018dd90 + __sdk_start;
FS_strdup = 0x000000000019a850 + __sdk_start;
_ZN2nn3hid6detail24GetAccelerometerPlayModeEPNS0_21AccelerometerPlayModeENS0_19SixAxisSensorHandleE = 0x00000000002358f0 + __sdk_start;
_ZN2nn2am28CreateDebugFunctionsForDebugEv = 0x0000000000055740 + __sdk_start;
_ZN2nn2sf4cmif6client6detail13CmifProxyImplINS_2am7service31ISystemAppletControllerForDebugENS0_4hipc6client18Hipc2ProxyKindBaseILNS8_6detail11MessageTypeE6EEENS0_30MemoryResourceAllocationPolicyES7_NS3_19ProcessModifierImplINS2_21DefaultProxyFilterTagEEEE44_nn_sf_sync_RequestLaunchApplicationForDebugENS_3ncm13ApplicationIdERKNS0_7InArrayINS_7account3UidEEE = 0x0000000000077eb0 + __sdk_start;
_ZN2nn3hid6detail25GetVibrationDeviceHandlesEPNS0_21VibrationDeviceHandleEPiijNS_4util10BitFlagSetILi32ENS0_12NpadStyleTagEEE = 0x0000000000242640 + __sdk_start;
_ZN2nn3hid5debug19FinalizeSleepButtonEv = 0x000000000024a080 + __sdk_start;
_ZN2nn2vi20SetDisplayPowerStateEPNS0_7DisplayENS0_10PowerStateE = 0x00000000003ab1b0 + __sdk_start;
__nnmusl_GetPID = 0x0000000000507728 + __sdk_start;
nnmem_nlib_snwprintf = 0x00000000002bf200 + __sdk_start;
_ZTIN2nn7account3nas40IOAuthProcedureForNintendoAccountLinkageE = 0x0000000000bbeee0 + __sdk_start;
_ZN2nn5audio15PerformanceInfoC1Ev = 0x0000000000086b60 + __sdk_start;
_ZN7android21SurfaceComposerClient8setAlphaERKNS_2spINS_7IBinderEEEf = 0x000000000002b300 + __sdk_start;
_ZNKSt3__117moneypunct_bynameIwLb1EE14do_frac_digitsEv = 0x0000000000475d08 + __sdk_start;
_ZN2nn5image6detail4jpeg19jpeg_read_scanlinesEPNS2_22jpeg_decompress_structEPPhi = 0x000000000027b080 + __sdk_start;
_ZN2nn5audio6server9VoiceInfoC1Ev = 0x00000000000abdf0 + __sdk_start;
_ZN2nn2sf4cmif6client6detail13CmifProxyImplINS_3ssl2sf14ISslConnectionENS2_19CmifDomainProxyKindINS0_4hipc6client38Hipc2ClientSessionManagedProxyKindBaseINSA_18Hipc2ProxyKindBaseILNS9_6detail11MessageTypeE6EEEEEEENS0_24StatefulAllocationPolicyINS0_16ExpHeapAllocatorEEES7_NS3_19ProcessModifierImplINS2_21DefaultProxyFilterTagEEEE16_nn_sf_sync_ReadENS0_3OutIjvEERKNS0_9OutBufferE = 0x000000000037cb30 + __sdk_start;
native_handle_delete = 0x000000000000ffb0 + __sdk_start;
_ZTIN7android7BBinderE = 0x0000000000bb1200 + __sdk_start;
_ZN2nn5image6detail4jpeg20jpeg_finish_compressEPNS2_20jpeg_compress_structE = 0x000000000026c750 + __sdk_start;
_ZN2nn4npns14SubscribeTopicEPKc = 0x000000000031b7a0 + __sdk_start;
_ZThn16_N2nn2sf4cmif6client6detail13CmifProxyImplINS_3ntc6detail7service38IEnsureNetworkClockAvailabilityServiceENS0_4hipc6client18Hipc2ProxyKindBaseILNS9_6detail11MessageTypeE6EEENS0_30MemoryResourceAllocationPolicyES8_NS3_19ProcessModifierImplINS2_21DefaultProxyFilterTagEEEE17GetCmifBaseObjectEv = 0x000000000038ba80 + __sdk_start;
_ZNK2nn4util16BinaryFileHeader13IsEndianValidEv = 0x0000000000398660 + __sdk_start;
_ZN2nn3ngc15ProfanityFilter19CheckProfanityWordsEPjjPPKcm = 0x0000000000302640 + __sdk_start;
_ZN2nn5codec7HcrInitEPNS0_10CErHcrInfoEPNS0_22CAacDecoderChannelInfoEPKNS0_16SamplingRateInfoEPNS0_13FDK_BITSTREAME = 0x0000000000125250 + __sdk_start;
_ZNK2nn5codec11OpusEncoder25CalculateFrameSampleCountEi = 0x000000000011e600 + __sdk_start;
_ZN2nn2sf4cmif6client6detail13CmifProxyImplINS_3ntc6detail7service38IEnsureNetworkClockAvailabilityServiceENS0_4hipc6client18Hipc2ProxyKindBaseILNS9_6detail11MessageTypeE6EEENS0_30MemoryResourceAllocationPolicyES8_NS3_19ProcessModifierImplINS2_21DefaultProxyFilterTagEEEE21_nn_sf_sync_StartTaskEv = 0x000000000038b9b0 + __sdk_start;
nnmem_nlib_strto_float = 0x00000000002ced90 + __sdk_start;
_ZThn8_N2nn2sf4cmif6server23CmifServerDomainManager6Domain14UnReserveEntryEPKNS1_18CmifDomainObjectIdEi = 0x00000000003553a0 + __sdk_start;
_ZN2nn5audio16GetVoicePriorityEPKNS0_9VoiceTypeE = 0x00000000000899a0 + __sdk_start;
nncodecLibopus_opus_packet_pad = 0x0000000000115f90 + __sdk_start;
_ZN2nn2ec6detail23ShopServiceAccessServer10ProxyStoreD2Ev = 0x000000000018fa20 + __sdk_start;
_ZN2nn3ssl10Connection4ReadEPcPij = 0x000000000037a020 + __sdk_start;
multimedia_Realloc = 0x00000000003c43f0 + __sdk_start;
_ZN2nn4pctl18ClearUnlinkedEventEv = 0x0000000000331f10 + __sdk_start;
NvRmStreamPushFdGather = 0x00000000003d3b50 + __sdk_start;
_ZN2nn4util17MessagePackWriter13WriteFixArrayEh = 0x000000000039a320 + __sdk_start;
_ZN2nn6applet24SetOnRemoveLibraryAppletEPFvNS0_19LibraryAppletHandleEE = 0x000000000007b600 + __sdk_start;
_ZN2nn2fs22QueryMountRomCacheSizeEPmNS_13ApplicationIdE = 0x00000000002123f0 + __sdk_start;
_ZN2nn5audio33GetI3dl2ReverbLateReverbDelayTimeEPKNS0_15I3dl2ReverbTypeE = 0x00000000000839e0 + __sdk_start;
_ZN2nn2oe23EnableGamePlayRecordingEPvm = 0x0000000000323480 + __sdk_start;
_ZN2nn2sf6detail38ObjectImplFactoryWithStatefulAllocatorINS0_4cmif6client6detail9CmifProxyINS_2am7service15IStorageChannelENS4_19CmifDomainProxyKindINS0_4hipc6client38Hipc2ClientSessionManagedProxyKindBaseINSC_18Hipc2ProxyKindBaseILNSB_6detail11MessageTypeE6EEEEEEENS0_30MemoryResourceAllocationPolicyENS5_19ProcessModifierImplINS4_21DefaultProxyFilterTagEEEvEESK_E6Object12AddReferenceEv = 0x0000000000058fa0 + __sdk_start;
_ZN2nn5codec18transportDec_CloseEPPNS0_12TRANSPORTDECE = 0x000000000014c620 + __sdk_start;
silk_NLSF_CB_WB = 0x0000000000bcfe18 + __sdk_start;
_ZN2nn7friends17SendFriendRequestEPNS0_12AsyncContextERKNS_7account3UidENS3_23NetworkServiceAccountIdENS0_11RequestTypeERKNS0_28ExternalApplicationCatalogIdERKNS0_15InAppScreenNameESE_ = 0x00000000001d8140 + __sdk_start;
_ZN2nn6fontll18ScalableFontEngine22CheckTtfKernTableExistEv = 0x0000000000199e50 + __sdk_start;
_ZN2nn3hid6detail47IsSixAxisSensorAccurateUserCalibrationSupportedEPbRKNS0_6system25UniqueSixAxisSensorHandleE = 0x00000000002411b0 + __sdk_start;
_ZNKSt3__17codecvtIDic11__mbstate_tE9do_lengthERS1_PKcS5_m = 0x0000000000488678 + __sdk_start;
btowc = 0x00000000004c5638 + __sdk_start;
_ZN2nn2am12g_InterfacesE = 0x0000000000bbfde0 + __sdk_start;
_ZN2nn5audio6common10NodeStates16DepthFirstSearchERS2_RNS1_10EdgeMatrixERNS2_5StackE = 0x000000000008b0c0 + __sdk_start;
_ZN7android11IMemoryHeapD1Ev = 0x0000000000003770 + __sdk_start;
_ZN2nn4edid9CloseEdidEPNS0_4EdidE = 0x0000000000192fa0 + __sdk_start;
_ZN2nn5audio18GetReverbEarlyGainEPKNS0_10ReverbTypeE = 0x0000000000084e30 + __sdk_start;
_ZN2nn5codec13decodeSbrDataEPNS0_15SBR_HEADER_DATAEPNS0_14SBR_FRAME_DATAEPNS0_19SBR_PREV_FRAME_DATAES4_S6_ = 0x000000000015aac0 + __sdk_start;
_ZN2nn4nifm34FinishHandlingNetworkRequestResultERKNS_6applet19LibraryAppletHandleE = 0x0000000000319050 + __sdk_start;
_ZTIN2nn2sf4cmif6client6detail13CmifProxyImplINS_5visrv2sf26IApplicationDisplayServiceENS0_4hipc6client18Hipc2ProxyKindBaseILNS8_6detail11MessageTypeE6EEENS0_30MemoryResourceAllocationPolicyES7_NS3_19ProcessModifierImplINS2_21DefaultProxyFilterTagEEEEE = 0x0000000000be5590 + __sdk_start;
_ZN7android6Thread4joinEv = 0x0000000000037570 + __sdk_start;
_ZNSt3__112ctype_bynameIcED1Ev = 0x000000000048f058 + __sdk_start;
_ZThn32_N2nn2sf4cmif6client6detail13CmifProxyImplINS_2am7service15IDebugFunctionsENS2_19CmifDomainProxyKindINS0_4hipc6client38Hipc2ClientSessionManagedProxyKindBaseINSA_18Hipc2ProxyKindBaseILNS9_6detail11MessageTypeE6EEEEEEENS0_30MemoryResourceAllocationPolicyES7_NS3_19ProcessModifierImplINS2_21DefaultProxyFilterTagEEEE17GetCmifBaseObjectEv = 0x000000000005b660 + __sdk_start;
_ZN2nn5audio6common10NodeStates5Stack4pushEi = 0x000000000008af40 + __sdk_start;
_ZN2nn2sf4cmif6client6detail13CmifProxyImplINS_4pctl6detail3ipc23IParentalControlServiceENS2_19CmifDomainProxyKindINS0_4hipc6client38Hipc2ClientSessionManagedProxyKindBaseINSB_18Hipc2ProxyKindBaseILNSA_6detail11MessageTypeE6EEEEEEENS0_30MemoryResourceAllocationPolicyES8_NS3_19ProcessModifierImplINS2_21DefaultProxyFilterTagEEEE35_nn_sf_sync_IsStereoVisionPermittedENS0_3OutIbvEE = 0x0000000000333e90 + __sdk_start;
_ZN2nn8settings6system29IsForceMuteOnHeadphoneRemovedEv = 0x0000000000345ed0 + __sdk_start;
_ZN2nn8settings6system29SetErrorReportSharePermissionENS1_26ErrorReportSharePermissionE = 0x0000000000347450 + __sdk_start;
_ZN2nn3ngc6detail11AhoCorasick12SetAllocatorEPNS1_16WorkBufAllocatorE = 0x0000000000307050 + __sdk_start;
_ZN2nn2sf4cmif6client6detail13CmifProxyImplINS_8settings21ISystemSettingsServerENS0_4hipc6client18Hipc2ProxyKindBaseILNS7_6detail11MessageTypeE6EEENS0_30MemoryResourceAllocationPolicyES6_NS3_19ProcessModifierImplINS2_21DefaultProxyFilterTagEEEE26_nn_sf_sync_GetMiiAuthorIdENS0_3OutINS_4util4UuidEvEE = 0x00000000003423a0 + __sdk_start;
_ZN2nn4time37GetEphemeralNetworkSystemClockServiceEPNS_2sf13SharedPointerINS_7timesrv6detail7service12ISystemClockEEE = 0x00000000003831d0 + __sdk_start;
_ZN2nn3err18ErrorResultVariantC2ERKNS0_9ErrorCodeE = 0x0000000000196430 + __sdk_start;
_ZN2nn2fs27IsAutoAbortPolicyCustomizedEv = 0x00000000001e68a0 + __sdk_start;
_ZN2nn4lmem16DestroyFrameHeapEPNS0_6detail8HeapHeadE = 0x00000000002bb900 + __sdk_start;
_ZN2nn3hid6detail18SetPalmaFrModeTypeERKNS0_21PalmaConnectionHandleERKNS0_15PalmaFrModeTypeE = 0x00000000002384b0 + __sdk_start;
_ZN2nn5audio6AddAuxEPNS0_19AudioRendererConfigEPNS0_7AuxTypeEPNS0_12FinalMixTypeEPvS7_m = 0x0000000000081350 + __sdk_start;
_ZN2nn3hid6detail14InitializeHdlsEPv = 0x000000000022ed50 + __sdk_start;
_ZN2nn3web22ShowOfflineHtmlPageArgC1ERKNS_13ApplicationIdEPKc = 0x00000000003b1f90 + __sdk_start;
aacDecoder_Fill = 0x000000000012dff0 + __sdk_start;
_ZNKSt3__110moneypunctIwLb1EE13do_neg_formatEv = 0x0000000000474160 + __sdk_start;
__atomic_store_1 = 0x0000000000502c28 + __sdk_start;
_ZN2nn2sf4hipc6client24Hipc2ClientCoreProcessorILNS1_6detail11MessageTypeE6ENS0_4cmif6detail14CoreMethodInfoINSt3__15tupleIJNS7_18OutRawArgumentInfoILm4ELm4ELl0EEENSB_ILm4ELm4ELl4EEENS7_17InRawArgumentInfoILm8ELm8ELl0EEENS7_18BufferArgumentInfoILi0ELi33ELm0EEEEEELm8ELm8ELb1EEESI_E7ProcessEPNS2_26Hipc2ClientProxyBaseObjectENS6_6client24OutRawClientArgumentTypeILm4ELm4EEESP_NSN_23InRawClientArgumentTypeILm8ELm8EvEENSN_24BufferClientArgumentTypeEj = 0x000000000036ef10 + __sdk_start;
_ZN2nn5audio29CreateAudioDebugManagerByHipcEv = 0x000000000008ff90 + __sdk_start;
__cxa_begin_catch = 0x00000000004b7688 + __sdk_start;
_ZNSt3__19__num_getIwE19__stage2_float_prepERNS_8ios_baseEPwRwS5_ = 0x0000000000466f30 + __sdk_start;
__atomic_store_2 = 0x0000000000502c48 + __sdk_start;
_ZN2nn5audio19ListAudioDeviceNameEPNS0_15AudioDeviceNameEi = 0x0000000000096a30 + __sdk_start;
_ZN2nn5codec25FreeRam_sbr_OverlapBufferEPPi = 0x000000000016ba60 + __sdk_start;
_ZNK2nn5codec10AacDecoder23GetMpeg4AudioObjectTypeEv = 0x0000000000171bc0 + __sdk_start;
_ZTINSt3__110__time_putE = 0x0000000000bedc68 + __sdk_start;
__atomic_store_4 = 0x0000000000502c68 + __sdk_start;
_ZN2nn2fs16SetSaveDataFlagsEmNS0_15SaveDataSpaceIdEj = 0x00000000002171c0 + __sdk_start;
_ZN2nn2sf4cmif6client6detail13CmifProxyImplINS_8settings21ISystemSettingsServerENS0_4hipc6client18Hipc2ProxyKindBaseILNS7_6detail11MessageTypeE6EEENS0_30MemoryResourceAllocationPolicyES6_NS3_19ProcessModifierImplINS2_21DefaultProxyFilterTagEEEE32_nn_sf_sync_GetPtmBatteryVersionENS0_3OutIhvEE = 0x0000000000342db0 + __sdk_start;
_ZN2nn2sf4hipc6client24Hipc2ClientCoreProcessorILNS1_6detail11MessageTypeE6ENS0_4cmif6detail14CoreMethodInfoINSt3__15tupleIJNS7_18OutRawArgumentInfoILm128ELm8ELl0EEENS7_17InRawArgumentInfoILm4ELm4ELl0EEEEEELm4ELm128ELb0EEESF_E7ProcessEPNS2_26Hipc2ClientProxyBaseObjectENS6_6client24OutRawClientArgumentTypeILm128ELm8EEENSK_23InRawClientArgumentTypeILm4ELm4EvEEj = 0x0000000000345720 + __sdk_start;
_ZN2nn3ssl10Connection19SetSessionCacheModeENS1_16SessionCacheModeE = 0x00000000003794a0 + __sdk_start;
_ZNK2nn5audio3dsp20CommandListProcessor21GetRemainCommandCountEv = 0x00000000000b0630 + __sdk_start;
_ZNSt3__113basic_istreamIcNS_11char_traitsIcEEE3getERc = 0x0000000000455278 + __sdk_start;
_ZNSt3__113basic_istreamIcNS_11char_traitsIcEEE4syncEv = 0x00000000004562b8 + __sdk_start;
_ZNKSt3__18time_getIwNS_19istreambuf_iteratorIwNS_11char_traitsIwEEEEE10__get_yearERiRS4_S4_RjRKNS_5ctypeIwEE = 0x000000000046eb58 + __sdk_start;
gmtime = 0x00000000004f9cb8 + __sdk_start;
_ZN2nn6crypto6detail6BigNum7CompareEPKjS4_i = 0x0000000000174400 + __sdk_start;
_ZN2nn2sf4cmif6client6detail13CmifProxyImplINS_7account4baas14IAdministratorENS2_19CmifDomainProxyKindINS0_4hipc6client38Hipc2ClientSessionManagedProxyKindBaseINSA_18Hipc2ProxyKindBaseILNS9_6detail11MessageTypeE6EEEEEEENS0_25StatelessAllocationPolicyINS0_22ExpHeapStaticAllocatorILm2048ENS5_6detail12ObjectHolder24ObjectHolderAllocatorTagEEEEES7_NS3_19ProcessModifierImplINS2_21DefaultProxyFilterTagEEEE24_nn_sf_sync_IsRegisteredENS0_3OutIbvEE = 0x0000000000046500 + __sdk_start;
_ZN2nn3mii6detail16Ver3StoreDataRaw11SetPadding8Ei = 0x00000000002f0f10 + __sdk_start;
_ZN2nn3mii15PrivateDatabase11DestroyFileEv = 0x00000000002f3760 + __sdk_start;
_ZN2nn3web22ShowOfflineHtmlPageArg33SetMediaPlayerSpeedControlEnabledEb = 0x00000000003b2870 + __sdk_start;
_ZN2nn3web14ShowWebPageArg17SetPointerEnabledEb = 0x00000000003b47c0 + __sdk_start;
_ZN2nn6applet20TryPopFromOutChannelEPNS0_13StorageHandleENS0_19LibraryAppletHandleE = 0x000000000007c3f0 + __sdk_start;
pcmDmx_GetParam = 0x000000000014f720 + __sdk_start;
_ZN2nn3hid5debug6detail24IsFirmwareUpdatingDeviceEPbNS0_6system11UniquePadIdE = 0x000000000022de70 + __sdk_start;
_ZNSt3__113basic_istreamIwNS_11char_traitsIwEEE5tellgEv = 0x0000000000458fc0 + __sdk_start;
__atomic_store_8 = 0x0000000000502c88 + __sdk_start;
_ZN2nn2sf4hipc6server18Hipc2ServerMessage10SetBuffersEPNS0_6detail14PointerAndSizeE = 0x00000000003591b0 + __sdk_start;
_ZNK2nn3mii6detail11CoreDataRaw9GetMouthYEv = 0x00000000002e72c0 + __sdk_start;
_ZNSt3__18numpunctIwEC1Em = 0x000000000048ac40 + __sdk_start;
_ZN2nn6applet18CloseLibraryAppletENS0_19LibraryAppletHandleE = 0x000000000007c250 + __sdk_start;
_ZN2nn2sf4cmif6client6detail13CmifProxyImplINS_2am7service15IDebugFunctionsENS0_4hipc6client18Hipc2ProxyKindBaseILNS8_6detail11MessageTypeE6EEENS0_30MemoryResourceAllocationPolicyES7_NS3_19ProcessModifierImplINS2_21DefaultProxyFilterTagEEEE39_nn_sf_sync_PerformSystemButtonPressingENS6_16SystemButtonTypeE = 0x000000000006d5b0 + __sdk_start;
_ZN2nn5audio6server24AudioRendererManagerImpl16ReleaseSessionIdEi = 0x000000000009d580 + __sdk_start;
_ZN2nn2sf4cmif6client6detail13CmifProxyImplINS_5prepo6detail3ipc13IPrepoServiceENS2_19CmifDomainProxyKindINS0_4hipc6client38Hipc2ClientSessionManagedProxyKindBaseINSB_18Hipc2ProxyKindBaseILNSA_6detail11MessageTypeE6EEEEEEENS0_30MemoryResourceAllocationPolicyES8_NS3_19ProcessModifierImplINS2_21DefaultProxyFilterTagEEEE40_nn_sf_sync_RequestImmediateTransmissionEv = 0x000000000033b9b0 + __sdk_start;
_ZN2nn3hid18SetNpadJoyHoldTypeENS0_15NpadJoyHoldTypeE = 0x0000000000248010 + __sdk_start;
expm1f = 0x00000000004c1728 + __sdk_start;
_ZN2nn2sf24GetCurrentMemoryResourceEv = 0x0000000000354900 + __sdk_start;
_ZN2nn6applet28RequestToRelaunchApplicationENS0_13StorageHandleE = 0x000000000007dfa0 + __sdk_start;
_ZN2nn2sf4cmif6client6detail13CmifProxyImplINS_7friends6detail3ipc14IFriendServiceENS2_19CmifDomainProxyKindINS0_4hipc6client38Hipc2ClientSessionManagedProxyKindBaseINSB_18Hipc2ProxyKindBaseILNSA_6detail11MessageTypeE6EEEEEEENS0_30MemoryResourceAllocationPolicyES8_NS3_19ProcessModifierImplINS2_21DefaultProxyFilterTagEEEE28_nn_sf_sync_GetFriendListIdsENS0_3OutIivEERKNS0_8OutArrayINS_7account23NetworkServiceAccountIdEEERKNSR_3UidEiRKNS7_17SizedFriendFilterEm = 0x00000000001def40 + __sdk_start;
_ZTIN2nn2pl6detail18ISharedFontManagerE = 0x0000000000be0110 + __sdk_start;
_ZN2nn2sf4cmif6client34CmifDomainProxyClientCoreProcessorINS0_4hipc6client38Hipc2ClientSessionManagedProxyKindBaseINS5_18Hipc2ProxyKindBaseILNS4_6detail11MessageTypeE6EEEEENS1_6detail14CoreMethodInfoINSt3__15tupleIJNSC_17InRawArgumentInfoILm1ELm1ELl0EEEEEELm1ELm0ELb0EEESI_E7ProcessEPNS2_23CmifDomainClientMessageISB_E15ProxyBaseObjectENS2_23InRawClientArgumentTypeILm1ELm1EvEEj = 0x00000000002079c0 + __sdk_start;
_ZN2nn2os11SetHostArgcEi = 0x0000000000324290 + __sdk_start;
_ZN2nn2sf4cmif6client34CmifDomainProxyClientCoreProcessorINS0_4hipc6client38Hipc2ClientSessionManagedProxyKindBaseINS5_18Hipc2ProxyKindBaseILNS4_6detail11MessageTypeE6EEEEENS1_6detail14CoreMethodInfoINSt3__15tupleIJNSC_18OutRawArgumentInfoILm56ELm8ELl0EEEEEELm0ELm56ELb0EEESI_E7ProcessEPNS2_23CmifDomainClientMessageISB_E15ProxyBaseObjectENS2_24OutRawClientArgumentTypeILm56ELm8EEEj = 0x000000000003f230 + __sdk_start;
_ZN2nn4bcat6detail25DeliveryCacheProgressImpl19SetDownloadProgressElRKNS0_13DirectoryNameE = 0x00000000000befe0 + __sdk_start;
_ZTIN2nn2sf4cmif6client6detail9CmifProxyINS_8settings21ISystemSettingsServerENS0_4hipc6client18Hipc2ProxyKindBaseILNS7_6detail11MessageTypeE6EEENS0_30MemoryResourceAllocationPolicyENS3_19ProcessModifierImplINS2_21DefaultProxyFilterTagEEEvEE = 0x0000000000be1710 + __sdk_start;
_ZN2nn2vi13ObjectManager28InvalidateDestroyLayerHolderENS_4util13IntrusiveListINS0_11LayerHolderENS2_27IntrusiveListBaseNodeTraitsIS4_S4_EEE8iteratorE = 0x00000000003aeae0 + __sdk_start;
NvOsPhysicalMemUnmap = 0x00000000003c3730 + __sdk_start;
_ZTINSt3__19strstreamE = 0x0000000000bef300 + __sdk_start;
_ZN2nn2fs10QueryRangeEPNS0_14QueryRangeInfoENS0_10FileHandleEll = 0x00000000001f1650 + __sdk_start;
_ZTIN2nn2sf4cmif6client6detail9CmifProxyINS_7account6detail9INotifierENS2_19CmifDomainProxyKindINS0_4hipc6client38Hipc2ClientSessionManagedProxyKindBaseINSA_18Hipc2ProxyKindBaseILNS9_6detail11MessageTypeE6EEEEEEENS0_25StatelessAllocationPolicyINS0_22ExpHeapStaticAllocatorILm2048ENS6_12ObjectHolder24ObjectHolderAllocatorTagEEEEENS3_19ProcessModifierImplINS2_21DefaultProxyFilterTagEEEvEE = 0x0000000000bbe3f0 + __sdk_start;
_ZNK2nn5audio6common10NodeStates8GetStateEi = 0x000000000008b350 + __sdk_start;
_ZN2nn9bluetooth14GattDescriptorC1ERKNS0_17GattAttributeUuidEtj = 0x00000000000d0c70 + __sdk_start;
_ZN2nn7friends13FriendSetting10InitializeERKNS_7account3UidENS2_23NetworkServiceAccountIdE = 0x00000000001dc880 + __sdk_start;
_ZN2nn8settings6system29GetErrorReportSharePermissionEv = 0x0000000000347400 + __sdk_start;
_ZN7android8String16C2EPKDsm = 0x0000000000034090 + __sdk_start;
_ZTIN2nn5fssrv2sf19IMultiCommitManagerE = 0x0000000000bd5750 + __sdk_start;
_ZN2nn5audio6server24AudioRenderSystemManager4DumpEv = 0x000000000009e4e0 + __sdk_start;
_ZN2nn5prepo16SystemPlayReport3AddEPKcS3_ = 0x000000000033aa70 + __sdk_start;
_ZNSt3__129__libcpp_abort_debug_functionERKNS_19__libcpp_debug_infoE = 0x000000000044de40 + __sdk_start;
_ZN2nn3hid6detail28SetTouchScreenAutoPilotStateILm2EEENS_6ResultERKNS0_5debug25TouchScreenAutoPilotStateIXT_EEE = 0x000000000023de30 + __sdk_start;
_ZN2nn5audio10MixManagerC2EPNS0_7MixInfoEiiii = 0x0000000000086110 + __sdk_start;
_ZTIN2nn2sf4cmif6client6detail9CmifProxyINS_2lm7ILoggerENS0_4hipc6client18Hipc2ProxyKindBaseILNS7_6detail11MessageTypeE6EEENS0_30MemoryResourceAllocationPolicyENS3_19ProcessModifierImplINS2_21DefaultProxyFilterTagEEEvEE = 0x0000000000bdb6d0 + __sdk_start;
_ZN2nn3hid5debug6detail24InitializeFirmwareUpdateEv = 0x000000000022d9e0 + __sdk_start;
_ZN7android10BufferItemD2Ev = 0x00000000000132f0 + __sdk_start;
_ZNSt3__127__insertion_sort_incompleteIRNS_6__lessIffEEPfEEbT0_S5_T_ = 0x000000000044b4e0 + __sdk_start;
_ZNSt3__118condition_variable10notify_allEv = 0x000000000044dcb8 + __sdk_start;
expm1l = 0x00000000004df138 + __sdk_start;
nncodecLibopus_silk_LP_variable_cutoff = 0x00000000000f1f90 + __sdk_start;
_ZTIN2nn2sf6detail38ObjectImplFactoryWithStatefulAllocatorINS0_4cmif6client6detail9CmifProxyINS_6grcsrv17IGameMovieTrimmerENS0_4hipc6client18Hipc2ProxyKindBaseILNS9_6detail11MessageTypeE6EEENS0_30MemoryResourceAllocationPolicyENS5_19ProcessModifierImplINS4_21DefaultProxyFilterTagEEEvEESF_E6ObjectE = 0x0000000000bc97c0 + __sdk_start;
_ZNK2nn7friends18FriendDetailedInfo10GetMiiNameEv = 0x00000000001db4c0 + __sdk_start;
_ZN2nn2sf4hipc6client24Hipc2ClientCoreProcessorILNS1_6detail11MessageTypeE6ENS0_4cmif6detail14CoreMethodInfoINSt3__15tupleIJNS7_18OutRawArgumentInfoILm8ELm8ELl0EEENS7_17InRawArgumentInfoILm8ELm8ELl0EEENSD_ILm8ELm8ELl8EEEEEELm16ELm8ELb0EEESG_E7ProcessEPNS2_26Hipc2ClientProxyBaseObjectENS6_6client24OutRawClientArgumentTypeILm8ELm8EEENSL_23InRawClientArgumentTypeILm8ELm8EvEESP_j = 0x00000000003a8020 + __sdk_start;
_ZNK7android7RefBase9decStrongEPKv = 0x0000000000033320 + __sdk_start;
_ZN2nn2sf4cmif6client6detail13CmifProxyImplINS_8irsensor15IIrSensorServerENS0_4hipc6client18Hipc2ProxyKindBaseILNS7_6detail11MessageTypeE6EEENS0_25StatelessAllocationPolicyINS0_22ExpHeapStaticAllocatorILm16384ENS5_6detail14IrSensorServerEEEEES6_NS3_19ProcessModifierImplINS2_21DefaultProxyFilterTagEEEE30_nn_sf_sync_RunMomentProcessorENS_6applet20AppletResourceUserIdENS5_14IrCameraHandleERKNS5_27PackedMomentProcessorConfigE = 0x000000000029eca0 + __sdk_start;
_ZNSt3__18ios_base33__set_badbit_and_consider_rethrowEv = 0x0000000000454218 + __sdk_start;
_ZNKSt3__120__codecvt_utf8_utf16IDsE5do_inER11__mbstate_tPKcS5_RS5_PDsS7_RS7_ = 0x000000000048a990 + __sdk_start;
_ZN2nn2fs6detail14FindFileSystemEPPNS1_18FileSystemAccessorEPPKcS6_ = 0x00000000001f0280 + __sdk_start;
_ZN2nn2fs6detail37InitializeFileSystemCreatorInterfacesEv = 0x00000000001f7bb0 + __sdk_start;
_ZNK2nn2sf13SharedPointerINS_6socket2sf7IClientEE19FunctionForBoolTypeEv = 0x000000000036b0b0 + __sdk_start;
_ZN2nn5codec26CBlock_ReadScaleFactorDataEPNS0_22CAacDecoderChannelInfoEPNS0_13FDK_BITSTREAMEj = 0x000000000012ecd0 + __sdk_start;
_ZTIN2nn5image11ExifBuilderE = 0x0000000000bd9bc8 + __sdk_start;
_ZN2nn7account11DeclarationD2Ev = 0x000000000003dc60 + __sdk_start;
_ZNK2nn4bcat21DeliveryCacheProgress18GetWholeDownloadedEv = 0x00000000000c1db0 + __sdk_start;
_ZN2nn3hid23VibrationNodeConnectionC1Ev = 0x000000000024d550 + __sdk_start;
_ZN2nn2sf4hipc6client24Hipc2ClientCoreProcessorILNS1_6detail11MessageTypeE6ENS0_4cmif6detail14CoreMethodInfoINSt3__15tupleIJNS7_18BufferArgumentInfoILi0ELi33ELm0EEENS7_20InHandleArgumentInfoILi0ELi1EEENS7_17InRawArgumentInfoILm4ELm4ELl0EEENSF_ILm4ELm4ELl4EEENSF_ILm8ELm8ELl8EEEEEELm16ELm0ELb0EEESJ_E7ProcessEPNS2_26Hipc2ClientProxyBaseObjectENS6_6client24BufferClientArgumentTypeENSO_26InHandleClientArgumentTypeENSO_23InRawClientArgumentTypeILm4ELm4EvEESS_NSR_ILm8ELm8EvEEj = 0x000000000025dda0 + __sdk_start;
_ZNSt3__114error_categoryD2Ev = 0x000000000049e1b0 + __sdk_start;
_ZTIN2nn2ec4json33MemoryInputStreamBaseForRapidJsonE = 0x0000000000bd15d0 + __sdk_start;
_ZN2nn8settings6system17GetLockScreenFlagEv = 0x0000000000349590 + __sdk_start;
_ZN2nn4util6detail16IntrusiveDicImpl10InsertImplEPNS0_16IntrusiveDicNodeE = 0x0000000000399eb0 + __sdk_start;
_ZN2nn2fs19SuspendSdmmcControlEv = 0x000000000021bca0 + __sdk_start;
_ZN2nn8settings6detail15SetLanguageCodeERKNS0_12LanguageCodeE = 0x000000000034d590 + __sdk_start;
_ZN2nn3hid23VibrationNodeConnection10DisconnectEv = 0x000000000024cff0 + __sdk_start;
_ZNK7android19IGraphicBufferAlloc22getInterfaceDescriptorEv = 0x000000000001cd00 + __sdk_start;
_ZN2nn5image6detail4jpeg23jinit_d_post_controllerEPNS2_22jpeg_decompress_structEb = 0x0000000000288100 + __sdk_start;
_ZN2nn2fs6detail26EventNotifierObjectAdapterC1EONS_2sf13SharedPointerINS_5fssrv2sf14IEventNotifierEEE = 0x00000000001f7990 + __sdk_start;
_ZN2nn2fs6detail22PathBasedFileDataCacheC2Ev = 0x0000000000223e80 + __sdk_start;
_ZN2nn5audio3dsp17ApplyUniformGain4EPfPKffi = 0x00000000000bc640 + __sdk_start;
_ZN2nn5codec41GetRequiredMemAacDecoderStaticChannelInfoEv = 0x0000000000121070 + __sdk_start;
_ZN2nn3mii6detail11GetHatColorENS0_13FavoriteColorENS0_9GammaTypeE = 0x00000000002e39b0 + __sdk_start;
_ZN2nn4time20CalculateSpanBetweenEPNS_8TimeSpanERKNS0_13ClockSnapshotES5_ = 0x00000000003839d0 + __sdk_start;
_ZN2nn3hid5debug22DisconnectUsbPadsAsyncEv = 0x000000000024b860 + __sdk_start;
_ZN22nerd_gillette_internal5otete5plato15DecodePacketROKEPNS1_11PlatoPacketEPKhmPm = 0x00000000002a43f0 + __sdk_start;
_ZTIN2nn8irsensor21IIrSensorSystemServerE = 0x0000000000bda040 + __sdk_start;
optind = 0x0000000000bf2848 + __sdk_start;
_IO_putc_unlocked = 0x00000000004f3cb0 + __sdk_start;
_ZN2nn4diag6detail16GetBacktraceImplEPmi = 0x0000000000180490 + __sdk_start;
nnosTimedWaitEvent = 0x00000000003293f0 + __sdk_start;
_ZTIN2nn2am7service19ILibraryAppletProxyE = 0x0000000000bc5d90 + __sdk_start;
_ZN2nn2sf4cmif6client6detail36GetClientProcessorImplWithObjectBaseINS0_4hipc6client18Hipc2ProxyKindBaseILNS5_6detail11MessageTypeE6EEENS3_19ProcessModifierImplINS2_21DefaultProxyFilterTagEEEE14ObjectAssignerINS0_30MemoryResourceAllocationPolicyENS_14MemoryResourceEE14AllocateObjectINS_3apm8ISessionEEEvi = 0x0000000000079f30 + __sdk_start;
_ZTIN2nn2sf4cmif6client6detail13CmifProxyImplINS_2am7service21IStackableAppletProxyENS0_4hipc6client18Hipc2ProxyKindBaseILNS8_6detail11MessageTypeE6EEENS0_30MemoryResourceAllocationPolicyENS6_19IOverlayAppletProxyENS3_19ProcessModifierImplINS2_21DefaultProxyFilterTagEEEEE = 0x0000000000bc98f0 + __sdk_start;
_ZNK2nn3mii13AppletManager11GetUsedUuidEv = 0x00000000002f7de0 + __sdk_start;
_ZN2nn3hid6detail37GetShiftAccelerometerCalibrationValueEPfS2_RKNS0_19SixAxisSensorHandleE = 0x0000000000236d40 + __sdk_start;
_ZN2nn2sf4cmif6client6detail13CmifProxyImplINS_2am7service16IAudioControllerENS2_19CmifDomainProxyKindINS0_4hipc6client38Hipc2ClientSessionManagedProxyKindBaseINSA_18Hipc2ProxyKindBaseILNS9_6detail11MessageTypeE6EEEEEEENS0_30MemoryResourceAllocationPolicyES7_NS3_19ProcessModifierImplINS2_21DefaultProxyFilterTagEEEE40_nn_sf_sync_ChangeMainAppletMasterVolumeEfl = 0x000000000005a310 + __sdk_start;
_ZN2nn2sf4cmif6client6detail13CmifProxyImplINS_4nifm6detail15IGeneralServiceENS2_19CmifDomainProxyKindINS0_4hipc6client38Hipc2ClientSessionManagedProxyKindBaseINSA_18Hipc2ProxyKindBaseILNS9_6detail11MessageTypeE6EEEEEEENS0_30MemoryResourceAllocationPolicyES7_NS3_19ProcessModifierImplINS2_21DefaultProxyFilterTagEEEE40_nn_sf_sync_IsAnyInternetRequestAcceptedENS0_3OutIbvEENS5_8ClientIdE = 0x0000000000314de0 + __sdk_start;
_ZNSt3__18ios_base4InitC2Ev = 0x000000000045dcc0 + __sdk_start;
_ZN2nn2os13SwitchToFiberEPNS0_9FiberTypeE = 0x00000000003251d0 + __sdk_start;
_ZN2nn5audio38GetOscMessageNextArgumentAsMidiMessageEPNS0_14OscMessageTypeE = 0x0000000000086a60 + __sdk_start;
_ZN2nn3mii6detail15BufferAllocatorD1Ev = 0x00000000002e25b0 + __sdk_start;
_ZN2nn2sf4cmif6client6detail13CmifProxyImplINS_8settings21ISystemSettingsServerENS0_4hipc6client18Hipc2ProxyKindBaseILNS7_6detail11MessageTypeE6EEENS0_30MemoryResourceAllocationPolicyES6_NS3_19ProcessModifierImplINS2_21DefaultProxyFilterTagEEEE28_nn_sf_sync_GetThemeSettingsENS0_3OutINS5_6system13ThemeSettingsEvEE = 0x0000000000342fa0 + __sdk_start;
_ZN2nn7account36CheckNetworkServiceAvailabilityAsyncEPNS0_12AsyncContextERKNS0_27SystemProgramIdentificationE = 0x000000000003d3c0 + __sdk_start;
_ZN2nn7friends21AddFacedFriendRequestERKNS_7account3UidERKNS0_33FacedFriendRequestRegistrationKeyERKNS1_8NicknameEPKvm = 0x00000000001d8700 + __sdk_start;
_ZN2nn3mii6detail12StoreDataRaw9SetHeightEi = 0x00000000002ea580 + __sdk_start;
_ZN2nn5swkbd18SetInitialTextUtf8EPNS0_15ShowKeyboardArgEPKc = 0x0000000000380370 + __sdk_start;
_ZN2nn2sf4cmif6client6detail13CmifProxyImplINS_2am7service18IAppletProxyCommonENS2_19CmifDomainProxyKindINS0_4hipc6client38Hipc2ClientSessionManagedProxyKindBaseINSA_18Hipc2ProxyKindBaseILNS9_6detail11MessageTypeE6EEEEEEENS0_30MemoryResourceAllocationPolicyENS6_19ILibraryAppletProxyENS3_19ProcessModifierImplINS2_21DefaultProxyFilterTagEEEE29_nn_sf_sync_GetSelfControllerENS0_3OutINS0_13SharedPointerINS6_15ISelfControllerEEEvEE = 0x000000000005eb60 + __sdk_start;
_ZTIN2nn2sf4cmif6client6detail9CmifProxyINS_2am7service22IGlobalStateControllerENS0_4hipc6client18Hipc2ProxyKindBaseILNS8_6detail11MessageTypeE6EEENS0_30MemoryResourceAllocationPolicyENS3_19ProcessModifierImplINS2_21DefaultProxyFilterTagEEEvEE = 0x0000000000bc90d0 + __sdk_start;
_ZTVN2nn2sf6detail38ObjectImplFactoryWithStatefulAllocatorINS0_4cmif6client6detail9CmifProxyINS_4nifm6detail14IStaticServiceENS4_19CmifDomainProxyKindINS0_4hipc6client38Hipc2ClientSessionManagedProxyKindBaseINSC_18Hipc2ProxyKindBaseILNSB_6detail11MessageTypeE6EEEEEEENS0_30MemoryResourceAllocationPolicyENS5_19ProcessModifierImplINS4_21DefaultProxyFilterTagEEEvEESK_E6ObjectE = 0x0000000000bddcc8 + __sdk_start;
NvRmGpuDeviceGetMemoryState = 0x00000000003ee9f0 + __sdk_start;
asinf = 0x00000000004db600 + __sdk_start;
lgammal_r = 0x00000000004e0dc8 + __sdk_start;
_ZN2nn2sf4cmif6client6detail13CmifProxyImplINS_6aocsrv6detail20IAddOnContentManagerENS0_4hipc6client18Hipc2ProxyKindBaseILNS8_6detail11MessageTypeE6EEENS0_30MemoryResourceAllocationPolicyES7_NS3_19ProcessModifierImplINS2_21DefaultProxyFilterTagEEEE31_nn_sf_sync_PrepareAddOnContentEim = 0x0000000000078740 + __sdk_start;
_ZN7android7RefBaseD2Ev = 0x00000000000337c0 + __sdk_start;
pthread_rwlock_tryrdlock = 0x00000000004bd120 + __sdk_start;
_ZN2nn2sf4cmif6client6detail13CmifProxyImplINS_6grcsrv11IMovieMakerENS2_19CmifDomainProxyKindINS0_4hipc6client38Hipc2ClientSessionManagedProxyKindBaseINS9_18Hipc2ProxyKindBaseILNS8_6detail11MessageTypeE6EEEEEEENS0_30MemoryResourceAllocationPolicyES6_NS3_19ProcessModifierImplINS2_21DefaultProxyFilterTagEEEE28_nn_sf_sync_CreateVideoProxyENS0_3OutINS0_13SharedPointerIN3nns9hosbinder16IHOSBinderDriverEEEvEE = 0x0000000000064400 + __sdk_start;
_ZN2nn5audio15AudioBufferListINS0_25FinalOutputRecorderBufferEE9push_backEPS2_ = 0x0000000000085570 + __sdk_start;
_ZN2nn5codec8CalcLog2EiiPi = 0x00000000001416d0 + __sdk_start;
_ZN2nn4pctl13UnlinkPairingEb = 0x00000000003318a0 + __sdk_start;
_ZN2nn8settings6system43IsUserSystemClockAutomaticCorrectionEnabledEv = 0x0000000000346c50 + __sdk_start;
_ZNKSt3__111__libcpp_db9__addableEPKvl = 0x000000000044f7b0 + __sdk_start;
_ZNSt3__115basic_streambufIwNS_11char_traitsIwEEE8pubimbueERKNS_6localeE = 0x0000000000452d40 + __sdk_start;
asinh = 0x00000000004db7a0 + __sdk_start;
nnmem_nlib_strlen = 0x00000000002d4c70 + __sdk_start;
_ZN2nn2sf4cmif6client6detail13CmifProxyImplINS_2am7service18ICommonStateGetterENS0_4hipc6client18Hipc2ProxyKindBaseILNS8_6detail11MessageTypeE6EEENS0_30MemoryResourceAllocationPolicyES7_NS3_19ProcessModifierImplINS2_21DefaultProxyFilterTagEEEE58_nn_sf_sync_SetPerformanceConfigurationChangedNotificationEb = 0x0000000000068ea0 + __sdk_start;
_ZN2nn2sf4hipc6client24Hipc2ClientCoreProcessorILNS1_6detail11MessageTypeE6ENS0_4cmif6detail14CoreMethodInfoINSt3__15tupleIJNS7_18BufferArgumentInfoILi0ELi33ELm0EEENS7_17InRawArgumentInfoILm8ELm8ELl0EEENS7_20InHandleArgumentInfoILi0ELi1EEEEEELm8ELm0ELb0EEESH_E7ProcessEPNS2_26Hipc2ClientProxyBaseObjectENS6_6client24BufferClientArgumentTypeENSM_23InRawClientArgumentTypeILm8ELm8EvEENSM_26InHandleClientArgumentTypeEj = 0x0000000000091b90 + __sdk_start;
_ZN2nn2sf4hipc6client24Hipc2ClientCoreProcessorILNS1_6detail11MessageTypeE6ENS0_4cmif6detail14CoreMethodInfoINSt3__15tupleIJNS7_18BufferArgumentInfoILi0ELi25ELm512EEEEEELm0ELm0ELb0EEESD_E7ProcessEPNS2_26Hipc2ClientProxyBaseObjectENS6_6client24BufferClientArgumentTypeEj = 0x00000000000c77e0 + __sdk_start;
_ZN2nn4htcs6detail25virtual_socket_collection12CreateSocketENS_2sf13SharedPointerINS_3tma7ISocketEEERi = 0x000000000026a600 + __sdk_start;
_ZN2nn4pctl6detail3ipc28InitializeIpcSessionIfNeededEv = 0x0000000000332e30 + __sdk_start;
NvOsFsync = 0x00000000003bc6a0 + __sdk_start;
_ZN7android21SurfaceComposerClient17setLayerStackMaskERKNS_2spINS_7IBinderEEEj = 0x000000000002b430 + __sdk_start;
__pthread_cond_timedwait = 0x00000000004bcfe8 + __sdk_start;
_ZN2nn5audio34SetAudioRendererRenderingTimeLimitENS0_19AudioRendererHandleEi = 0x000000000008fec0 + __sdk_start;
_ZN2nn3hid6detail19AddRegisteredDeviceERKNS0_6system16RegisteredDeviceE = 0x0000000000239530 + __sdk_start;
_ZNKSt3__18time_getIwNS_19istreambuf_iteratorIwNS_11char_traitsIwEEEEE9__get_dayERiRS4_S4_RjRKNS_5ctypeIwEE = 0x000000000046f1f8 + __sdk_start;
_ZNSt13runtime_errorC2ERKNSt3__112basic_stringIcNS0_11char_traitsIcEENS0_9allocatorIcEEEE = 0x0000000000493918 + __sdk_start;
nnutilZlib_inflateCopy = 0x0000000000395410 + __sdk_start;
_ZN2nn5audio26GetBiquadFilterInputOutputEPKNS0_16BiquadFilterTypeEPaS4_Pii = 0x0000000000081c60 + __sdk_start;
_ZTIN2nn2sf6detail38ObjectImplFactoryWithStatefulAllocatorINS0_4cmif6client6detail9CmifProxyINS_4nifm6detail15IGeneralServiceENS4_19CmifDomainProxyKindINS0_4hipc6client38Hipc2ClientSessionManagedProxyKindBaseINSC_18Hipc2ProxyKindBaseILNSB_6detail11MessageTypeE6EEEEEEENS0_30MemoryResourceAllocationPolicyENS5_19ProcessModifierImplINS4_21DefaultProxyFilterTagEEEvEESK_E6ObjectE = 0x0000000000bde000 + __sdk_start;
_ZN2nn2sf4cmif6client6detail13CmifProxyImplINS_5visrv2sf21ISystemDisplayServiceENS0_4hipc6client18Hipc2ProxyKindBaseILNS8_6detail11MessageTypeE6EEENS0_30MemoryResourceAllocationPolicyES7_NS3_19ProcessModifierImplINS2_21DefaultProxyFilterTagEEEE35_nn_sf_sync_CancelSharedFrameBufferENS_2vi7fbshare17SharedLayerHandleEl = 0x00000000003a5df0 + __sdk_start;
_ZTIN2nn2sf6detail38ObjectImplFactoryWithStatefulAllocatorINS0_4cmif6client6detail9CmifProxyINS_6capsrv2sf29IScreenShotApplicationServiceENS0_4hipc6client18Hipc2ProxyKindBaseILNSA_6detail11MessageTypeE6EEENS0_30MemoryResourceAllocationPolicyENS5_19ProcessModifierImplINS4_21DefaultProxyFilterTagEEEvEESG_E6ObjectE = 0x0000000000bcf810 + __sdk_start;
_ZN2nn3hid30SetNpadJoyAssignmentModeSingleERKj = 0x0000000000247df0 + __sdk_start;
_ZNK7android6Parcel14checkInterfaceEPNS_7IBinderE = 0x00000000000084d0 + __sdk_start;
_ZNKSt3__120__codecvt_utf8_utf16IDsE9do_lengthER11__mbstate_tPKcS5_m = 0x000000000048aa18 + __sdk_start;
_ZN2nn2sf4cmif6client6detail13CmifProxyImplINS_2am7service21IStackableAppletProxyENS0_4hipc6client18Hipc2ProxyKindBaseILNS8_6detail11MessageTypeE6EEENS0_30MemoryResourceAllocationPolicyENS6_19ILibraryAppletProxyENS3_19ProcessModifierImplINS2_21DefaultProxyFilterTagEEEE39_nn_sf_sync_GetProcessWindingControllerENS0_3OutINS0_13SharedPointerINS6_25IProcessWindingControllerEEEvEE = 0x0000000000071550 + __sdk_start;
_ZN2nn8settings6detail11SetThemeKeyERKNS_8fssystem13ArchiveMacKeyE = 0x000000000034fec0 + __sdk_start;
_ZN2nn4time6detail20MonotonicSystemClockC2Ev = 0x0000000000386b00 + __sdk_start;
nvcecClose = 0x00000000003b6d90 + __sdk_start;
_ZNKSt3__114__codecvt_utf8IDiE16do_always_noconvEv = 0x0000000000488fc8 + __sdk_start;
_ZTINSt3__114codecvt_bynameIDsc11__mbstate_tEE = 0x0000000000bee120 + __sdk_start;
asinl = 0x00000000004db9c8 + __sdk_start;
getwchar = 0x00000000004f39c8 + __sdk_start;
_ZN2nn2os19UnmapTransferMemoryEPNS0_18TransferMemoryTypeE = 0x00000000003285d0 + __sdk_start;
_ZN2nn2sf4cmif6client34CmifDomainProxyClientCoreProcessorINS0_4hipc6client38Hipc2ClientSessionManagedProxyKindBaseINS5_18Hipc2ProxyKindBaseILNS4_6detail11MessageTypeE6EEEEENS1_6detail14CoreMethodInfoINSt3__15tupleIJNSC_18OutRawArgumentInfoILm1ELm1ELl0EEENSG_ILm4ELm4ELl4EEEEEELm0ELm8ELb0EEESJ_E7ProcessEPNS2_23CmifDomainClientMessageISB_E15ProxyBaseObjectENS2_24OutRawClientArgumentTypeILm1ELm1EEENSQ_ILm4ELm4EEEj = 0x000000000005b0b0 + __sdk_start;
_ZN2nn2sf4cmif6client6detail13CmifProxyImplINS_8settings21ISystemSettingsServerENS0_4hipc6client18Hipc2ProxyKindBaseILNS7_6detail11MessageTypeE6EEENS0_30MemoryResourceAllocationPolicyES6_NS3_19ProcessModifierImplINS2_21DefaultProxyFilterTagEEEE40_nn_sf_sync_GetHeadphoneVolumeUpdateFlagENS0_3OutIbvEE = 0x00000000003427a0 + __sdk_start;
_ZN2nn2sf4cmif6client6detail13CmifProxyImplINS_5visrv2sf18ISystemRootServiceENS0_4hipc6client18Hipc2ProxyKindBaseILNS8_6detail11MessageTypeE6EEENS0_30MemoryResourceAllocationPolicyES7_NS3_19ProcessModifierImplINS2_21DefaultProxyFilterTagEEEE17GetCmifBaseObjectEv = 0x00000000003a4ef0 + __sdk_start;
_ZN2nn3hid18VibrationConverterD1Ev = 0x000000000024c270 + __sdk_start;
_ZN2nn2os13DestroyThreadEPNS0_10ThreadTypeE = 0x00000000003279c0 + __sdk_start;
_ZN2nn2sf4cmif6client34CmifDomainProxyClientCoreProcessorINS0_4hipc6client38Hipc2ClientSessionManagedProxyKindBaseINS5_18Hipc2ProxyKindBaseILNS4_6detail11MessageTypeE6EEEEENS1_6detail14CoreMethodInfoINSt3__15tupleIJNSC_21OutObjectArgumentInfoILi0ELi0EEENSC_20InHandleArgumentInfoILi0ELi1EEENSC_17InRawArgumentInfoILm8ELm8ELl8EEENSK_ILm1ELm1ELl0EEEEEELm16ELm0ELb0EEESN_E21ProcessWithOutObjectsEPNS2_23CmifDomainClientMessageISB_E15ProxyBaseObjectENS2_27OutObjectClientArgumentTypeENS2_26InHandleClientArgumentTypeENS2_23InRawClientArgumentTypeILm8ELm8EvEENSW_ILm1ELm1EvEEjPNS0_13SharedPointerINS0_14IServiceObjectEEE = 0x000000000005d4d0 + __sdk_start;
_ZN2nn2sf4cmif6client6detail13CmifProxyImplINS_6grcsrv17IGameMovieTrimmerENS0_4hipc6client18Hipc2ProxyKindBaseILNS7_6detail11MessageTypeE6EEENS0_30MemoryResourceAllocationPolicyES6_NS3_19ProcessModifierImplINS2_21DefaultProxyFilterTagEEEE17GetCmifBaseObjectEv = 0x0000000000072920 + __sdk_start;
_ZN2nn2sf6detail19InterfaceInfoBottomINS0_14IServiceObjectEE4_tABINS0_13InterfaceInfoINS_5audio6detail21IAudioRendererManagerEE5_tO2NINS7_6server24AudioRendererManagerImplEE4typeES9_E4typeD2Ev = 0x00000000000aef40 + __sdk_start;
_ZNSt3__18ios_baseD2Ev = 0x0000000000452408 + __sdk_start;
_ZNK2nn5image13ExifExtractor15ExtractSoftwareEPm = 0x0000000000296560 + __sdk_start;
_ZN2nn2fs6detail21FileDataCacheAccessorC1EPNS1_14IFileDataCacheE = 0x00000000001f7b20 + __sdk_start;
_ZN2nn2fs20GetGameCardImageHashEPvmj = 0x000000000020df50 + __sdk_start;
_ZTIN2nn2sf4cmif6client6detail13CmifProxyImplINS_2am7service22IGlobalStateControllerENS0_4hipc6client18Hipc2ProxyKindBaseILNS8_6detail11MessageTypeE6EEENS0_30MemoryResourceAllocationPolicyES7_NS3_19ProcessModifierImplINS2_21DefaultProxyFilterTagEEEEE = 0x0000000000bc9080 + __sdk_start;
_ZNK2nn3mii6detail16Ver3StoreDataRaw11GetEyebrowXEv = 0x00000000002ed610 + __sdk_start;
_ZN2nn3hid6detail35ResetSixAxisSensorCalibrationValuesENS0_6system25UniqueSixAxisSensorHandleE = 0x0000000000240b90 + __sdk_start;
_ZN2nn2sf4cmif6client6detail13CmifProxyImplINS_3hid16IHidSystemServerENS0_4hipc6client18Hipc2ProxyKindBaseILNS7_6detail11MessageTypeE6EEENS0_30MemoryResourceAllocationPolicyES6_NS3_19ProcessModifierImplINS2_21DefaultProxyFilterTagEEEE46_nn_sf_sync_CancelAnalogStickManualCalibrationENS5_6system11UniquePadIdEl = 0x000000000025ee10 + __sdk_start;
_ZN2nn3nfp6client23IsCreatedDebugInterfaceEv = 0x00000000002fbda0 + __sdk_start;
FS_close = 0x00000000001b0aa0 + __sdk_start;
readdir64 = 0x00000000004b9200 + __sdk_start;
_ZN2nn6crypto6detail11ClearMemoryEPvm = 0x000000000017dca0 + __sdk_start;
_ZN2nn4util6detail19FileInputStreamImpl4OpenEPKc = 0x00000000003a2460 + __sdk_start;
_ZN2nn7friends13FriendSetting13DropNewlyFlagEv = 0x00000000001dc940 + __sdk_start;
_ZN2nn2sf4cmif6client6detail13CmifProxyImplINS_6capsrv2sf24IAlbumApplicationServiceENS0_4hipc6client18Hipc2ProxyKindBaseILNS8_6detail11MessageTypeE6EEENS0_30MemoryResourceAllocationPolicyES7_NS3_19ProcessModifierImplINS2_21DefaultProxyFilterTagEEEE35_nn_sf_sync_GetAlbumFileSizeByAruidENS0_3OutImvEERKNS5_25ApplicationAlbumFileEntryENS_6applet20AppletResourceUserIdE = 0x00000000000d6e80 + __sdk_start;
_ZNKSt3__112basic_stringIcNS_11char_traitsIcEENS_9allocatorIcEEE12find_last_ofEPKcmm = 0x0000000000495d50 + __sdk_start;
_ZN2nn2ro6detail4BindEPNS1_8RoModuleEj = 0x000000000033df10 + __sdk_start;
_ZN2nn5audio29SetVoiceBiquadFilterParameterEPNS0_9VoiceTypeERKNS0_21BiquadFilterParameterE = 0x0000000000089c30 + __sdk_start;
_ZN2nn2sf4cmif6client34CmifDomainProxyClientCoreProcessorINS0_4hipc6client38Hipc2ClientSessionManagedProxyKindBaseINS5_18Hipc2ProxyKindBaseILNS4_6detail11MessageTypeE6EEEEENS1_6detail14CoreMethodInfoINSt3__15tupleIJNSC_17InRawArgumentInfoILm8ELm4ELl0EEENSC_18BufferArgumentInfoILi0ELi5ELm0EEENSG_ILm4ELm4ELl8EEEEEELm12ELm0ELb0EEESL_E7ProcessEPNS2_23CmifDomainClientMessageISB_E15ProxyBaseObjectENS2_23InRawClientArgumentTypeILm8ELm4EvEENS2_24BufferClientArgumentTypeENSS_ILm4ELm4EvEEj = 0x00000000002fd9d0 + __sdk_start;
_ZNSt3__111__libcpp_db16__invalidate_allEPv = 0x000000000044ee28 + __sdk_start;
_ZNSt3__16localeC2ERKS0_RKNS_12basic_stringIcNS_11char_traitsIcEENS_9allocatorIcEEEEi = 0x0000000000483d58 + __sdk_start;
fprintf = 0x00000000004f27f8 + __sdk_start;
_ZN2nn2sf4cmif6client6detail13CmifProxyImplINS_6grcsrv11IMovieMakerENS0_4hipc6client18Hipc2ProxyKindBaseILNS7_6detail11MessageTypeE6EEENS0_30MemoryResourceAllocationPolicyES6_NS3_19ProcessModifierImplINS2_21DefaultProxyFilterTagEEEE50_nn_sf_sync_GetOffscreenLayerAudioEncodeReadyEventENS0_3OutINS0_12NativeHandleEvEEm = 0x00000000000768b0 + __sdk_start;
_ZNK2nn7friends11BlockedUser18GetProfileImageUrlEPNS0_3UrlENS0_9ImageSizeE = 0x00000000001db110 + __sdk_start;
_ZNK2nn3mii6detail16Ver3StoreDataRaw11GetFaceTypeEv = 0x00000000002ecc90 + __sdk_start;
_ZN2nn2sf4cmif6client6detail13CmifProxyImplINS_4pctl6detail3ipc23IParentalControlServiceENS2_19CmifDomainProxyKindINS0_4hipc6client38Hipc2ClientSessionManagedProxyKindBaseINSB_18Hipc2ProxyKindBaseILNSA_6detail11MessageTypeE6EEEEEEENS0_30MemoryResourceAllocationPolicyES8_NS3_19ProcessModifierImplINS2_21DefaultProxyFilterTagEEEE38_nn_sf_sync_SetStereoVisionRestrictionEb = 0x0000000000333e40 + __sdk_start;
_ZN2nn2sf4cmif6client6detail13CmifProxyImplINS_3hid10IHidServerENS0_4hipc6client18Hipc2ProxyKindBaseILNS7_6detail11MessageTypeE6EEENS0_25StatelessAllocationPolicyINS0_22ExpHeapStaticAllocatorILm16384ENS5_6detail9HidServerEEEEES6_NS3_19ProcessModifierImplINS2_21DefaultProxyFilterTagEEEE35_nn_sf_sync_MergeSingleJoyAsDualJoyENS_6applet20AppletResourceUserIdEjj = 0x0000000000255040 + __sdk_start;
nnmem_nlib_memrchr_generic = 0x00000000002bfab0 + __sdk_start;
fflush_unlocked = 0x00000000004f2030 + __sdk_start;
_ZN2nn5audio20GetDelayFeedbackGainEPKNS0_9DelayTypeE = 0x0000000000082bf0 + __sdk_start;
_ZN2nn3mii16GetFavoriteColorENS0_13FavoriteColorENS0_9GammaTypeE = 0x00000000002e1b60 + __sdk_start;
_ZN2nn8settings6detail20SetPtmBatteryVersionEh = 0x000000000034e660 + __sdk_start;
_ZTv0_n24_NSt3__113basic_istreamIwNS_11char_traitsIwEEED1Ev = 0x00000000004567e8 + __sdk_start;
_ZN2nn2sf4cmif6client6detail13CmifProxyImplINS_5prepo6detail3ipc13IPrepoServiceENS2_19CmifDomainProxyKindINS0_4hipc6client38Hipc2ClientSessionManagedProxyKindBaseINSB_18Hipc2ProxyKindBaseILNSA_6detail11MessageTypeE6EEEEEEENS0_30MemoryResourceAllocationPolicyES8_NS3_19ProcessModifierImplINS2_21DefaultProxyFilterTagEEEE25_nn_sf_sync_GetStatisticsENS0_3OutINS5_10StatisticsEvEE = 0x000000000033baf0 + __sdk_start;
_ZNSt3__113basic_ostreamIwNS_11char_traitsIwEEE5seekpExNS_8ios_base7seekdirE = 0x000000000045d410 + __sdk_start;
_ZN2nn2os6detail20SignalLightEventImplEPNS0_14LightEventTypeE = 0x0000000000324ad0 + __sdk_start;
_ZN2nn2sf4cmif6client6detail13CmifProxyImplINS_2am7service26ILibraryAppletSelfAccessorENS2_19CmifDomainProxyKindINS0_4hipc6client38Hipc2ClientSessionManagedProxyKindBaseINSA_18Hipc2ProxyKindBaseILNS9_6detail11MessageTypeE6EEEEEEENS0_30MemoryResourceAllocationPolicyES7_NS3_19ProcessModifierImplINS2_21DefaultProxyFilterTagEEEE51_nn_sf_sync_GetMainAppletApplicationDesiredLanguageENS0_3OutINS_8settings12LanguageCodeEvEE = 0x000000000005f7a0 + __sdk_start;
_ZN2nn3hid6detail23StartSevenSixAxisSensorEv = 0x000000000022c9e0 + __sdk_start;
_ZdlPvmSt11align_val_t = 0x0000000000492de8 + __sdk_start;
_ZN2nn7nlibsdk4heap14TlsHeapCentral18GetSpanMappedArea_ERKNS1_4SpanE = 0x00000000002dbc00 + __sdk_start;
_ZN2nn2sf4cmif6client6detail13CmifProxyImplINS_2am7service17IOverlayFunctionsENS2_19CmifDomainProxyKindINS0_4hipc6client38Hipc2ClientSessionManagedProxyKindBaseINSA_18Hipc2ProxyKindBaseILNS9_6detail11MessageTypeE6EEEEEEENS0_30MemoryResourceAllocationPolicyES7_NS3_19ProcessModifierImplINS2_21DefaultProxyFilterTagEEEE44_nn_sf_sync_TerminateApplicationAndSetReasonEj = 0x00000000000616e0 + __sdk_start;
_ZN2nn2sf4cmif6client6detail13CmifProxyImplINS_4bcat6detail3ipc29IDeliveryCacheProgressServiceENS2_19CmifDomainProxyKindINS0_4hipc6client38Hipc2ClientSessionManagedProxyKindBaseINSB_18Hipc2ProxyKindBaseILNSA_6detail11MessageTypeE6EEEEEEENS0_30MemoryResourceAllocationPolicyES8_NS3_19ProcessModifierImplINS2_21DefaultProxyFilterTagEEEE20_nn_sf_sync_GetEventENS0_3OutINS0_12NativeHandleEvEE = 0x00000000000c3b00 + __sdk_start;
_ZN2nn2sf4hipc26AttachWaitHolderForReceiveEPNS_2os19MultiWaitHolderTypeENS_3svc6HandleE = 0x000000000035cf30 + __sdk_start;
_ZN2nn3err36ErrorViewerStartupParamForSystemData12SetErrorCodeERKNS0_9ErrorCodeE = 0x0000000000194e30 + __sdk_start;
_ZN7android19GraphicBufferMapper9lockYCbCrEPK13native_handleiRKNS_4RectEP13android_ycbcr = 0x000000000002fe00 + __sdk_start;
catan = 0x00000000004ccb10 + __sdk_start;
nnsocketRegisterResourceStatisticsName = 0x0000000000360f80 + __sdk_start;
_ZN2nn2sf4cmif6client6detail13CmifProxyImplINS_5visrv2sf26IApplicationDisplayServiceENS0_4hipc6client18Hipc2ProxyKindBaseILNS8_6detail11MessageTypeE6EEENS0_30MemoryResourceAllocationPolicyES7_NS3_19ProcessModifierImplINS2_21DefaultProxyFilterTagEEEE48_nn_sf_sync_GetIndirectDisplayTransactionServiceENS0_3OutINS0_13SharedPointerIN3nns9hosbinder16IHOSBinderDriverEEEvEE = 0x00000000003a5270 + __sdk_start;
_ZTIN2nn2sf4cmif6client6detail13CmifProxyImplINS_4nifm6detail15IGeneralServiceENS2_19CmifDomainProxyKindINS0_4hipc6client38Hipc2ClientSessionManagedProxyKindBaseINSA_18Hipc2ProxyKindBaseILNS9_6detail11MessageTypeE6EEEEEEENS0_30MemoryResourceAllocationPolicyES7_NS3_19ProcessModifierImplINS2_21DefaultProxyFilterTagEEEEE = 0x0000000000bddf90 + __sdk_start;
_ZTIN2nn2sf4cmif6client6detail9CmifProxyINS_3hid16IHidSystemServerENS0_4hipc6client18Hipc2ProxyKindBaseILNS7_6detail11MessageTypeE6EEENS0_25StatelessAllocationPolicyINS0_22ExpHeapStaticAllocatorILm16384ENS5_6detail15HidSystemServerEEEEENS3_19ProcessModifierImplINS2_21DefaultProxyFilterTagEEEvEE = 0x0000000000bd7e20 + __sdk_start;
_ZN7android22GraphicBufferAllocatorC2Ev = 0x000000000002f5d0 + __sdk_start;
dgettext = 0x00000000004b9cb8 + __sdk_start;
__stdio_write = 0x00000000004bcbf0 + __sdk_start;
pthread_once = 0x00000000004bd100 + __sdk_start;
_ZN2nn5audio17RemoveBufferMixerEPNS0_19AudioRendererConfigEPNS0_15BufferMixerTypeEPNS0_12FinalMixTypeE = 0x00000000000820a0 + __sdk_start;
_ZN7android21SurfaceComposerClient15releaseInstanceEv = 0x000000000002c590 + __sdk_start;
_ZN2nn2fs29EnableIndividualFileDataCacheEPKcPvm = 0x0000000000225b30 + __sdk_start;
_ZN2nn2sf4cmif6client34CmifDomainProxyClientCoreProcessorINS0_4hipc6client38Hipc2ClientSessionManagedProxyKindBaseINS5_18Hipc2ProxyKindBaseILNS4_6detail11MessageTypeE6EEEEENS1_6detail14CoreMethodInfoINSt3__15tupleIJNSC_18OutRawArgumentInfoILm32ELm8ELl0EEENSC_17InRawArgumentInfoILm8ELm8ELl8EEENSC_18BufferArgumentInfoILi0ELi5ELm0EEENSK_ILi1ELi5ELm0EEENSI_ILm4ELm4ELl0EEENSI_ILm4ELm4ELl4EEEEEELm16ELm32ELb0EEESP_E7ProcessEPNS2_23CmifDomainClientMessageISB_E15ProxyBaseObjectENS2_24OutRawClientArgumentTypeILm32ELm8EEENS2_23InRawClientArgumentTypeILm8ELm8EvEENS2_24BufferClientArgumentTypeES10_NSY_ILm4ELm4EvEES11_j = 0x0000000000065640 + __sdk_start;
_ZN3nne9rapidjson13GenericReaderINS0_4UTF8IcEES3_N2nn4http4json23NoAllocatorForRapidJsonEE9ParseHex4INS4_2ec4json29MemoryInputStreamForRapidJsonEEEjRT_m = 0x0000000000187380 + __sdk_start;
_ZN2nn4util16FileOutputStream4OpenEPKc = 0x00000000003a3250 + __sdk_start;
_ZN2nn3ngc6detail12BinaryWriter11WriteStreamEv = 0x0000000000308790 + __sdk_start;
_ZN2nn5audio3dsp20DspExceptionNotifierC2Ev = 0x00000000000bccb0 + __sdk_start;
_ZN2nn2sf4cmif6client6detail13CmifProxyImplINS_5visrv2sf22IManagerDisplayServiceENS0_4hipc6client18Hipc2ProxyKindBaseILNS8_6detail11MessageTypeE6EEENS0_30MemoryResourceAllocationPolicyES7_NS3_19ProcessModifierImplINS2_21DefaultProxyFilterTagEEEE52_nn_sf_sync_FinishDetachSharedLayerFromLowLevelLayerENS_2vi7fbshare17SharedLayerHandleE = 0x00000000003a78e0 + __sdk_start;
_ZN2nn5prepo10PlayReport9SetBufferEPvm = 0x000000000033a100 + __sdk_start;
nnmem_nlib_rwlock_trywrlock = 0x00000000002be770 + __sdk_start;
nnmem_nlib_thread_setname = 0x00000000002d3180 + __sdk_start;
_ZNK2nn7account10UiSettings9GetUiModeEv = 0x0000000000039cc0 + __sdk_start;
_ZN2nn4diag6detail16PrintDebugStringEPKcm = 0x0000000000180830 + __sdk_start;
_ZN2nn5codec27FinalizeHardwareOpusDecoderEPNS0_23HardwareOpusDecoderTypeE = 0x000000000011d690 + __sdk_start;
_ZN2nn8settings6system11GetThemeKeyEPNS_8fssystem13ArchiveMacKeyE = 0x0000000000349aa0 + __sdk_start;
_ZNK2nn2sf13SharedPointerINS_6capsrv2sf32IAlbumAccessorApplicationSessionEE19FunctionForBoolTypeEv = 0x00000000000d6b60 + __sdk_start;
_ZN2nn3hid5debug28SetTouchScreenAutoPilotStateILm9EEEvRKNS1_25TouchScreenAutoPilotStateIXT_EEE = 0x000000000024afe0 + __sdk_start;
strcspn = 0x00000000004f7fe0 + __sdk_start;
_ZN2nn2os25InitializeMultiWaitHolderEPNS0_19MultiWaitHolderTypeEPNS0_9EventTypeE = 0x0000000000324a50 + __sdk_start;
_ZN2nn5codec23CAacDecoder_AncDataInitEPNS0_8CAncDataEPhi = 0x000000000012a8b0 + __sdk_start;
_ZN2nn4nifm6detail13RequestClient26UnregisterSocketDescriptorEi = 0x0000000000313760 + __sdk_start;
_ZN2nn2sf4cmif6client34CmifDomainProxyClientCoreProcessorINS0_4hipc6client38Hipc2ClientSessionManagedProxyKindBaseINS5_18Hipc2ProxyKindBaseILNS4_6detail11MessageTypeE6EEEEENS1_6detail14CoreMethodInfoINSt3__15tupleIJNSC_18BufferArgumentInfoILi0ELi10ELm0EEENSC_18OutRawArgumentInfoILm4ELm4ELl0EEENSC_17InRawArgumentInfoILm4ELm4ELl0EEEEEELm4ELm4ELb0EEESM_E7ProcessEPNS2_23CmifDomainClientMessageISB_E15ProxyBaseObjectENS2_24BufferClientArgumentTypeENS2_24OutRawClientArgumentTypeILm4ELm4EEENS2_23InRawClientArgumentTypeILm4ELm4EvEEj = 0x0000000000316680 + __sdk_start;
_ZTIN2nn5audio6server22CircularBufferSinkInfoE = 0x0000000000bcd970 + __sdk_start;
FDKmemcmp = 0x00000000001711c0 + __sdk_start;
_ZN2nn2sf4cmif6client6detail13CmifProxyImplINS_3ssl2sf14ISslConnectionENS2_19CmifDomainProxyKindINS0_4hipc6client38Hipc2ClientSessionManagedProxyKindBaseINSA_18Hipc2ProxyKindBaseILNS9_6detail11MessageTypeE6EEEEEEENS0_24StatefulAllocationPolicyINS0_16ExpHeapAllocatorEEES7_NS3_19ProcessModifierImplINS2_21DefaultProxyFilterTagEEEE27_nn_sf_sync_GetVerifyOptionENS0_3OutINS6_12VerifyOptionEvEE = 0x000000000037caa0 + __sdk_start;
fabs = 0x00000000004db108 + __sdk_start;
_ZN2nn2fs6detail8IdString8ToStringINS0_8PriorityEEEPKcT_ = 0x00000000001e5450 + __sdk_start;
_ZN2nn2os30InitializeVirtualAddressMemoryEv = 0x0000000000328b70 + __sdk_start;
_ZN2nn3ngc6detail11BitVector32D2Ev = 0x000000000030d6b0 + __sdk_start;
_ZN2nn5audio6server38CommandProcessingTimeEstimatorVersion28EstimateERKNS0_25CircularBufferSinkCommandE = 0x00000000000a54f0 + __sdk_start;
nncodecLibopus_anti_collapse = 0x00000000000d8a10 + __sdk_start;
_ZTIN2nn3hid13VibrationNodeE = 0x0000000000bd6d30 + __sdk_start;
_ZN2nn5audio6server16CommandGenerator26CalculateCommandBufferSizeERKNS0_6detail30AudioRendererParameterInternalE = 0x00000000000a49b0 + __sdk_start;
_ZN2nn5codec27CConcealment_SetAttenuationEPNS0_14CConcealParamsEPsS3_ = 0x0000000000131790 + __sdk_start;
_ZTIN2nn2sf6detail38ObjectImplFactoryWithStatefulAllocatorINS0_4cmif6client6detail9CmifProxyINS_3nsd6detail8IManagerENS0_4hipc6client18Hipc2ProxyKindBaseILNSA_6detail11MessageTypeE6EEENS0_30MemoryResourceAllocationPolicyENS5_19ProcessModifierImplINS4_21DefaultProxyFilterTagEEEvEESG_E6ObjectE = 0x0000000000bdf3d0 + __sdk_start;
_ZTIN2nn7timesrv6detail7service14IStaticServiceE = 0x0000000000be41d0 + __sdk_start;
_ZN2nn2fs6detail31GetFileSystemProxyServiceObjectEv = 0x00000000001f7c40 + __sdk_start;
_ZN2nn7nlibsdk4heap12TlsHeapCache17FreeFuncSizeMode0INSt3__117integral_constantIbLb1EEEEEiPS2_Pvm = 0x00000000002d6c00 + __sdk_start;
_ZTVN2nn3ngc6detail16NullOutputStreamE = 0x0000000000bddb48 + __sdk_start;
_ZN2nn5codec32CLatmDemux_ReadAuChunkLengthInfoEPNS0_13FDK_BITSTREAME = 0x000000000014c350 + __sdk_start;
_ZN2nn2sf4hipc6client24Hipc2ClientCoreProcessorILNS1_6detail11MessageTypeE6ENS0_4cmif6detail14CoreMethodInfoINSt3__15tupleIJNS7_17InRawArgumentInfoILm8ELm8ELl8EEENS7_18OutRawArgumentInfoILm16ELm8ELl0EEENS7_18BufferArgumentInfoILi0ELi6ELm0EEENSB_ILm4ELm4ELl0EEEEEELm16ELm16ELb1EEESI_E7ProcessEPNS2_26Hipc2ClientProxyBaseObjectENS6_6client23InRawClientArgumentTypeILm8ELm8EvEENSN_24OutRawClientArgumentTypeILm16ELm8EEENSN_24BufferClientArgumentTypeENSO_ILm4ELm4EvEEj = 0x000000000029f400 + __sdk_start;
_ZN2nn2sf4cmif6client6detail13CmifProxyImplINS_2am7service18ICommonStateGetterENS2_19CmifDomainProxyKindINS0_4hipc6client38Hipc2ClientSessionManagedProxyKindBaseINSA_18Hipc2ProxyKindBaseILNS9_6detail11MessageTypeE6EEEEEEENS0_30MemoryResourceAllocationPolicyES7_NS3_19ProcessModifierImplINS2_21DefaultProxyFilterTagEEEE30_nn_sf_sync_GetCradleFwVersionENS0_3OutIjvEESO_SO_SO_ = 0x0000000000057460 + __sdk_start;
_ZN2nn5audio17StopAudioRendererENS0_19AudioRendererHandleE = 0x000000000008f950 + __sdk_start;
_ZN2nn5codec7sbr_decEPNS0_7SBR_DECEPsS3_S2_S3_iiPNS0_15SBR_HEADER_DATAEPNS0_14SBR_FRAME_DATAEPNS0_19SBR_PREV_FRAME_DATAEiPNS0_6PS_DECEji = 0x000000000016a280 + __sdk_start;
_ZN2nn2fs31SaveDataTransferManagerVersion222CancelSuspendingImportENS_3ncm13ApplicationIdERKNS_7account3UidE = 0x00000000002295c0 + __sdk_start;
_ZN2nn8settings23ResetFullKeyKeyboardMapENS0_12FullKeyIndexE = 0x0000000000347960 + __sdk_start;
_ZN2nn5audio30GetAudioInsProcessMasterVolumeEPfNS_6applet20AppletResourceUserIdE = 0x000000000008e960 + __sdk_start;
FDKatan = 0x0000000000171240 + __sdk_start;
_ZN2nn5swkbd14InlineKeyboard29SetFinishedInitializeCallbackEPFvvE = 0x0000000000380970 + __sdk_start;
_ZN2nn2sf4hipc6client24Hipc2ClientCoreProcessorILNS1_6detail11MessageTypeE6ENS0_4cmif6detail14CoreMethodInfoINSt3__15tupleIJNS7_18OutRawArgumentInfoILm4ELm4ELl0EEENSB_ILm16ELm8ELl8EEENSB_ILm16ELm8ELl24EEENS7_18BufferArgumentInfoILi0ELi5ELm0EEENS7_17InRawArgumentInfoILm8ELm8ELl8EEENSH_ILm16ELm8ELl16EEENSH_ILm16ELm8ELl32EEENSH_ILm32ELm8ELl48EEENSH_ILm4ELm4ELl0EEENSF_ILi1ELi6ELm0EEEEEELm80ELm40ELb0EEESO_E7ProcessEPNS2_26Hipc2ClientProxyBaseObjectENS6_6client24OutRawClientArgumentTypeILm4ELm4EEENSU_ILm16ELm8EEESW_NST_24BufferClientArgumentTypeENST_23InRawClientArgumentTypeILm8ELm8EvEENSY_ILm16ELm8EvEES10_NSY_ILm32ELm8EvEENSY_ILm4ELm4EvEESX_j = 0x00000000002b2fe0 + __sdk_start;
_ZN7android19BufferQueueProducer28getBufferReleasedEventHandleERjRb = 0x000000000001a8e0 + __sdk_start;
_ZNK2nn2os6detail23MultiWaitHolderOfThread10IsSignaledEv = 0x000000000032b820 + __sdk_start;
_ZN2nn2fs36CorruptSaveDataThumbnailFileForDebugEmRKNS_7account3UidE = 0x00000000002294a0 + __sdk_start;
_ZN2nn4nifm19GetDefaultIpSettingEPNS0_13IpSettingDataE = 0x0000000000318ec0 + __sdk_start;
_ZNKSt3__115basic_streambufIcNS_11char_traitsIcEEE6getlocEv = 0x0000000000452de0 + __sdk_start;
_ZNKSt3__15ctypeIcE10do_tolowerEc = 0x00000000004858c8 + __sdk_start;
__set_tp = 0x000000000050b930 + __sdk_start;
_ZNK2nn7account49ExternalNetworkServiceAccountIntroducingProcedure26GetLinkedNintendoAccountIdEPNS0_17NintendoAccountIdE = 0x000000000004d660 + __sdk_start;
_ZN2nn3mii6detail28GetFacelineColorByOrderIndexEi = 0x00000000002e39a0 + __sdk_start;
_ZN2nn4time27EphemeralNetworkSystemClock9to_time_tERKNSt3__16chrono10time_pointINS0_17SystemClockTraitsENS3_8durationIlNS2_5ratioILl1ELl1EEEEEEE = 0x0000000000385550 + __sdk_start;
_ZN2nn3hid6detail12FinalizeHdlsEv = 0x000000000022ee90 + __sdk_start;
_ZN2nn2sf4hipc6client24Hipc2ClientCoreProcessorILNS1_6detail11MessageTypeE6ENS0_4cmif6detail14CoreMethodInfoINSt3__15tupleIJNS7_18OutRawArgumentInfoILm8ELm8ELl0EEENSB_ILm8ELm8ELl8EEENS7_17InRawArgumentInfoILm8ELm8ELl0EEEEEELm8ELm16ELb0EEESG_E7ProcessEPNS2_26Hipc2ClientProxyBaseObjectENS6_6client24OutRawClientArgumentTypeILm8ELm8EEESN_NSL_23InRawClientArgumentTypeILm8ELm8EvEEj = 0x00000000003a7bf0 + __sdk_start;
sched_yield = 0x00000000004ba978 + __sdk_start;
_ZTIN2nn2fs25ISaveDataDivisionImporterE = 0x0000000000bd62c8 + __sdk_start;
_ZN2nn4htcs5CloseEi = 0x0000000000268640 + __sdk_start;
putwc = 0x00000000004f3dd8 + __sdk_start;
_ZN2nn3mii6detail16Ver3StoreDataRaw11SetCopyableEi = 0x00000000002f0ad0 + __sdk_start;
pthread_condattr_setpshared = 0x00000000004bcfc0 + __sdk_start;
_ZN2nn2sf4cmif6client6detail13CmifProxyImplINS_2am7service18IAppletProxyCommonENS2_19CmifDomainProxyKindINS0_4hipc6client38Hipc2ClientSessionManagedProxyKindBaseINSA_18Hipc2ProxyKindBaseILNS9_6detail11MessageTypeE6EEEEEEENS0_30MemoryResourceAllocationPolicyENS6_19IOverlayAppletProxyENS3_19ProcessModifierImplINS2_21DefaultProxyFilterTagEEEE31_nn_sf_sync_GetWindowControllerENS0_3OutINS0_13SharedPointerINS6_17IWindowControllerEEEvEE = 0x0000000000060fe0 + __sdk_start;
_ZN2nn5codec5f2PowEii = 0x0000000000141970 + __sdk_start;
_ZN2nn2sf4cmif6client6detail13CmifProxyImplINS_3hid15IHidDebugServerENS0_4hipc6client18Hipc2ProxyKindBaseILNS7_6detail11MessageTypeE6EEENS0_25StatelessAllocationPolicyINS0_22ExpHeapStaticAllocatorILm16384ENS5_6detail14HidDebugServerEEEEES6_NS3_19ProcessModifierImplINS2_21DefaultProxyFilterTagEEEE46_nn_sf_sync_GetConsoleSixAxisSensorCountStatesENS0_3OutIivEERKNS0_8OutArrayINS5_5debug30ConsoleSixAxisSensorCountStateEEENS_6applet20AppletResourceUserIdE = 0x0000000000251d70 + __sdk_start;
_ZN2nn2os6detail27TransferMemoryImplByHorizon6CreateEPjPvmNS0_16MemoryPermissionE = 0x000000000032daa0 + __sdk_start;
_ZTIN2nn6socket2sf7IClientE = 0x0000000000be3540 + __sdk_start;
_ZN2nn3ngc6detail17MemoryInputStream6Close_Ev = 0x000000000030d6a0 + __sdk_start;
_ZN2nn7account11GetNicknameEPNS0_8NicknameERKNS0_3UidE = 0x000000000003bb60 + __sdk_start;
_ZN2nn2sf4cmif6client6detail36GetClientProcessorImplWithObjectBaseINS0_4hipc6client18Hipc2ProxyKindBaseILNS5_6detail11MessageTypeE6EEENS3_19ProcessModifierImplINS2_21DefaultProxyFilterTagEEEE14ObjectAssignerINS0_30MemoryResourceAllocationPolicyENS_14MemoryResourceEE14AllocateObjectINS_2am7service31ISystemAppletControllerForDebugEEEvi = 0x0000000000077d30 + __sdk_start;
_ZZN2nn2sf31SimpleAllInOneHipcClientManagerILm1EE27InitializeShimLibraryHolderINS_3mii6detail21IImageDatabaseServiceENS0_4cmif6client6detail19ProcessModifierImplINS8_21DefaultProxyFilterTagEEEEENS_6ResultEPNS0_23ShimLibraryObjectHolderIT_EEPKcPNS_14MemoryResourceEENUlPvE_8__invokeESM_ = 0x00000000002f7700 + __sdk_start;
_ZNSt16bad_array_lengthD1Ev = 0x00000000004b52d8 + __sdk_start;
_ZN2nn5image6detail4jpeg16jpeg_set_qualityEPNS2_20jpeg_compress_structEib = 0x00000000002786c0 + __sdk_start;
nndetailDiagAbortFormatImpl = 0x000000000017f140 + __sdk_start;
_ZN2nn6socket6detail6SysctlEPimPvPmS3_m = 0x000000000036a830 + __sdk_start;
unload_cmap_cache = 0x00000000001a3890 + __sdk_start;
sin = 0x00000000004e39d0 + __sdk_start;
_ZN2nn7account38IntroduceExternalNetworkServiceAccountEPNS0_33ExternalNetworkServiceAccountInfoEPvm = 0x000000000003c410 + __sdk_start;
_ZN2nn2sf4hipc6client24Hipc2ClientCoreProcessorILNS1_6detail11MessageTypeE6ENS0_4cmif6detail14CoreMethodInfoINSt3__15tupleIJNS7_18OutRawArgumentInfoILm44ELm4ELl0EEEEEELm0ELm44ELb0EEESD_E7ProcessEPNS2_26Hipc2ClientProxyBaseObjectENS6_6client24OutRawClientArgumentTypeILm44ELm4EEEj = 0x0000000000344e50 + __sdk_start;
_ZN2nn2sf4cmif6client6detail13CmifProxyImplINS_7account19IAccountServiceBaseENS2_19CmifDomainProxyKindINS0_4hipc6client38Hipc2ClientSessionManagedProxyKindBaseINS9_18Hipc2ProxyKindBaseILNS8_6detail11MessageTypeE6EEEEEEENS0_25StatelessAllocationPolicyINS0_22ExpHeapStaticAllocatorILm2048ENS5_6detail12ObjectHolder24ObjectHolderAllocatorTagEEEEENS5_31IAccountServiceForAdministratorENS3_19ProcessModifierImplINS2_21DefaultProxyFilterTagEEEE28_nn_sf_sync_GetUserExistenceENS0_3OutIbvEERKNS5_3UidE = 0x00000000000443f0 + __sdk_start;
_ZN2nn4nifm20RemoveNetworkProfileERKNS_4util4UuidE = 0x0000000000319d50 + __sdk_start;
_ZN2nn2sf4cmif6client6detail13CmifProxyImplINS_4pctl6detail3ipc23IParentalControlServiceENS2_19CmifDomainProxyKindINS0_4hipc6client38Hipc2ClientSessionManagedProxyKindBaseINSB_18Hipc2ProxyKindBaseILNSA_6detail11MessageTypeE6EEEEEEENS0_30MemoryResourceAllocationPolicyES8_NS3_19ProcessModifierImplINS2_21DefaultProxyFilterTagEEEE46_nn_sf_sync_ConfirmResumeApplicationPermissionENS_3ncm13ApplicationIdERKNS0_7InArrayIaEEb = 0x0000000000333990 + __sdk_start;
_ZN2nn5album20InitializeMovieMakerEPvm = 0x000000000004f3f0 + __sdk_start;
NvRmGpuChannelControl = 0x00000000003ef0d0 + __sdk_start;
_ZN2nn2fs21TryCreateCacheStorageEPlNS0_15SaveDataSpaceIdENS_3ncm13ApplicationIdEmtllb = 0x0000000000226ac0 + __sdk_start;
_ZN2nn2fs6detail18FileSystemAccessor17GetTotalSpaceSizeEPlPKc = 0x00000000001ef840 + __sdk_start;
_ZN2nn4diag21UnregisterLogObserverEPNS0_17LogObserverHolderE = 0x000000000017f780 + __sdk_start;
_ZN2nn2fs21MountSaveDataReadOnlyEPKcNS_13ApplicationIdERKNS_7account3UidE = 0x0000000000228550 + __sdk_start;
fgetc_unlocked = 0x00000000004f3650 + __sdk_start;
_ZTIN2nn5fssrv2sf17ISaveDataImporterE = 0x0000000000bd4990 + __sdk_start;
_ZTIN2nn2am7service31ISystemAppletControllerForDebugE = 0x0000000000bc6d80 + __sdk_start;
nnosAttachSystemEvent = 0x00000000003292e0 + __sdk_start;
_ZN2nn2sf4cmif6client34CmifDomainProxyClientCoreProcessorINS0_4hipc6client38Hipc2ClientSessionManagedProxyKindBaseINS5_18Hipc2ProxyKindBaseILNS4_6detail11MessageTypeE6EEEEENS1_6detail14CoreMethodInfoINSt3__15tupleIJNSC_18BufferArgumentInfoILi0ELi26ELm4096EEENSG_ILi1ELi26ELm256EEENSC_17InRawArgumentInfoILm4ELm4ELl0EEEEEELm4ELm0ELb0EEESL_E7ProcessEPNS2_23CmifDomainClientMessageISB_E15ProxyBaseObjectENS2_24BufferClientArgumentTypeESS_NS2_23InRawClientArgumentTypeILm4ELm4EvEEj = 0x00000000000478d0 + __sdk_start;
nncodecLibopus_silk_stereo_find_predictor = 0x00000000001027e0 + __sdk_start;
NvRmChannelMapAtSubmitEnabled = 0x00000000003d4790 + __sdk_start;
_ZN2nn8settings6detail20GetPtmBatteryVersionEPh = 0x000000000034e5e0 + __sdk_start;
_ZN2nn2sf6detail39ObjectImplFactoryWithStatelessAllocatorINS0_4cmif6client6detail9CmifProxyINS_3hid16IHidSystemServerENS0_4hipc6client18Hipc2ProxyKindBaseILNS9_6detail11MessageTypeE6EEENS0_25StatelessAllocationPolicyINS0_22ExpHeapStaticAllocatorILm16384ENS7_6detail15HidSystemServerEEEEENS5_19ProcessModifierImplINS4_21DefaultProxyFilterTagEEEvEESK_E6Object12AddReferenceEv = 0x00000000002585b0 + __sdk_start;
_ZNSt3__115recursive_mutexD2Ev = 0x00000000004925a8 + __sdk_start;
__popcountdi2 = 0x0000000000501490 + __sdk_start;
strcasecmp = 0x00000000004f7cf8 + __sdk_start;
_ZN2nn4util12FormatStringEPFvmPKciEmS2_z = 0x000000000039e6e0 + __sdk_start;
_ZdaPv = 0x0000000000492cc8 + __sdk_start;
_ZN2nn2sf4cmif6client6detail13CmifProxyImplINS_2am7service21IStackableAppletProxyENS0_4hipc6client18Hipc2ProxyKindBaseILNS8_6detail11MessageTypeE6EEENS0_30MemoryResourceAllocationPolicyENS6_19IOverlayAppletProxyENS3_19ProcessModifierImplINS2_21DefaultProxyFilterTagEEEE35_nn_sf_sync_GetLibraryAppletCreatorENS0_3OutINS0_13SharedPointerINS6_21ILibraryAppletCreatorEEEvEE = 0x0000000000073790 + __sdk_start;
_ZN2nn3hid6system19GetNpadBatteryLevelERKj = 0x0000000000247400 + __sdk_start;
nnosWaitInterruptEvent = 0x0000000000329460 + __sdk_start;
_ZN2nn2sf4cmif6client6detail36GetClientProcessorImplWithObjectBaseINS2_19CmifDomainProxyKindINS0_4hipc6client38Hipc2ClientSessionManagedProxyKindBaseINS7_18Hipc2ProxyKindBaseILNS6_6detail11MessageTypeE6EEEEEEENS3_19ProcessModifierImplINS2_21DefaultProxyFilterTagEEEE14ObjectAssignerINS0_30MemoryResourceAllocationPolicyENS_14MemoryResourceEE14AllocateObjectINS_2am7service18ISystemAppletProxyEEEvi = 0x0000000000056650 + __sdk_start;
_ZNK2nn5audio6server23SplitterDestinationData8GetMixIdEv = 0x00000000000aaee0 + __sdk_start;
_ZN2nn4nifm17NetworkConnectionC1Ev = 0x000000000031a920 + __sdk_start;
_ZN2nn2oe25BeginMediaPlaybackSectionEv = 0x00000000003220d0 + __sdk_start;
_ZN2nn8settings5fwdbg30DestroySettingsItemKeyIteratorEPNS1_23SettingsItemKeyIteratorE = 0x000000000033f620 + __sdk_start;
_ZN2nn2sf4cmif6client34CmifDomainProxyClientCoreProcessorINS0_4hipc6client38Hipc2ClientSessionManagedProxyKindBaseINS5_18Hipc2ProxyKindBaseILNS4_6detail11MessageTypeE6EEEEENS1_6detail14CoreMethodInfoINSt3__15tupleIJNSC_17InRawArgumentInfoILm4ELm4ELl0EEENSC_18OutRawArgumentInfoILm4ELm4ELl0EEEEEELm4ELm4ELb0EEESK_E7ProcessEPNS2_23CmifDomainClientMessageISB_E15ProxyBaseObjectENS2_23InRawClientArgumentTypeILm4ELm4EvEENS2_24OutRawClientArgumentTypeILm4ELm4EEEj = 0x000000000037cdf0 + __sdk_start;
NvUHashSearch = 0x00000000003bd490 + __sdk_start;
_ZNKSt3__118__time_get_storageIcE15__do_date_orderEv = 0x00000000004711f0 + __sdk_start;
isblank = 0x00000000004d6c20 + __sdk_start;
_ZN2nn5codec21adifRead_DecodeHeaderEPNS0_11CAdifHeaderEPNS0_14CProgramConfigEPNS0_13FDK_BITSTREAME = 0x0000000000144350 + __sdk_start;
_ZN2nn3nfc8GetStateEv = 0x00000000002fab10 + __sdk_start;
_ZN2nn2oe24GetExpectedVolumeBalanceEPfS1_ = 0x0000000000322920 + __sdk_start;
_ZN2nn3hid6detail17GetKeyboardStatesEPiPNS0_13KeyboardStateEi = 0x0000000000231cc0 + __sdk_start;
_ZNSt3__113basic_istreamIcNS_11char_traitsIcEEE5tellgEv = 0x00000000004563c0 + __sdk_start;
_ZTIN2nn4bcat6detail3ipc28IDeliveryCacheStorageServiceE = 0x0000000000bcdfd0 + __sdk_start;
pcmDmx_ReadDvbAncData = 0x0000000000150890 + __sdk_start;
_ZN2nn2sf4cmif6client6detail13CmifProxyImplINS_3hid10IHidServerENS0_4hipc6client18Hipc2ProxyKindBaseILNS7_6detail11MessageTypeE6EEENS0_25StatelessAllocationPolicyINS0_22ExpHeapStaticAllocatorILm16384ENS5_6detail9HidServerEEEEES6_NS3_19ProcessModifierImplINS2_21DefaultProxyFilterTagEEEE21_nn_sf_sync_PairPalmaENS5_21PalmaConnectionHandleE = 0x0000000000255ae0 + __sdk_start;
_ZN2nn2fs3fsa5IFileD2Ev = 0x00000000001eda30 + __sdk_start;
_ZN2nn5audio12SplitterInfo9SetInUsedEb = 0x0000000000088790 + __sdk_start;
_ZTIN2nn2ec4json29MemoryInputStreamForRapidJsonE = 0x0000000000bd15f0 + __sdk_start;
_ZN2nn4time26StandardNetworkSystemClock9to_time_tERKNSt3__16chrono10time_pointINS0_17SystemClockTraitsENS3_8durationIlNS2_5ratioILl1ELl1EEEEEEE = 0x0000000000385870 + __sdk_start;
nvgr_get_hdr_format_flags = 0x00000000003ee0f0 + __sdk_start;
_ZNSt3__16chrono12steady_clock3nowEv = 0x000000000044dc68 + __sdk_start;
_ZNK2nn5audio6server12BehaviorInfo49IsVoicePlayedSampleCountResetAtLoopPointSupportedEv = 0x00000000000a7e20 + __sdk_start;
_ZN2nn2sf6detail39ObjectImplFactoryWithStatelessAllocatorINS0_4cmif6client6detail9CmifProxyINS_3hid19IHidTemporaryServerENS0_4hipc6client18Hipc2ProxyKindBaseILNS9_6detail11MessageTypeE6EEENS0_25StatelessAllocationPolicyINS0_22ExpHeapStaticAllocatorILm16384ENS7_6detail18HidTemporaryServerEEEEENS5_19ProcessModifierImplINS4_21DefaultProxyFilterTagEEEvEESK_E6Object7ReleaseEv = 0x000000000025af10 + __sdk_start;
_ZN2nn5image6detail4jpeg19jpeg_write_raw_dataEPNS2_20jpeg_compress_structEPPPhi = 0x000000000026cc90 + __sdk_start;
_ZN2nn5audio6common11SupportTags29MixInParameterDirtyOnlyUpdateE = 0x0000000000bcb470 + __sdk_start;
__divmodsi4 = 0x00000000004fdf80 + __sdk_start;
_ZTIN2nn2fs10SubStorageE = 0x0000000000bd3520 + __sdk_start;
_ZN2nn2fs6detail31ReadSaveDataFileSystemExtraDataEPNS0_17SaveDataExtraDataEm = 0x00000000002147e0 + __sdk_start;
_ZN2nn2os6detail23MultiWaitHolderOfThread20RemoveFromObjectListEv = 0x000000000032b8e0 + __sdk_start;
_ZN2nn3ngc15ProfanityFilter23CheckProfanityWordsImplEPjPPKDsmb = 0x0000000000302a20 + __sdk_start;
__ldexp_cexp = 0x00000000004ce9a8 + __sdk_start;
_ZN2nn5image6detail4jpeg19jpeg_set_colorspaceEPNS2_20jpeg_compress_structENS2_13J_COLOR_SPACEE = 0x0000000000278ca0 + __sdk_start;
_ZN2nn2sf4cmif6client6detail13CmifProxyImplINS_7account4baas18IGuestLoginRequestENS2_19CmifDomainProxyKindINS0_4hipc6client38Hipc2ClientSessionManagedProxyKindBaseINSA_18Hipc2ProxyKindBaseILNS9_6detail11MessageTypeE6EEEEEEENS0_25StatelessAllocationPolicyINS0_22ExpHeapStaticAllocatorILm2048ENS5_6detail12ObjectHolder24ObjectHolderAllocatorTagEEEEES7_NS3_19ProcessModifierImplINS2_21DefaultProxyFilterTagEEEE23_nn_sf_sync_GetNicknameERKNS0_8OutArrayIcEE = 0x0000000000041440 + __sdk_start;
_ZN2nn9bluetooth23FinalizeBluetoothDriverEv = 0x00000000000ca600 + __sdk_start;
_ZN2nn3hid16GetKeyboardStateEPNS0_13KeyboardStateE = 0x0000000000245130 + __sdk_start;
_ZN2nn6crypto6detail11XtsModeImpl13ProcessBlocksINS0_12AesDecryptorILm16EEEEEmPhPKhi = 0x000000000017d160 + __sdk_start;
_ZN2nn2sf4hipc6detail25HipcMessageBufferAccessor7SetSendEimmj = 0x0000000000356e80 + __sdk_start;
_ZN2nn7account34NetworkServiceAccountAdministrator40ResumeProcedureToLinkWithNintendoAccountEPNS0_31NintendoAccountLinkageProcedureERKNS0_9SessionIdE = 0x000000000004bad0 + __sdk_start;
_ZNK2nn7account13ProfileEditor11GetNicknameEPNS0_8NicknameE = 0x000000000004dd90 + __sdk_start;
_ZN2nn5codec31FreeAacDecoderStaticChannelInfoEPPNS0_28CAacDecoderStaticChannelInfoE = 0x0000000000121040 + __sdk_start;
_ZThn32_N2nn2sf4cmif6client6detail13CmifProxyImplINS_4nifm6detail14IStaticServiceENS2_19CmifDomainProxyKindINS0_4hipc6client38Hipc2ClientSessionManagedProxyKindBaseINSA_18Hipc2ProxyKindBaseILNS9_6detail11MessageTypeE6EEEEEEENS0_30MemoryResourceAllocationPolicyES7_NS3_19ProcessModifierImplINS2_21DefaultProxyFilterTagEEEE17GetCmifBaseObjectEv = 0x00000000003147d0 + __sdk_start;
_ZN7android8String16C1ERKS0_ = 0x0000000000033e40 + __sdk_start;
_ZNSt3__117moneypunct_bynameIwLb0EE4initEPKc = 0x0000000000474a20 + __sdk_start;
_ZN2nn2fs6detail18FileSystemAccessor6CommitEv = 0x00000000001efc90 + __sdk_start;
_ZN2nn2os6detail33MultiWaitHolderOfNativeWaitObject20RemoveFromObjectListEv = 0x000000000032bd50 + __sdk_start;
_ZN2nn3nsd7ResolveEPNS0_4FqdnERKS1_ = 0x000000000031ea90 + __sdk_start;
NvRmMemHandleAlloc = 0x00000000003cf5d0 + __sdk_start;
__nnmusl_YieldThread = 0x0000000000507398 + __sdk_start;
nnmem_nlib_rwlock_destroy = 0x00000000002be3a0 + __sdk_start;
_ZN2nn2sf4cmif6client6detail13CmifProxyImplINS_2am7service18ICommonStateGetterENS0_4hipc6client18Hipc2ProxyKindBaseILNS8_6detail11MessageTypeE6EEENS0_30MemoryResourceAllocationPolicyES7_NS3_19ProcessModifierImplINS2_21DefaultProxyFilterTagEEEE29_nn_sf_sync_AllowToEnterSleepEv = 0x00000000000688b0 + __sdk_start;
_ZN4nerd16VibrationEncoder12ProcessChunkEPKsPN2nn3hid14VibrationValueE = 0x0000000000251170 + __sdk_start;
_ZN7android12ConsumerBase7setNameERKNS_7String8E = 0x000000000001bf40 + __sdk_start;
_ZN7android8String165setToERKS0_mm = 0x0000000000033ec0 + __sdk_start;
_ZN2nn5image6detail4jpeg14jpeg_idct_14x7EPNS2_22jpeg_decompress_structEPNS2_19jpeg_component_infoEPsPPhi = 0x000000000028d480 + __sdk_start;
_ZN2nn3mii6detail25CalculateSizeAndAlignment7AddSizeEm = 0x00000000002e2660 + __sdk_start;
_ZN2nn8settings6system19SetUsb30HostEnabledEb = 0x000000000034a120 + __sdk_start;
FracSqrt = 0x00000000001b0b80 + __sdk_start;
nvdcQueryHeadStatus = 0x00000000003b9790 + __sdk_start;
_ZNKSt3__111__libcpp_db17__dereferenceableEPKv = 0x000000000044f540 + __sdk_start;
_ZTIN2nn2am7service19IApplicationCreatorE = 0x0000000000bc5af0 + __sdk_start;
_ZN2nn4htcs6AcceptEiPNS0_12SockAddrHtcsE = 0x00000000002686a0 + __sdk_start;
_ZN2nn2lm6detail17ShimLibraryGlobal11GetInstanceEv = 0x00000000002b9ed0 + __sdk_start;
_ZTIN2nn6hidbus13IHidbusServerE = 0x0000000000bd81a0 + __sdk_start;
_ZNKSt3__17codecvtIwc11__mbstate_tE10do_unshiftERS1_PcS4_RS4_ = 0x0000000000487370 + __sdk_start;
_ZN2nn8settings6system16SetThemeSettingsERKNS1_13ThemeSettingsE = 0x0000000000349b90 + __sdk_start;
_ZN2nn6result6detail17OnUnhandledResultENS_6ResultE = 0x000000000033c710 + __sdk_start;
_ZN2nn5audio6server12DetailAspectC2EPNS1_16CommandGeneratorENS0_20PerformanceEntryTypeEjNS0_21PerformanceDetailTypeE = 0x00000000000a1ff0 + __sdk_start;
_ZN2nn3hid6detail25SetPalmaUniqueCodeInvalidERKNS0_21PalmaConnectionHandleE = 0x00000000002387c0 + __sdk_start;
mempcpy = 0x00000000004f7a18 + __sdk_start;
_ZN2nn2sf4cmif6client6detail13CmifProxyImplINS_2am7service15IAppletAccessorENS0_4hipc6client18Hipc2ProxyKindBaseILNS8_6detail11MessageTypeE6EEENS0_30MemoryResourceAllocationPolicyES7_NS3_19ProcessModifierImplINS2_21DefaultProxyFilterTagEEEE17GetCmifBaseObjectEv = 0x000000000006de40 + __sdk_start;
_ZN2nn3hid6detail32UnsetAllAutoPilotVirtualPadStateEv = 0x000000000022b0b0 + __sdk_start;
_ZN2nn3nfc10ReadMifareEPNS0_19MifareReadBlockDataERKNS0_12DeviceHandleEPKNS0_24MifareReadBlockParameterEm = 0x00000000002fb250 + __sdk_start;
_ZN2nn2sf4cmif6client34CmifDomainProxyClientCoreProcessorINS0_4hipc6client38Hipc2ClientSessionManagedProxyKindBaseINS5_18Hipc2ProxyKindBaseILNS4_6detail11MessageTypeE6EEEEENS1_6detail14CoreMethodInfoINSt3__15tupleIJNSC_21OutObjectArgumentInfoILi0ELi0EEENSC_18BufferArgumentInfoILi0ELi5ELm0EEENSC_17InRawArgumentInfoILm16ELm8ELl8EEENSK_ILm1ELm1ELl0EEEEEELm24ELm0ELb0EEESN_E21ProcessWithOutObjectsEPNS2_23CmifDomainClientMessageISB_E15ProxyBaseObjectENS2_27OutObjectClientArgumentTypeENS2_24BufferClientArgumentTypeENS2_23InRawClientArgumentTypeILm16ELm8EvEENSW_ILm1ELm1EvEEjPNS0_13SharedPointerINS0_14IServiceObjectEEE = 0x0000000000204e00 + __sdk_start;
_ZN2nn2os6detail27MultiWaitHolderOfTimerEvent15AddToObjectListEv = 0x000000000032bbe0 + __sdk_start;
_ZN2nn5audio6server24AudioRenderSystemManagerC2Ev = 0x000000000009df70 + __sdk_start;
_ZN2nn2sf4hipc6client24Hipc2ClientCoreProcessorILNS1_6detail11MessageTypeE6ENS0_4cmif6detail14CoreMethodInfoINSt3__15tupleIJNS7_18OutRawArgumentInfoILm8ELm8ELl0EEENS7_18BufferArgumentInfoILi0ELi25ELm72EEENSD_ILi1ELi25ELm72EEEEEELm0ELm8ELb0EEESG_E7ProcessEPNS2_26Hipc2ClientProxyBaseObjectENS6_6client24OutRawClientArgumentTypeILm8ELm8EEENSL_24BufferClientArgumentTypeESO_j = 0x0000000000343cf0 + __sdk_start;
_ZN2nn3hid6detail17GetNpadDeviceTypeEPNS_4util10BitFlagSetILi32ENS0_6system10DeviceTypeEEERKj = 0x00000000002362d0 + __sdk_start;
_ZNSt3__111__libcpp_dbC1Ev = 0x000000000044e528 + __sdk_start;
_ZN2nn3mii15PrivateDatabase10DeleteFileEv = 0x00000000002f3790 + __sdk_start;
_ZN2nn3hid15VibrationTargetC1Ev = 0x000000000024dd40 + __sdk_start;
_ZTIN2nn2sf4cmif6client6detail9CmifProxyINS_3hid26IActiveVibrationDeviceListENS0_4hipc6client18Hipc2ProxyKindBaseILNS7_6detail11MessageTypeE6EEENS0_25StatelessAllocationPolicyINS0_22ExpHeapStaticAllocatorILm16384ENS5_6detail9HidServerEEEEENS3_19ProcessModifierImplINS2_21DefaultProxyFilterTagEEEvEE = 0x0000000000bd7990 + __sdk_start;
_ZNKSt3__17codecvtIDsc11__mbstate_tE13do_max_lengthEv = 0x0000000000487fe0 + __sdk_start;
_ZNKSt3__18time_getIwNS_19istreambuf_iteratorIwNS_11char_traitsIwEEEEE6do_getES4_S4_RNS_8ios_baseERjP2tmcc = 0x000000000046ebb8 + __sdk_start;
_ZN2nn5audio19RegisterBufferEventEPNS0_19FinalOutputRecorderEPNS_2os11SystemEventE = 0x000000000009a170 + __sdk_start;
_ZN2nn2ec24ShowShopAddOnContentListERKNS_7account10UserHandleE = 0x0000000000189180 + __sdk_start;
_ZN2nn4nifm6detail21ServiceProviderClient29GetSystemServiceSharedPointerEPNS_2sf13SharedPointerINS1_15IGeneralServiceEEE = 0x0000000000313fc0 + __sdk_start;
_ZN2nn2sf4cmif6client6detail13CmifProxyImplINS_4npns9INpnsUserENS0_4hipc6client18Hipc2ProxyKindBaseILNS7_6detail11MessageTypeE6EEENS0_30MemoryResourceAllocationPolicyES6_NS3_19ProcessModifierImplINS2_21DefaultProxyFilterTagEEEE17GetCmifBaseObjectEv = 0x000000000031c890 + __sdk_start;
_ZNSt3__112ctype_bynameIwEC1EPKcm = 0x0000000000485f80 + __sdk_start;
_ZNSt3__122__libcpp_thread_get_idEPKNS_10shared_ptrINS_21__horizon_thread_dataEEE = 0x000000000049e9c8 + __sdk_start;
_ZN2nn6applet14RestartProgramENS0_13StorageHandleE = 0x000000000007e230 + __sdk_start;
_ZN2nn4nifm6detail13RequestClient24RegisterSocketDescriptorEi = 0x0000000000313730 + __sdk_start;
_ZTVN2nn2sf6detail38ObjectImplFactoryWithStatefulAllocatorINS0_4cmif6client6detail9CmifProxyINS_5visrv2sf22IManagerDisplayServiceENS0_4hipc6client18Hipc2ProxyKindBaseILNSA_6detail11MessageTypeE6EEENS0_30MemoryResourceAllocationPolicyENS5_19ProcessModifierImplINS4_21DefaultProxyFilterTagEEEvEESG_E6ObjectE = 0x0000000000be58a8 + __sdk_start;
_ZN2nn2sf4cmif6client6detail13CmifProxyImplINS_3hid10IHidServerENS0_4hipc6client18Hipc2ProxyKindBaseILNS7_6detail11MessageTypeE6EEENS0_25StatelessAllocationPolicyINS0_22ExpHeapStaticAllocatorILm16384ENS5_6detail9HidServerEEEEES6_NS3_19ProcessModifierImplINS2_21DefaultProxyFilterTagEEEE12GetProxyInfoEv = 0x00000000002546b0 + __sdk_start;
_ZN2nn3ngc15ProfanityFilterC1EPvm = 0x00000000003023f0 + __sdk_start;
_ZN2nn7account6detail25CheckInternetAvailabilityEv = 0x000000000003ae50 + __sdk_start;
_ZN2nn2sf4cmif6client34CmifDomainProxyClientCoreProcessorINS0_4hipc6client38Hipc2ClientSessionManagedProxyKindBaseINS5_18Hipc2ProxyKindBaseILNS4_6detail11MessageTypeE6EEEEENS1_6detail14CoreMethodInfoINSt3__15tupleIJNSC_18OutRawArgumentInfoILm4ELm4ELl0EEENSG_ILm4ELm4ELl4EEENSG_ILm4ELm4ELl8EEENSC_18BufferArgumentInfoILi0ELi6ELm0EEENSC_17InRawArgumentInfoILm4ELm4ELl0EEEEEELm4ELm12ELb0EEESO_E7ProcessEPNS2_23CmifDomainClientMessageISB_E15ProxyBaseObjectENS2_24OutRawClientArgumentTypeILm4ELm4EEESW_SW_NS2_24BufferClientArgumentTypeENS2_23InRawClientArgumentTypeILm4ELm4EvEEj = 0x0000000000316030 + __sdk_start;
_ZN7android13GraphicBuffer11unlockAsyncEPi = 0x000000000002f0e0 + __sdk_start;
_ZNSt3__115recursive_mutex6unlockEv = 0x00000000004925e8 + __sdk_start;
imaxdiv = 0x00000000004f60a8 + __sdk_start;
_ZNK2nn2sf4hipc6detail25HipcMessageBufferAccessor12GetProcessIdEv = 0x0000000000356da0 + __sdk_start;
_ZN2nn3ssl6detail18ISslServiceFactory10InitializeEj = 0x000000000037bc20 + __sdk_start;
_ZTIN2nn4nifm6detail15INetworkProfileE = 0x0000000000bde3c0 + __sdk_start;
_ZN2nn2sf4hipc6client24Hipc2ClientCoreProcessorILNS1_6detail11MessageTypeE6ENS0_4cmif6detail14CoreMethodInfoINSt3__15tupleIJNS7_17InRawArgumentInfoILm8ELm8ELl16EEENSB_ILm4ELm4ELl0EEENSB_ILm4ELm4ELl4EEENSB_ILm4ELm4ELl8EEENSB_ILm4ELm4ELl12EEEEEELm24ELm0ELb0EEESH_E7ProcessEPNS2_26Hipc2ClientProxyBaseObjectENS6_6client23InRawClientArgumentTypeILm8ELm8EvEENSN_ILm4ELm4EvEESP_SP_SP_j = 0x00000000003a6060 + __sdk_start;
_ZN2nn3web21ShowSystemDataPageArg26SetBootFooterButtonVisibleENS0_21OfflineFooterButtonIdEb = 0x00000000003b40a0 + __sdk_start;
nvdcutilDsiPacketLongWrite = 0x00000000003ba130 + __sdk_start;
nnosCreateSystemEvent = 0x00000000003292c0 + __sdk_start;
_ZNK2nn3mii8Database6ExportEPvm = 0x00000000002f3290 + __sdk_start;
_ZN2nn5srepo6detail15ReportGenerator11AddKeyValueEPmPKclPhmm = 0x0000000000338260 + __sdk_start;
_ZN2nn2sf4cmif6client6detail13CmifProxyImplINS_8settings21ISystemSettingsServerENS0_4hipc6client18Hipc2ProxyKindBaseILNS7_6detail11MessageTypeE6EEENS0_30MemoryResourceAllocationPolicyES6_NS3_19ProcessModifierImplINS2_21DefaultProxyFilterTagEEEE27_nn_sf_sync_SetLanguageCodeENS5_12LanguageCodeE = 0x0000000000341650 + __sdk_start;
_ZNSt3__19__num_getIwE17__stage2_int_prepERNS_8ios_baseEPwRw = 0x00000000004675b0 + __sdk_start;
_ZN2nn3ngc15ProfanityFilterC2Ev = 0x0000000000302270 + __sdk_start;
_ZTIN2nn2sf4cmif6client6detail13CmifProxyImplINS_3mii6detail16IDatabaseServiceENS2_19CmifDomainProxyKindINS0_4hipc6client38Hipc2ClientSessionManagedProxyKindBaseINSA_18Hipc2ProxyKindBaseILNS9_6detail11MessageTypeE6EEEEEEENS0_30MemoryResourceAllocationPolicyES7_NS3_19ProcessModifierImplINS2_21DefaultProxyFilterTagEEEEE = 0x0000000000bdc010 + __sdk_start;
_ZN2nn2os6detail13ThreadManager11ExitProcessEv = 0x0000000000328af0 + __sdk_start;
_ZN2nn2sf4cmif6client6detail36GetClientProcessorImplWithObjectBaseINS2_19CmifDomainProxyKindINS0_4hipc6client38Hipc2ClientSessionManagedProxyKindBaseINS7_18Hipc2ProxyKindBaseILNS6_6detail11MessageTypeE6EEEEEEENS3_19ProcessModifierImplINS2_21DefaultProxyFilterTagEEEE14ObjectAssignerINS0_30MemoryResourceAllocationPolicyENS_14MemoryResourceEE14AllocateObjectINS_2am7service15ISelfControllerEEEvi = 0x0000000000057f60 + __sdk_start;
_ZN2nn2sf6detail38ObjectImplFactoryWithStatefulAllocatorINS0_4cmif6client6detail9CmifProxyINS_2am7service11IMovieMakerENS4_19CmifDomainProxyKindINS0_4hipc6client38Hipc2ClientSessionManagedProxyKindBaseINSC_18Hipc2ProxyKindBaseILNSB_6detail11MessageTypeE6EEEEEEENS0_30MemoryResourceAllocationPolicyENS5_19ProcessModifierImplINS4_21DefaultProxyFilterTagEEEvEESK_E6Object7ReleaseEv = 0x0000000000064180 + __sdk_start;
_ZN2nn5audio12SplitterInfo13SetSampleRateEi = 0x00000000000887c0 + __sdk_start;
_ZN2nn8settings6system20SetAutoUpdateEnabledEb = 0x00000000003473b0 + __sdk_start;
_ZN2nn2sf4hipc6client24Hipc2ClientCoreProcessorILNS1_6detail11MessageTypeE6ENS0_4cmif6detail14CoreMethodInfoINSt3__15tupleIJNS7_18OutRawArgumentInfoILm16ELm4ELl0EEENS7_17InRawArgumentInfoILm8ELm8ELl0EEEEEELm8ELm16ELb0EEESF_E7ProcessEPNS2_26Hipc2ClientProxyBaseObjectENS6_6client24OutRawClientArgumentTypeILm16ELm4EEENSK_23InRawClientArgumentTypeILm8ELm8EvEEj = 0x00000000003a6820 + __sdk_start;
_ZN2nn2sf4cmif6client6detail13CmifProxyImplINS_7account6detail13IAsyncContextENS2_19CmifDomainProxyKindINS0_4hipc6client38Hipc2ClientSessionManagedProxyKindBaseINSA_18Hipc2ProxyKindBaseILNS9_6detail11MessageTypeE6EEEEEEENS0_25StatelessAllocationPolicyINS0_22ExpHeapStaticAllocatorILm2048ENS6_12ObjectHolder24ObjectHolderAllocatorTagEEEEENS5_4baas34IAsyncContextForLoginForOnlinePlayENS3_19ProcessModifierImplINS2_21DefaultProxyFilterTagEEEE18_nn_sf_sync_CancelEv = 0x0000000000040dc0 + __sdk_start;
_ZN2nn2vi8FinalizeEv = 0x00000000003a44b0 + __sdk_start;
_ZTIN2nn2sf4cmif6client6detail13CmifProxyImplINS_7account4baas24IManagerForSystemServiceENS2_19CmifDomainProxyKindINS0_4hipc6client38Hipc2ClientSessionManagedProxyKindBaseINSA_18Hipc2ProxyKindBaseILNS9_6detail11MessageTypeE6EEEEEEENS0_25StatelessAllocationPolicyINS0_22ExpHeapStaticAllocatorILm2048ENS5_6detail12ObjectHolder24ObjectHolderAllocatorTagEEEEENS6_14IAdministratorENS3_19ProcessModifierImplINS2_21DefaultProxyFilterTagEEEEE = 0x0000000000bbeda0 + __sdk_start;
_ZN2nn2sf4cmif6client6detail13CmifProxyImplINS_2am7service16IStorageAccessorENS2_19CmifDomainProxyKindINS0_4hipc6client38Hipc2ClientSessionManagedProxyKindBaseINSA_18Hipc2ProxyKindBaseILNS9_6detail11MessageTypeE6EEEEEEENS0_30MemoryResourceAllocationPolicyES7_NS3_19ProcessModifierImplINS2_21DefaultProxyFilterTagEEEE16_nn_sf_sync_ReadElRKNS0_9OutBufferE = 0x00000000000595f0 + __sdk_start;
nncodecLibopus_silk_gains_ID = 0x00000000000ff0f0 + __sdk_start;
_ZN2nn4htcs6detail6socketERi = 0x00000000002689e0 + __sdk_start;
_ZN2nn8settings6detail42GetConsoleSixAxisSensorAngularVelocityBiasEPNS0_6system39ConsoleSixAxisSensorAngularVelocityBiasE = 0x000000000034ee20 + __sdk_start;
_ZN2nn4util23GetGzipDecompressedSizeEPKvm = 0x0000000000399a60 + __sdk_start;
_ZN2nn4diag24RegisterSdkAbortObserverEPNS0_22SdkAbortObserverHolderE = 0x000000000017ffa0 + __sdk_start;
_ZTIN2nn2sf4cmif6client6detail13CmifProxyImplINS_2am7service7IWindowENS0_4hipc6client18Hipc2ProxyKindBaseILNS8_6detail11MessageTypeE6EEENS0_30MemoryResourceAllocationPolicyES7_NS3_19ProcessModifierImplINS2_21DefaultProxyFilterTagEEEEE = 0x0000000000bc82a0 + __sdk_start;
_ZN2nn5audio29GetVoiceBiquadFilterParameterEPKNS0_9VoiceTypeEi = 0x0000000000089c80 + __sdk_start;
_ZN2nn2am23GetAppletResourceUserIdEv = 0x0000000000055520 + __sdk_start;
_ZTIN2nn2sf6detail38ObjectImplFactoryWithStatefulAllocatorINS0_13InterfaceInfoINS_5audio6detail12IAudioDeviceEE4_tABINS7_5_tO2NINS4_6server24AudioRendererManagerImpl15AudioDeviceImplEE4typeES6_E4typeENS0_24StatefulAllocationPolicyINS0_16ExpHeapAllocatorEEEE6ObjectE = 0x0000000000bcceb0 + __sdk_start;
_ZN2nn3nfp10FlushDebugERKNS0_12DeviceHandleE = 0x00000000002ffcf0 + __sdk_start;
pthread_attr_getstack = 0x00000000004bceb8 + __sdk_start;
_ZN2nn5image6detail4jpeg13jpeg_idct_8x4EPNS2_22jpeg_decompress_structEPNS2_19jpeg_component_infoEPsPPhi = 0x000000000028de40 + __sdk_start;
_ZN2nn2sf4cmif6client6detail13CmifProxyImplINS_3hid16IHidSystemServerENS0_4hipc6client18Hipc2ProxyKindBaseILNS7_6detail11MessageTypeE6EEENS0_25StatelessAllocationPolicyINS0_22ExpHeapStaticAllocatorILm16384ENS5_6detail15HidSystemServerEEEEES6_NS3_19ProcessModifierImplINS2_21DefaultProxyFilterTagEEEE35_nn_sf_sync_GetRegisteredDevicesOldENS0_3OutIlvEERKNS0_8OutArrayINS5_6system19RegisteredDeviceOldEEE = 0x0000000000258d10 + __sdk_start;
setjmp = 0x00000000004b9104 + __sdk_start;
_ZN2nn5audio6server38CommandProcessingTimeEstimatorVersion18EstimateERKNS0_10MixCommandE = 0x00000000000a4b40 + __sdk_start;
_ZN2nn3hid14VibrationMixerC2Ev = 0x000000000024c990 + __sdk_start;
_ZNSt3__120__shared_ptr_pointerIPNS_21__horizon_thread_dataEPFvS2_ENS_9allocatorIS1_EEE16__on_zero_sharedEv = 0x0000000000452298 + __sdk_start;
_ZNK2nn3ngc15ProfanityFilter18CheckArgumentsWordEPKjPPKDsm = 0x00000000003029e0 + __sdk_start;
_ZN2nn7friends6detail17ShimLibraryGlobalC1Ev = 0x00000000001ddbb0 + __sdk_start;
_ZN2nn2sf4hipc6client24Hipc2ClientCoreProcessorILNS1_6detail11MessageTypeE6ENS0_4cmif6detail14CoreMethodInfoINSt3__15tupleIJNS7_18OutRawArgumentInfoILm4ELm4ELl68EEENS7_21OutObjectArgumentInfoILi0ELi0EEENSB_ILm66ELm2ELl0EEEEEELm0ELm72ELb0EEESG_E21ProcessWithOutObjectsEPNS2_26Hipc2ClientProxyBaseObjectENS6_6client24OutRawClientArgumentTypeILm4ELm4EEENSL_27OutObjectClientArgumentTypeENSM_ILm66ELm2EEEjPNS0_13SharedPointerINS0_14IServiceObjectEEE = 0x0000000000263980 + __sdk_start;
_ZNK2nn3mii13ImageDatabase6IsFullEv = 0x00000000002f3c80 + __sdk_start;
_ZTIN2nn2sf4cmif6client6detail9CmifProxyINS_4bcat6detail3ipc12IBcatServiceENS2_19CmifDomainProxyKindINS0_4hipc6client38Hipc2ClientSessionManagedProxyKindBaseINSB_18Hipc2ProxyKindBaseILNSA_6detail11MessageTypeE6EEEEEEENS0_30MemoryResourceAllocationPolicyENS3_19ProcessModifierImplINS2_21DefaultProxyFilterTagEEEvEE = 0x0000000000bcdde0 + __sdk_start;
_ZN2nn4nifm6detail13RequestClient19UpdateInternalStateEv = 0x0000000000312fe0 + __sdk_start;
_ZN2nn2sf4cmif6client6detail13CmifProxyImplINS_3ssl2sf11ISslContextENS2_19CmifDomainProxyKindINS0_4hipc6client38Hipc2ClientSessionManagedProxyKindBaseINSA_18Hipc2ProxyKindBaseILNS9_6detail11MessageTypeE6EEEEEEENS0_24StatefulAllocationPolicyINS0_16ExpHeapAllocatorEEES7_NS3_19ProcessModifierImplINS2_21DefaultProxyFilterTagEEEE17GetCmifBaseObjectEv = 0x000000000037c820 + __sdk_start;
_ZN2nn2sf6detail38ObjectImplFactoryWithStatefulAllocatorINS0_4cmif6client6detail9CmifProxyINS_7timesrv6detail7service12ISystemClockENS4_19CmifDomainProxyKindINS0_4hipc6client38Hipc2ClientSessionManagedProxyKindBaseINSD_18Hipc2ProxyKindBaseILNSC_6detail11MessageTypeE6EEEEEEENS0_30MemoryResourceAllocationPolicyENS5_19ProcessModifierImplINS4_21DefaultProxyFilterTagEEEvEESL_E6Object7ReleaseEv = 0x0000000000388530 + __sdk_start;
FSS_set_outline = 0x00000000001a3d70 + __sdk_start;
_ZN2nn2sf4cmif6client6detail13CmifProxyImplINS_7account4baas12IManagerBaseENS2_19CmifDomainProxyKindINS0_4hipc6client38Hipc2ClientSessionManagedProxyKindBaseINSA_18Hipc2ProxyKindBaseILNS9_6detail11MessageTypeE6EEEEEEENS0_25StatelessAllocationPolicyINS0_22ExpHeapStaticAllocatorILm2048ENS5_6detail12ObjectHolder24ObjectHolderAllocatorTagEEEEENS6_22IManagerForApplicationENS3_19ProcessModifierImplINS2_21DefaultProxyFilterTagEEEE24_nn_sf_sync_GetAccountIdENS0_3OutINS5_23NetworkServiceAccountIdEvEE = 0x000000000003fce0 + __sdk_start;
_ZN2nn2sf13InterfaceInfoINS_5audio6detail14IAudioRendererEE4_tABINS5_5_tO2NINS2_6server24AudioRendererManagerImpl17AudioRendererImplEE4typeES4_E4type28_nn_sf_sync_QuerySystemEventENS0_3OutINS0_12NativeHandleEvEE = 0x000000000009d990 + __sdk_start;
_ZNK7android7String84findEPKcm = 0x0000000000035eb0 + __sdk_start;
_ZN2nn2sf4hipc6client24Hipc2ClientCoreProcessorILNS1_6detail11MessageTypeE6ENS0_4cmif6detail14CoreMethodInfoINSt3__15tupleIJNS7_18BufferArgumentInfoILi0ELi34ELm0EEENS7_18OutRawArgumentInfoILm4ELm4ELl0EEENSD_ILm8ELm8ELl8EEEEEELm0ELm16ELb0EEESG_E7ProcessEPNS2_26Hipc2ClientProxyBaseObjectENS6_6client24BufferClientArgumentTypeENSL_24OutRawClientArgumentTypeILm4ELm4EEENSN_ILm8ELm8EEEj = 0x0000000000096530 + __sdk_start;
_ZN2nn4nifm6detail13RequestClient10SetInstantEb = 0x0000000000313640 + __sdk_start;
_ZN2nn2sf4cmif6client6detail13CmifProxyImplINS_2am7service18IAppletProxyCommonENS2_19CmifDomainProxyKindINS0_4hipc6client38Hipc2ClientSessionManagedProxyKindBaseINSA_18Hipc2ProxyKindBaseILNS9_6detail11MessageTypeE6EEEEEEENS0_30MemoryResourceAllocationPolicyENS6_19ILibraryAppletProxyENS3_19ProcessModifierImplINS2_21DefaultProxyFilterTagEEEE31_nn_sf_sync_GetWindowControllerENS0_3OutINS0_13SharedPointerINS6_17IWindowControllerEEEvEE = 0x000000000005ec00 + __sdk_start;
_ZNK2nn5audio8SinkInfo7GetTypeEv = 0x00000000000878f0 + __sdk_start;
_ZN2nn2sf6detail38ObjectImplFactoryWithStatefulAllocatorINS0_4cmif6client6detail9CmifProxyINS_8settings22IFactorySettingsServerENS0_4hipc6client18Hipc2ProxyKindBaseILNS9_6detail11MessageTypeE6EEENS0_30MemoryResourceAllocationPolicyENS5_19ProcessModifierImplINS4_21DefaultProxyFilterTagEEEvEESF_E6Object7ReleaseEv = 0x0000000000351520 + __sdk_start;
_ZN2nn2sf4cmif6client6detail13CmifProxyImplINS_6capsrv2sf24IAlbumApplicationServiceENS0_4hipc6client18Hipc2ProxyKindBaseILNS8_6detail11MessageTypeE6EEENS0_30MemoryResourceAllocationPolicyES7_NS3_19ProcessModifierImplINS2_21DefaultProxyFilterTagEEEE40_nn_sf_sync_GetAlbumFileList4AaeUidAruidENS0_3OutImvEERKNS0_8OutArrayINS5_21ApplicationAlbumEntryEEEhRKNS_7account3UidENS5_17AlbumFileDateTimeESU_NS_6applet20AppletResourceUserIdE = 0x00000000000d7090 + __sdk_start;
_ZN2nn2sf4cmif6client6detail13CmifProxyImplINS_5visrv2sf22IManagerDisplayServiceENS0_4hipc6client18Hipc2ProxyKindBaseILNS8_6detail11MessageTypeE6EEENS0_30MemoryResourceAllocationPolicyES7_NS3_19ProcessModifierImplINS2_21DefaultProxyFilterTagEEEE31_nn_sf_sync_CreateIndirectLayerENS0_3OutImvEE = 0x00000000003a7260 + __sdk_start;
_ZN2nn3web21ShowSystemDataPageArgC2ERKNS_3ncm12SystemDataIdEPKc = 0x00000000003b3f20 + __sdk_start;
_ZN2nn6socket11GAIStrErrorENS0_7AiErrnoE = 0x0000000000360a60 + __sdk_start;
_ZN2nn3ngc6detail14ContentsReader15UnmountContentsEv = 0x0000000000306a50 + __sdk_start;
_ZN2nn5codec10CPns_ApplyEPKNS0_8CPnsDataEPKNS0_8CIcsInfoEPiPKsS9_PKNS0_16SamplingRateInfoEii = 0x0000000000128ac0 + __sdk_start;
_ZN2nn2ec34AsyncGetConsumableRightDataRequest3EndEv = 0x0000000000182d50 + __sdk_start;
_ZN2nn2sf4cmif6client34CmifDomainProxyClientCoreProcessorINS0_4hipc6client38Hipc2ClientSessionManagedProxyKindBaseINS5_18Hipc2ProxyKindBaseILNS4_6detail11MessageTypeE6EEEEENS1_6detail14CoreMethodInfoINSt3__15tupleIJNSC_18OutRawArgumentInfoILm8ELm8ELl0EEENSG_ILm8ELm8ELl8EEENSC_17InRawArgumentInfoILm2ELm2ELl0EEEEEELm2ELm16ELb0EEESL_E7ProcessEPNS2_23CmifDomainClientMessageISB_E15ProxyBaseObjectENS2_24OutRawClientArgumentTypeILm8ELm8EEEST_NS2_23InRawClientArgumentTypeILm2ELm2EvEEj = 0x0000000000200690 + __sdk_start;
_ZN2nn2sf4cmif6client6detail13CmifProxyImplINS_2am7service15IAppletAccessorENS0_4hipc6client18Hipc2ProxyKindBaseILNS8_6detail11MessageTypeE6EEENS0_30MemoryResourceAllocationPolicyENS6_20IApplicationAccessorENS3_19ProcessModifierImplINS2_21DefaultProxyFilterTagEEEE38_nn_sf_sync_GetAppletStateChangedEventENS0_3OutINS0_12NativeHandleEvEE = 0x000000000006d850 + __sdk_start;
_ZN2nn3err6detail28IsApplicationErrorCodeStringEPKc = 0x0000000000196c10 + __sdk_start;
NvOsMutexLock = 0x00000000003c35f0 + __sdk_start;
_ZThn8_N7android12BnMemoryHeapD1Ev = 0x0000000000003880 + __sdk_start;
swap_ttc_header = 0x00000000001d4180 + __sdk_start;
_ZN2nn3hid6detail23UnsetXpadAutoPilotStateENS0_11BasicXpadIdE = 0x000000000022ba30 + __sdk_start;
_ZN22nerd_gillette_internal5otete7jaimev123DecodeFullSilhouetteROKERNS_30ContiguousStorageContainerBaseINS_15NumericalVectorIsLm2EEELb1EEERNS0_14InputBitStreamERKNS1_23FullSilhouetteCodecDataE = 0x00000000002ae010 + __sdk_start;
_ZN2nn4nifm6detail13RequestClient14SetSustainableEb = 0x0000000000313670 + __sdk_start;
_ZNSt3__122__libcpp_thread_isnullEPKNS_10shared_ptrINS_21__horizon_thread_dataEEE = 0x000000000049e8e8 + __sdk_start;
_ZN2nn4util14AsyncExecutionD2Ev = 0x00000000003a2ea0 + __sdk_start;
_ZN2nn2sf4cmif6client6detail13CmifProxyImplINS_7account4baas12IManagerBaseENS2_19CmifDomainProxyKindINS0_4hipc6client38Hipc2ClientSessionManagedProxyKindBaseINSA_18Hipc2ProxyKindBaseILNS9_6detail11MessageTypeE6EEEEEEENS0_25StatelessAllocationPolicyINS0_22ExpHeapStaticAllocatorILm2048ENS5_6detail12ObjectHolder24ObjectHolderAllocatorTagEEEEENS6_14IAdministratorENS3_19ProcessModifierImplINS2_21DefaultProxyFilterTagEEEE17GetCmifBaseObjectEv = 0x0000000000046e90 + __sdk_start;
_ZN2nn2sf4cmif6client6detail13CmifProxyImplINS_7account4baas12IManagerBaseENS2_19CmifDomainProxyKindINS0_4hipc6client38Hipc2ClientSessionManagedProxyKindBaseINSA_18Hipc2ProxyKindBaseILNS9_6detail11MessageTypeE6EEEEEEENS0_25StatelessAllocationPolicyINS0_22ExpHeapStaticAllocatorILm2048ENS5_6detail12ObjectHolder24ObjectHolderAllocatorTagEEEEENS6_14IAdministratorENS3_19ProcessModifierImplINS2_21DefaultProxyFilterTagEEEE35_nn_sf_sync_EnsureIdTokenCacheAsyncENS0_3OutINS0_13SharedPointerINSK_13IAsyncContextEEEvEE = 0x0000000000045f60 + __sdk_start;
nncodecLibopus_silk_LTP_analysis_filter_FIX = 0x0000000000103010 + __sdk_start;
_ZN2nn3mii16CharInfoAccessorC2ERKNS0_8CharInfoE = 0x00000000002e15b0 + __sdk_start;
_ZN2nn2sf4cmif6client6detail13CmifProxyImplINS_3hid15IHidDebugServerENS0_4hipc6client18Hipc2ProxyKindBaseILNS7_6detail11MessageTypeE6EEENS0_25StatelessAllocationPolicyINS0_22ExpHeapStaticAllocatorILm16384ENS5_6detail14HidDebugServerEEEEES6_NS3_19ProcessModifierImplINS2_21DefaultProxyFilterTagEEEE33_nn_sf_sync_DeactivateSleepButtonEv = 0x0000000000251b70 + __sdk_start;
_ZN2nn4edid8OpenEdidEPNS0_4EdidEPKvm = 0x0000000000192df0 + __sdk_start;
_ZN2nn2sf4cmif6client34CmifDomainProxyClientCoreProcessorINS0_4hipc6client38Hipc2ClientSessionManagedProxyKindBaseINS5_18Hipc2ProxyKindBaseILNS4_6detail11MessageTypeE6EEEEENS1_6detail14CoreMethodInfoINSt3__15tupleIJNSC_18BufferArgumentInfoILi0ELi6ELm0EEENSC_17InRawArgumentInfoILm8ELm8ELl8EEENSI_ILm4ELm4ELl0EEEEEELm16ELm0ELb0EEESL_E7ProcessEPNS2_23CmifDomainClientMessageISB_E15ProxyBaseObjectENS2_24BufferClientArgumentTypeENS2_23InRawClientArgumentTypeILm8ELm8EvEENST_ILm4ELm4EvEEj = 0x0000000000207390 + __sdk_start;
_ZNK2nn5audio3dsp20CommandListProcessor19GetTargetSampleRateEv = 0x00000000000b05f0 + __sdk_start;
nncodecLibopus_opus_repacketizer_get_nb_frames = 0x0000000000115ac0 + __sdk_start;
_ZN2nn4nifm7Request9GetHandleEv = 0x000000000031a8f0 + __sdk_start;
_ZTVNSt3__18__c_nodeE = 0x0000000000beb200 + __sdk_start;
_ZNK2nn7account49ExternalNetworkServiceAccountIntroducingProcedure15GetProfileImageEPmPvm = 0x000000000004d5b0 + __sdk_start;
_ZTIN2nn2sf4cmif6client6detail13CmifProxyImplINS_4nifm6detail12IScanRequestENS2_19CmifDomainProxyKindINS0_4hipc6client38Hipc2ClientSessionManagedProxyKindBaseINSA_18Hipc2ProxyKindBaseILNS9_6detail11MessageTypeE6EEEEEEENS0_30MemoryResourceAllocationPolicyES7_NS3_19ProcessModifierImplINS2_21DefaultProxyFilterTagEEEEE = 0x0000000000bde0d0 + __sdk_start;
_ZN2nn3web10WebSessionC1Ev = 0x00000000003b5a50 + __sdk_start;
__pthread_join = 0x00000000004bd0b8 + __sdk_start;
_ZN2nn2sf4cmif6client34CmifDomainProxyClientCoreProcessorINS0_4hipc6client38Hipc2ClientSessionManagedProxyKindBaseINS5_18Hipc2ProxyKindBaseILNS4_6detail11MessageTypeE6EEEEENS1_6detail14CoreMethodInfoINSt3__15tupleIJNSC_21OutObjectArgumentInfoILi0ELi0EEENSC_17InRawArgumentInfoILm1ELm1ELl0EEENSI_ILm64ELm8ELl8EEENSI_ILm4ELm4ELl4EEEEEELm72ELm0ELb0EEESM_E21ProcessWithOutObjectsEPNS2_23CmifDomainClientMessageISB_E15ProxyBaseObjectENS2_27OutObjectClientArgumentTypeENS2_23InRawClientArgumentTypeILm1ELm1EvEENSU_ILm64ELm8EvEENSU_ILm4ELm4EvEEjPNS0_13SharedPointerINS0_14IServiceObjectEEE = 0x0000000000201e50 + __sdk_start;
_ZTIN2nn2sf4cmif6client6detail9CmifProxyINS_2am7service30IAllSystemAppletProxiesServiceENS0_4hipc6client18Hipc2ProxyKindBaseILNS8_6detail11MessageTypeE6EEENS0_30MemoryResourceAllocationPolicyENS3_19ProcessModifierImplINS2_21DefaultProxyFilterTagEEEvEE = 0x0000000000bc7550 + __sdk_start;
_ZN2nn2sf4cmif6client6detail13CmifProxyImplINS_4pctl6detail3ipc23IParentalControlServiceENS2_19CmifDomainProxyKindINS0_4hipc6client38Hipc2ClientSessionManagedProxyKindBaseINSB_18Hipc2ProxyKindBaseILNSA_6detail11MessageTypeE6EEEEEEENS0_30MemoryResourceAllocationPolicyES8_NS3_19ProcessModifierImplINS2_21DefaultProxyFilterTagEEEE22_nn_sf_sync_GetPinCodeENS0_3OutIivEERKNS0_8OutArrayIcEE = 0x0000000000333fd0 + __sdk_start;
_ZTIN10__cxxabiv117__class_type_infoE = 0x0000000000bf16e0 + __sdk_start;
_ZN2nn2sf4cmif6client6detail13CmifProxyImplINS_2am7service15IAppletAccessorENS2_19CmifDomainProxyKindINS0_4hipc6client38Hipc2ClientSessionManagedProxyKindBaseINSA_18Hipc2ProxyKindBaseILNS9_6detail11MessageTypeE6EEEEEEENS0_30MemoryResourceAllocationPolicyENS6_20IApplicationAccessorENS3_19ProcessModifierImplINS2_21DefaultProxyFilterTagEEEE17GetCmifBaseObjectEv = 0x000000000005bb30 + __sdk_start;
_ZN2nn3hid6system38GetSupportedNpadStyleSetOfCallerAppletEv = 0x0000000000247b10 + __sdk_start;
_ZN2nn6crypto6detail7Md5ImplD2Ev = 0x00000000001777d0 + __sdk_start;
_ZN2nn4nifm7Request15GetRequestStateEv = 0x000000000031a8c0 + __sdk_start;
_ZN2nn4util10StringPool12SetSignatureEv = 0x0000000000398e10 + __sdk_start;
nnosLockMutex = 0x0000000000329230 + __sdk_start;
_ZN2nn2sf4cmif6client6detail13CmifProxyImplINS_7account4baas24IManagerForSystemServiceENS2_19CmifDomainProxyKindINS0_4hipc6client38Hipc2ClientSessionManagedProxyKindBaseINSA_18Hipc2ProxyKindBaseILNS9_6detail11MessageTypeE6EEEEEEENS0_25StatelessAllocationPolicyINS0_22ExpHeapStaticAllocatorILm2048ENS5_6detail12ObjectHolder24ObjectHolderAllocatorTagEEEEES7_NS3_19ProcessModifierImplINS2_21DefaultProxyFilterTagEEEE50_nn_sf_sync_InvalidateServiceEntryRequirementCacheENS_13ApplicationIdE = 0x0000000000042480 + __sdk_start;
_ZTVN2nn2sf6detail38ObjectImplFactoryWithStatefulAllocatorINS0_4cmif6client6detail9CmifProxyINS_2am7service15IDebugFunctionsENS4_19CmifDomainProxyKindINS0_4hipc6client38Hipc2ClientSessionManagedProxyKindBaseINSC_18Hipc2ProxyKindBaseILNSB_6detail11MessageTypeE6EEEEEEENS0_30MemoryResourceAllocationPolicyENS5_19ProcessModifierImplINS4_21DefaultProxyFilterTagEEEvEESK_E6ObjectE = 0x0000000000bc4e98 + __sdk_start;
_ZN2nn2os21WaitConditionVariableEPNS0_21ConditionVariableTypeEPNS0_9MutexTypeE = 0x0000000000324480 + __sdk_start;
_ZN2nn5audio6server16CommandGenerator25GenerateDataSourceCommandERNS1_9VoiceInfoERNS0_10VoiceStateEi = 0x00000000000a2360 + __sdk_start;
_ZN2nn3mii6detail12IsValidCrc16EPKvit = 0x00000000002e8680 + __sdk_start;
_ZN2nn2sf4cmif6client6detail13CmifProxyImplINS_5visrv2sf22IManagerDisplayServiceENS0_4hipc6client18Hipc2ProxyKindBaseILNS8_6detail11MessageTypeE6EEENS0_30MemoryResourceAllocationPolicyES7_NS3_19ProcessModifierImplINS2_21DefaultProxyFilterTagEEEE51_nn_sf_sync_GetSharedLowLevelLayerSynchronizedEventENS0_3OutINS0_12NativeHandleEvEEm = 0x00000000003a7920 + __sdk_start;
_ZNSt3__121__libcpp_execute_onceEPNS_9once_flagEPFvvE = 0x000000000049ebd0 + __sdk_start;
_ZN2nn5image6detail4jpeg15jpeg_idct_16x16EPNS2_22jpeg_decompress_structEPNS2_19jpeg_component_infoEPsPPhi = 0x000000000028c940 + __sdk_start;
_ZN2nn2sf4cmif6client6detail13CmifProxyImplINS_7account7profile8IProfileENS2_19CmifDomainProxyKindINS0_4hipc6client38Hipc2ClientSessionManagedProxyKindBaseINSA_18Hipc2ProxyKindBaseILNS9_6detail11MessageTypeE6EEEEEEENS0_25StatelessAllocationPolicyINS0_22ExpHeapStaticAllocatorILm2048ENS5_6detail12ObjectHolder24ObjectHolderAllocatorTagEEEEES7_NS3_19ProcessModifierImplINS2_21DefaultProxyFilterTagEEEE19_nn_sf_sync_GetBaseENS0_3OutINS6_11ProfileBaseEvEE = 0x000000000003ef80 + __sdk_start;
_ZN2nn2sf4cmif6client6detail13CmifProxyImplINS_7friends6detail3ipc14IFriendServiceENS2_19CmifDomainProxyKindINS0_4hipc6client38Hipc2ClientSessionManagedProxyKindBaseINSB_18Hipc2ProxyKindBaseILNSA_6detail11MessageTypeE6EEEEEEENS0_30MemoryResourceAllocationPolicyES8_NS3_19ProcessModifierImplINS2_21DefaultProxyFilterTagEEEE27_nn_sf_sync_IssueFriendCodeERKNS_7account3UidE = 0x00000000001dfbe0 + __sdk_start;
_ZN2nn2sf4hipc6client24Hipc2ClientCoreProcessorILNS1_6detail11MessageTypeE6ENS0_4cmif6detail14CoreMethodInfoINSt3__15tupleIJNS7_18OutRawArgumentInfoILm4ELm4ELl0EEENSB_ILm8ELm8ELl8EEENS7_17InRawArgumentInfoILm4ELm4ELl0EEEEEELm4ELm16ELb0EEESG_E7ProcessEPNS2_26Hipc2ClientProxyBaseObjectENS6_6client24OutRawClientArgumentTypeILm4ELm4EEENSM_ILm8ELm8EEENSL_23InRawClientArgumentTypeILm4ELm4EvEEj = 0x0000000000264af0 + __sdk_start;
_ZN2nn3mii6detail11CoreDataRaw11SetEyebrowXEi = 0x00000000002e6370 + __sdk_start;
NvRmSurfaceFromJson = 0x00000000003ccdf0 + __sdk_start;
_ZTISt8bad_cast = 0x0000000000bf1660 + __sdk_start;
_ZNSt3__17promiseIvE10get_futureEv = 0x0000000000451070 + __sdk_start;
_ZN2nn5codec30CLatmDemux_ReadStreamMuxConfigEPNS0_13FDK_BITSTREAMEPNS0_10CLatmDemuxEPNS0_13CSTpCallBacksEPNS0_21CSAudioSpecificConfigEPi = 0x000000000014b3c0 + __sdk_start;
_ZN2nn3nfp6client25GetUserInterfaceForCommonEv = 0x00000000002fea90 + __sdk_start;
_ZN2nn8settings6system23GetNxControllerSettingsEPNS1_20NxControllerSettingsEi = 0x0000000000353f00 + __sdk_start;
_ZN2nn2fs30SaveDataTransferSizeCalculator16GetFreeSpaceSizeEPlNS0_15SaveDataSpaceIdE = 0x000000000021d420 + __sdk_start;
_ZN2nn5audio6server12BehaviorInfoC2Ev = 0x00000000000a7a40 + __sdk_start;
_ZNSt3__115basic_streambufIwNS_11char_traitsIwEEE6sbumpcEv = 0x0000000000453540 + __sdk_start;
_ZN2nn2os6detail15StopTimerUnsafeEPNS0_14TimerEventTypeE = 0x000000000032b180 + __sdk_start;
_ZTIN2nn5audio6detail14IAudioRendererE = 0x0000000000bcc2f0 + __sdk_start;
_ZN2nn4bcat10InitializeEv = 0x00000000000bf0b0 + __sdk_start;
_ZNK2nn7friends18FriendDetailedInfo12GetAccountIdEv = 0x00000000001db470 + __sdk_start;
_ZN2nn2sf4cmif6client6detail13CmifProxyImplINS_3hid16IHidSystemServerENS0_4hipc6client18Hipc2ProxyKindBaseILNS7_6detail11MessageTypeE6EEENS0_30MemoryResourceAllocationPolicyES6_NS3_19ProcessModifierImplINS2_21DefaultProxyFilterTagEEEE38_nn_sf_sync_EnableUsbFullKeyControllerEb = 0x000000000025ef30 + __sdk_start;
_ZNKSt3__18numpunctIcE12do_falsenameEv = 0x000000000048ae08 + __sdk_start;
_ZN2nn4bcat6detail17ShimLibraryGlobal10InitializeEv = 0x00000000000c2000 + __sdk_start;
_ZN2nn2sf4cmif6client6detail13CmifProxyImplINS_7friends6detail3ipc14IFriendServiceENS2_19CmifDomainProxyKindINS0_4hipc6client38Hipc2ClientSessionManagedProxyKindBaseINSB_18Hipc2ProxyKindBaseILNSA_6detail11MessageTypeE6EEEEEEENS0_30MemoryResourceAllocationPolicyES8_NS3_19ProcessModifierImplINS2_21DefaultProxyFilterTagEEEE29_nn_sf_sync_LoadFriendSettingENS0_3OutINS6_17FriendSettingImplEvEERKNS_7account3UidENSR_23NetworkServiceAccountIdE = 0x00000000001df360 + __sdk_start;
_ZN2nn2sf4cmif6client6detail13CmifProxyImplINS_3hid16IHidSystemServerENS0_4hipc6client18Hipc2ProxyKindBaseILNS7_6detail11MessageTypeE6EEENS0_25StatelessAllocationPolicyINS0_22ExpHeapStaticAllocatorILm16384ENS5_6detail15HidSystemServerEEEEES6_NS3_19ProcessModifierImplINS2_21DefaultProxyFilterTagEEEE33_nn_sf_sync_SendConnectionTriggerENS_9bluetooth7AddressE = 0x0000000000258d60 + __sdk_start;
nvnDevtoolsBootstrap = 0x0000000000442510 + __sdk_start;
_ZN2nn3mii13AppletManager16SetResultSuccessEv = 0x00000000002f7e20 + __sdk_start;
_ZN2nn4util16BinaryFileHeader13SetFirstBlockEPNS0_17BinaryBlockHeaderE = 0x00000000003989b0 + __sdk_start;
nnosTryWaitTimerEvent = 0x00000000003291f0 + __sdk_start;
_ZN2nn5audio19ResampleOutputFrameEPNS0_16DownSamplerStateEiiPKiPsii = 0x00000000000b1d50 + __sdk_start;
_ZN2nn7friends16DaemonSuspensionD1Ev = 0x00000000001db1f0 + __sdk_start;
NvRmChannelClose = 0x00000000003d4230 + __sdk_start;
NvRmGpuRegOpsSessionReadFB = 0x00000000003ef1f0 + __sdk_start;
__nnmusl_pthread_setaffinity_np = 0x0000000000508a70 + __sdk_start;
_ZTIN2nn2sf4cmif6client6detail13CmifProxyImplINS_7account7profile8IProfileENS2_19CmifDomainProxyKindINS0_4hipc6client38Hipc2ClientSessionManagedProxyKindBaseINSA_18Hipc2ProxyKindBaseILNS9_6detail11MessageTypeE6EEEEEEENS0_25StatelessAllocationPolicyINS0_22ExpHeapStaticAllocatorILm2048ENS5_6detail12ObjectHolder24ObjectHolderAllocatorTagEEEEES7_NS3_19ProcessModifierImplINS2_21DefaultProxyFilterTagEEEEE = 0x0000000000bbd870 + __sdk_start;
_ZN2nn2sf4hipc6client24Hipc2ClientCoreProcessorILNS1_6detail11MessageTypeE6ENS0_4cmif6detail14CoreMethodInfoINSt3__15tupleIJNS7_18OutRawArgumentInfoILm8ELm4ELl0EEENS7_17InRawArgumentInfoILm4ELm4ELl0EEEEEELm4ELm8ELb0EEESF_E7ProcessEPNS2_26Hipc2ClientProxyBaseObjectENS6_6client24OutRawClientArgumentTypeILm8ELm4EEENSK_23InRawClientArgumentTypeILm4ELm4EvEEj = 0x00000000003438b0 + __sdk_start;
_ZN2nn8settings6detail16GetPctlReadyFlagEPb = 0x000000000034e260 + __sdk_start;
_ZN2nn3hid28InitializeSevenSixAxisSensorEPvm = 0x0000000000243970 + __sdk_start;
_ZNSt3__113basic_istreamIcNS_11char_traitsIcEEErsEPNS_15basic_streambufIcS2_EE = 0x0000000000453fc0 + __sdk_start;
__nnmusl_force_divf = 0x00000000004c5600 + __sdk_start;
_ZN2nn2fs6detail33EnableFileSystemAccessorAccessLogEPKc = 0x00000000001e6710 + __sdk_start;
_ZN2nn6applet15ReadFromStorageENS0_13StorageHandleElPvm = 0x000000000007d9c0 + __sdk_start;
_ZN2nn2sf4cmif6client6detail36GetClientProcessorImplWithObjectBaseINS2_19CmifDomainProxyKindINS0_4hipc6client38Hipc2ClientSessionManagedProxyKindBaseINS7_18Hipc2ProxyKindBaseILNS6_6detail11MessageTypeE6EEEEEEENS3_19ProcessModifierImplINS2_21DefaultProxyFilterTagEEEE14ObjectAssignerINS0_25StatelessAllocationPolicyINS0_22ExpHeapStaticAllocatorILm2048ENS_7account6detail12ObjectHolder24ObjectHolderAllocatorTagEEEEENS0_6detail23StatelessDummyAllocatorEE14AllocateObjectINSN_9INotifierEEEvi = 0x0000000000041fc0 + __sdk_start;
_ZN2nn2sf4cmif6client6detail13CmifProxyImplINS_4pctl6detail3ipc23IParentalControlServiceENS2_19CmifDomainProxyKindINS0_4hipc6client38Hipc2ClientSessionManagedProxyKindBaseINSB_18Hipc2ProxyKindBaseILNSA_6detail11MessageTypeE6EEEEEEENS0_30MemoryResourceAllocationPolicyES8_NS3_19ProcessModifierImplINS2_21DefaultProxyFilterTagEEEE48_nn_sf_sync_ResetConfirmedStereoVisionPermissionEv = 0x0000000000333e70 + __sdk_start;
_ZN2nn3hid12GetNpadStateEPNS0_17NpadHandheldStateERKj = 0x0000000000247c20 + __sdk_start;
_ZNK7android6Region16getFlattenedSizeEv = 0x0000000000032b00 + __sdk_start;
_ZN2nn5audio6server22PerformanceManagerImplINS1_33PerformanceManagerImplVersion1TagENS0_6common30PerformanceFrameHeaderVersion1ENS4_24PerformanceEntryVersion1ENS4_25PerformanceDetailVersion1ENS0_20PerformanceSysDetailEE12UpdateHeaderEPS5_PKS5_imii = 0x00000000000a6ea0 + __sdk_start;
_ZN2nn2ec27InitializeAllPurchasedEventERKNS_13ApplicationIdE = 0x0000000000188c30 + __sdk_start;
_ZN2nn2sf4cmif6client6detail13CmifProxyImplINS_5visrv2sf22IManagerDisplayServiceENS0_4hipc6client18Hipc2ProxyKindBaseILNS8_6detail11MessageTypeE6EEENS0_30MemoryResourceAllocationPolicyES7_NS3_19ProcessModifierImplINS2_21DefaultProxyFilterTagEEEE32_nn_sf_sync_RemoveFromLayerStackEmj = 0x00000000003a74f0 + __sdk_start;
_ZN7android13GraphicBuffer14lockAsyncYCbCrEjRKNS_4RectEP13android_ycbcri = 0x000000000002f080 + __sdk_start;
_ZNKSt3__115__codecvt_utf16IwLb0EE11do_encodingEv = 0x0000000000489268 + __sdk_start;
_ZTIN2nn2fs3fsa18IMultiCommitTargetE = 0x0000000000bd5d38 + __sdk_start;
_ZN2nn9bluetooth13GetChannelMapEPNS0_10ChannelMapE = 0x00000000000cb340 + __sdk_start;
_ZN2nn5audio16FlushWaveBuffersEPNS0_9VoiceTypeE = 0x0000000000089f00 + __sdk_start;
_ZN2nn2vi20RemoveFromLayerStackEPNS0_5LayerENS0_10LayerStackE = 0x00000000003ae6f0 + __sdk_start;
_ZN22nerd_gillette_internal5otete7jaimev127DecodeFullSilhouetteImplROKINS_15NumericalVectorIfLm2EEEPFS4_NS3_IsLm2EEEEEEbRNS_30ContiguousStorageContainerBaseIT_Lb1EEERNS0_14InputBitStreamERKNS1_23FullSilhouetteCodecDataET0_ = 0x00000000002aecd0 + __sdk_start;
_ZN2nn5audio32SetFinalOutputRecorderBufferInfoEPNS0_25FinalOutputRecorderBufferEPvm = 0x0000000000099e90 + __sdk_start;
_ZThn32_N2nn2sf4cmif6client6detail13CmifProxyImplINS_7timesrv6detail7service14IStaticServiceENS2_19CmifDomainProxyKindINS0_4hipc6client38Hipc2ClientSessionManagedProxyKindBaseINSB_18Hipc2ProxyKindBaseILNSA_6detail11MessageTypeE6EEEEEEENS0_30MemoryResourceAllocationPolicyES8_NS3_19ProcessModifierImplINS2_21DefaultProxyFilterTagEEEE17GetCmifBaseObjectEv = 0x0000000000388460 + __sdk_start;
_ZN2nn2sf4cmif6client6detail13CmifProxyImplINS_8settings21ISystemSettingsServerENS0_4hipc6client18Hipc2ProxyKindBaseILNS7_6detail11MessageTypeE6EEENS0_30MemoryResourceAllocationPolicyES6_NS3_19ProcessModifierImplINS2_21DefaultProxyFilterTagEEEE28_nn_sf_sync_GetPtmBatteryLotENS0_3OutINS5_10BatteryLotEvEE = 0x00000000003422d0 + __sdk_start;
_ZN2nn6hidbus6detail14SendAndReceiveEPmPvmRKNS0_9BusHandleEPKvm = 0x000000000025c0a0 + __sdk_start;
_ZN7android6Region8validateERKS0_PKcb = 0x00000000000320a0 + __sdk_start;
_ZNSt3__120__threads_data_queue23reclaim_exhausted_nodesEv = 0x0000000000451e78 + __sdk_start;
_ZN2nn5image6detail4jpeg15jinit_upsamplerEPNS2_22jpeg_decompress_structE = 0x0000000000288310 + __sdk_start;
_ZN2nn2fs36CorruptSaveDataThumbnailFileForDebugEmNS0_6UserIdE = 0x000000000021a2b0 + __sdk_start;
_ZN2nn6socket6detail16GetHostEntByNameEPKcPKNS0_14ResolverOptionEm = 0x0000000000378370 + __sdk_start;
_ZN2nn2sf4cmif6client6detail13CmifProxyImplINS_4nifm6detail8IRequestENS2_19CmifDomainProxyKindINS0_4hipc6client38Hipc2ClientSessionManagedProxyKindBaseINSA_18Hipc2ProxyKindBaseILNS9_6detail11MessageTypeE6EEEEEEENS0_30MemoryResourceAllocationPolicyES7_NS3_19ProcessModifierImplINS2_21DefaultProxyFilterTagEEEE26_nn_sf_sync_GetRequirementENS0_3OutINS5_11RequirementEvEE = 0x0000000000315930 + __sdk_start;
_ZN2nn5image6detail4jpeg21jpeg_alloc_huff_tableEPNS2_18jpeg_common_structE = 0x0000000000277f50 + __sdk_start;
_ZN2nn2os6detail30InterProcessEventImplByHorizon6SignalEj = 0x000000000032ebc0 + __sdk_start;
_ZN2nn3nsd6detail3ipc19GetNasRequestFqdnExEPNS_6ResultEPNS0_4FqdnE = 0x000000000031f780 + __sdk_start;
_ZN7android7SurfaceC1ERKNS_2spINS_22IGraphicBufferProducerEEEb = 0x0000000000026410 + __sdk_start;
_ZN2nn4htcs6detail25virtual_socket_collectionD1Ev = 0x000000000026a460 + __sdk_start;
_ZN2nn9bluetooth18DeleteLeScanFilterEh = 0x00000000000cb740 + __sdk_start;
_ZN2nn2sf4cmif6client6detail13CmifProxyImplINS_5visrv2sf26IApplicationDisplayServiceENS0_4hipc6client18Hipc2ProxyKindBaseILNS8_6detail11MessageTypeE6EEENS0_30MemoryResourceAllocationPolicyES7_NS3_19ProcessModifierImplINS2_21DefaultProxyFilterTagEEEE12GetProxyInfoEv = 0x00000000003a5080 + __sdk_start;
_ZN2nn2ec28AsyncRecoverRightDataRequest7EndImplEPiPNS0_30ConsumableServiceItemRightDataEi = 0x0000000000182bd0 + __sdk_start;
_ZN2nn2sf4cmif6client6detail13CmifProxyImplINS_3ssl2sf11ISslContextENS2_19CmifDomainProxyKindINS0_4hipc6client38Hipc2ClientSessionManagedProxyKindBaseINSA_18Hipc2ProxyKindBaseILNS9_6detail11MessageTypeE6EEEEEEENS0_24StatefulAllocationPolicyINS0_16ExpHeapAllocatorEEES7_NS3_19ProcessModifierImplINS2_21DefaultProxyFilterTagEEEE28_nn_sf_sync_CreateConnectionENS0_3OutINS0_13SharedPointerINS6_14ISslConnectionEEEvEE = 0x000000000037c610 + __sdk_start;
_ZN2nn3ldn19GetDisconnectReasonEv = 0x00000000002b6ae0 + __sdk_start;
_ZNKSt3__117moneypunct_bynameIcLb0EE13do_pos_formatEv = 0x00000000004745b8 + __sdk_start;
_ZNK2nn5audio6server14EffectInfoBase11StoreStatusEPNS0_10EffectInfo9OutStatusEb = 0x00000000000a80e0 + __sdk_start;
_ZN2nn3btm4user15BleUnPairDeviceEjRKNS_9bluetooth27BleAdvertisePacketParameterE = 0x00000000000d2100 + __sdk_start;
nncodecLibopus_ec_dec_init = 0x00000000000e8640 + __sdk_start;
_ZNK2nn3mii6detail16Ver3StoreDataRaw13GetMouthColorEv = 0x00000000002ed910 + __sdk_start;
_ZTVN7android23BnSurfaceComposerClientE = 0x0000000000bbbdd8 + __sdk_start;
_ZTIN2nn5audio6server8SinkInfoINS0_6common15DeviceParameterENS1_15DeviceSinkStateEEE = 0x0000000000bcd910 + __sdk_start;
_ZN2nn4bcat24RequestSyncDeliveryCacheEPNS0_21DeliveryCacheProgressE = 0x00000000000bf450 + __sdk_start;
_ZN2nn5codec8DecodePsEPNS0_6PS_DECEh = 0x0000000000161350 + __sdk_start;
_ZN2nn6socket6detail13GetHostByAddrEPKvjiPKNS0_14ResolverOptionEm = 0x00000000003783a0 + __sdk_start;
_ZN2nn6socket8resolver10serializer13DNSSerializer18FromBufferInternalINS0_8AddrInfoEEElRT_PKhm = 0x0000000000361cf0 + __sdk_start;
_ZN2nn2ec19ShopServiceAccessor13AsyncResponse7TryWaitEv = 0x000000000018a9a0 + __sdk_start;
_ZNSt3__14stoiERKNS_12basic_stringIwNS_11char_traitsIwEENS_9allocatorIwEEEEPmi = 0x00000000004989b0 + __sdk_start;
_ZN2nn2sf4cmif6client6detail13CmifProxyImplINS_2am7service15ISelfControllerENS2_19CmifDomainProxyKindINS0_4hipc6client38Hipc2ClientSessionManagedProxyKindBaseINSA_18Hipc2ProxyKindBaseILNS9_6detail11MessageTypeE6EEEEEEENS0_30MemoryResourceAllocationPolicyES7_NS3_19ProcessModifierImplINS2_21DefaultProxyFilterTagEEEE36_nn_sf_sync_SetAlbumImageOrientationEi = 0x00000000000582f0 + __sdk_start;
_ZN2nn2sf4hipc6client24Hipc2ClientCoreProcessorILNS1_6detail11MessageTypeE6ENS0_4cmif6detail14CoreMethodInfoINSt3__15tupleIJNS7_17InRawArgumentInfoILm8ELm8ELl0EEENS7_18OutRawArgumentInfoILm1ELm1ELl0EEEEEELm8ELm1ELb0EEESF_E7ProcessEPNS2_26Hipc2ClientProxyBaseObjectENS6_6client23InRawClientArgumentTypeILm8ELm8EvEENSK_24OutRawClientArgumentTypeILm1ELm1EEEj = 0x0000000000091470 + __sdk_start;
_ZN2nn3err14SystemErrorArgC1ENS0_9ErrorCodeEPKcS4_RKNS_8settings12LanguageCodeE = 0x0000000000196560 + __sdk_start;
_ZN2nn4nifm38SetWirelessCommunicationEnabledForTestEb = 0x0000000000318b30 + __sdk_start;
_ZTVNSt3__113basic_istreamIwNS_11char_traitsIwEEEE = 0x0000000000beb588 + __sdk_start;
_ZN2nn2sf4cmif6client34CmifDomainProxyClientCoreProcessorINS0_4hipc6client38Hipc2ClientSessionManagedProxyKindBaseINS5_18Hipc2ProxyKindBaseILNS4_6detail11MessageTypeE6EEEEENS1_6detail14CoreMethodInfoINSt3__15tupleIJNSC_17InRawArgumentInfoILm8ELm8ELl0EEENSG_ILm8ELm8ELl8EEEEEELm16ELm0ELb0EEESJ_E7ProcessEPNS2_23CmifDomainClientMessageISB_E15ProxyBaseObjectENS2_23InRawClientArgumentTypeILm8ELm8EvEESR_j = 0x0000000000209f80 + __sdk_start;
nnosChangeThreadPriority = 0x0000000000329020 + __sdk_start;
_ZN2nn2sf4cmif6client6detail13CmifProxyImplINS_7friends6detail3ipc14IFriendServiceENS2_19CmifDomainProxyKindINS0_4hipc6client38Hipc2ClientSessionManagedProxyKindBaseINSB_18Hipc2ProxyKindBaseILNSA_6detail11MessageTypeE6EEEEEEENS0_30MemoryResourceAllocationPolicyES8_NS3_19ProcessModifierImplINS2_21DefaultProxyFilterTagEEEE40_nn_sf_sync_DeclareOpenOnlinePlaySessionERKNS_7account3UidE = 0x00000000001df160 + __sdk_start;
_ZN2nn4nifm6detail17ScanRequestClientC1ENS_2os14EventClearModeE = 0x00000000003139a0 + __sdk_start;
_ZN2nn2am23GetApplicationFunctionsEv = 0x0000000000051c10 + __sdk_start;
_ZN2nn7friends19GetNewlyFriendCountEPiRKNS_7account3UidE = 0x00000000001d7910 + __sdk_start;
_ZN2nn2sf4cmif6client6detail13CmifProxyImplINS_5visrv2sf26IApplicationDisplayServiceENS0_4hipc6client18Hipc2ProxyKindBaseILNS8_6detail11MessageTypeE6EEENS0_30MemoryResourceAllocationPolicyES7_NS3_19ProcessModifierImplINS2_21DefaultProxyFilterTagEEEE31_nn_sf_sync_SetLayerScalingModeEmj = 0x00000000003a54b0 + __sdk_start;
_ZN7android7IBinderD0Ev = 0x0000000000000260 + __sdk_start;
_ZNSt3__111__libcpp_db4swapEPvS1_ = 0x000000000044fbc0 + __sdk_start;
__stdio_seek = 0x00000000004bcbe8 + __sdk_start;
_ZTIN2nn2sf4cmif6client6detail13CmifProxyImplINS_2am7service15IStorageChannelENS0_4hipc6client18Hipc2ProxyKindBaseILNS8_6detail11MessageTypeE6EEENS0_30MemoryResourceAllocationPolicyES7_NS3_19ProcessModifierImplINS2_21DefaultProxyFilterTagEEEEE = 0x0000000000bc7d30 + __sdk_start;
FDKmemcpy = 0x0000000000171160 + __sdk_start;
_ZN2nn2sf4cmif6client6detail13CmifProxyImplINS_8settings21ISystemSettingsServerENS0_4hipc6client18Hipc2ProxyKindBaseILNS7_6detail11MessageTypeE6EEENS0_30MemoryResourceAllocationPolicyES6_NS3_19ProcessModifierImplINS2_21DefaultProxyFilterTagEEEE35_nn_sf_sync_SetNotificationSettingsERKNS5_6system20NotificationSettingsE = 0x0000000000341ae0 + __sdk_start;
_ZN2nn8settings6detail30GetHeadphoneVolumeWarningCountEPi = 0x000000000034af40 + __sdk_start;
_ZN2nn3ntc4shim30EnsureNetworkClockAvailabilityEv = 0x000000000038afa0 + __sdk_start;
_ZThn16_N2nn2sf4cmif6client6detail13CmifProxyImplINS_8irsensor21IIrSensorSystemServerENS0_4hipc6client18Hipc2ProxyKindBaseILNS7_6detail11MessageTypeE6EEENS0_25StatelessAllocationPolicyINS0_22ExpHeapStaticAllocatorILm16384ENS5_6detail20IrSensorSystemServerEEEEES6_NS3_19ProcessModifierImplINS2_21DefaultProxyFilterTagEEEE17GetCmifBaseObjectEv = 0x00000000002a0020 + __sdk_start;
NvDdkVicFreeSession = 0x00000000003ec610 + __sdk_start;
_ZN2nn2os11StartThreadEPNS0_10ThreadTypeE = 0x00000000003279e0 + __sdk_start;
_ZN2nn2sf4cmif6client6detail13CmifProxyImplINS_2am7service19ILibraryAppletProxyENS0_4hipc6client18Hipc2ProxyKindBaseILNS8_6detail11MessageTypeE6EEENS0_30MemoryResourceAllocationPolicyES7_NS3_19ProcessModifierImplINS2_21DefaultProxyFilterTagEEEE36_nn_sf_sync_GetAppletCommonFunctionsENS0_3OutINS0_13SharedPointerINS6_22IAppletCommonFunctionsEEEvEE = 0x0000000000071730 + __sdk_start;
_ZN2nn2lm14LogServiceNameE = 0x0000000000bdb118 + __sdk_start;
_ZN2nn2sf4hipc6client24Hipc2ClientCoreProcessorILNS1_6detail11MessageTypeE6ENS0_4cmif6detail14CoreMethodInfoINSt3__15tupleIJNS7_18OutRawArgumentInfoILm8ELm8ELl0EEENS7_18BufferArgumentInfoILi0ELi10ELm0EEENS7_17InRawArgumentInfoILm4ELm4ELl0EEEEEELm4ELm8ELb0EEESH_E7ProcessEPNS2_26Hipc2ClientProxyBaseObjectENS6_6client24OutRawClientArgumentTypeILm8ELm8EEENSM_24BufferClientArgumentTypeENSM_23InRawClientArgumentTypeILm4ELm4EvEEj = 0x0000000000259bc0 + __sdk_start;
_ZN2nn8settings6detail24GetInitialLaunchSettingsEPNS0_6system21InitialLaunchSettingsE = 0x000000000034f8a0 + __sdk_start;
_ZN2nn3web38ShowApplicationLegalInformationPageArg26SetBootFooterButtonVisibleENS0_21OfflineFooterButtonIdEb = 0x00000000003b32e0 + __sdk_start;
_ZNKSt3__112ctype_bynameIwE5do_isEPKwS3_Pt = 0x0000000000486380 + __sdk_start;
_ZN2nn2os15AcquireReadLockEPNS0_20ReaderWriterLockTypeE = 0x0000000000326ca0 + __sdk_start;
_ZN2nn5audio17GetAuxInputOutputEPKNS0_7AuxTypeEPaS4_Pii = 0x0000000000081860 + __sdk_start;
_ZNKSt3__110moneypunctIcLb0EE14do_curr_symbolEv = 0x0000000000473ea0 + __sdk_start;
_ZN2nn4diag6detail17SymbolTableParser8MoveNextEv = 0x0000000000181380 + __sdk_start;
_ZN2nn7friends11UnblockUserEPNS0_12AsyncContextERKNS_7account3UidENS3_23NetworkServiceAccountIdE = 0x00000000001d93c0 + __sdk_start;
_ZNK2nn3mii6detail16Ver3StoreDataRaw11GetPadding4Ev = 0x00000000002f2a00 + __sdk_start;
_ZNK2nn3mem19NumberLineAllocator9GetSizeOfEi = 0x00000000002e0c50 + __sdk_start;
_ZN2nn4pctl11PairingInfo14GetAccountInfoEPNS0_18PairingAccountInfoE = 0x0000000000332770 + __sdk_start;
_ZN2nn2sf13SharedPointerINS_3ldn6detail30IUserLocalCommunicationServiceEED2Ev = 0x00000000002b59b0 + __sdk_start;
glslc_Alloc = 0x00000000003c4340 + __sdk_start;
_ZN2nn6crypto6detail8p256_mulEPNS1_10p256_pointEPKjiPKS2_PKNS1_10p256_curveE = 0x0000000000177550 + __sdk_start;
_ZN2nn9bluetooth15AddLeDescriptorEhNS0_17GattAttributeUuidES1_t = 0x00000000000cbb70 + __sdk_start;
_ZN2nn2sf4cmif6client6detail13CmifProxyImplINS_4nifm6detail15IGeneralServiceENS2_19CmifDomainProxyKindINS0_4hipc6client38Hipc2ClientSessionManagedProxyKindBaseINSA_18Hipc2ProxyKindBaseILNS9_6detail11MessageTypeE6EEEEEEENS0_30MemoryResourceAllocationPolicyES7_NS3_19ProcessModifierImplINS2_21DefaultProxyFilterTagEEEE37_nn_sf_sync_ConfirmSystemAvailabilityEv = 0x0000000000314ff0 + __sdk_start;
_ZN2nn3hid6system13GetNpadStatesEPNS1_18NpadSystemExtStateEiRKj = 0x00000000002477e0 + __sdk_start;
_ZN2nn2sf4cmif6client6detail13CmifProxyImplINS_3hid16IHidSystemServerENS0_4hipc6client18Hipc2ProxyKindBaseILNS7_6detail11MessageTypeE6EEENS0_25StatelessAllocationPolicyINS0_22ExpHeapStaticAllocatorILm16384ENS5_6detail15HidSystemServerEEEEES6_NS3_19ProcessModifierImplINS2_21DefaultProxyFilterTagEEEE39_nn_sf_sync_SetSupportedNpadStyleSetAllENS_6applet20AppletResourceUserIdE = 0x0000000000258a10 + __sdk_start;
_ZN2nn2sf13SharedPointerINS_5fssrv2sf25IFileSystemProxyForLoaderEED2Ev = 0x00000000001f8570 + __sdk_start;
nncodecLibopus_silk_init_encoder = 0x00000000000ff1c0 + __sdk_start;
_ZN2nn2sf4hipc6client24Hipc2ClientCoreProcessorILNS1_6detail11MessageTypeE6ENS0_4cmif6detail14CoreMethodInfoINSt3__15tupleIJNS7_21OutObjectArgumentInfoILi0ELi0EEENS7_17InRawArgumentInfoILm1ELm1ELl0EEEEEELm1ELm0ELb0EEESF_E21ProcessWithOutObjectsEPNS2_26Hipc2ClientProxyBaseObjectENS6_6client27OutObjectClientArgumentTypeENSK_23InRawClientArgumentTypeILm1ELm1EvEEjPNS0_13SharedPointerINS0_14IServiceObjectEEE = 0x000000000018bb70 + __sdk_start;
_ZN2nn3hid6detail30UnregisterAppletResourceUserIdERKNS_6applet20AppletResourceUserIdE = 0x000000000022a890 + __sdk_start;
_ZN2nn2sf4cmif6client6detail13CmifProxyImplINS_2am7service15IDebugFunctionsENS0_4hipc6client18Hipc2ProxyKindBaseILNS8_6detail11MessageTypeE6EEENS0_30MemoryResourceAllocationPolicyES7_NS3_19ProcessModifierImplINS2_21DefaultProxyFilterTagEEEE17GetCmifBaseObjectEv = 0x000000000006d690 + __sdk_start;
_ZN2nn8settings6detail25SetBluetoothAfhEnableFlagEb = 0x000000000034b6c0 + __sdk_start;
get_abbreviated_name = 0x00000000001d4ad0 + __sdk_start;
_ZN2nn3hid6detail15PermitVibrationEb = 0x0000000000241d30 + __sdk_start;
_ZN2nn2sf4cmif6client6detail13CmifProxyImplINS_8irsensor15IIrSensorServerENS0_4hipc6client18Hipc2ProxyKindBaseILNS7_6detail11MessageTypeE6EEENS0_25StatelessAllocationPolicyINS0_22ExpHeapStaticAllocatorILm16384ENS5_6detail14IrSensorServerEEEEES6_NS3_19ProcessModifierImplINS2_21DefaultProxyFilterTagEEEE45_nn_sf_sync_ActivateIrsensorWithFunctionLevelENS_6applet20AppletResourceUserIdENS5_19PackedFunctionLevelE = 0x000000000029ef10 + __sdk_start;
_ZTIN2nn5fssrv2sf5IFileE = 0x0000000000bd4230 + __sdk_start;
_ZN2nn2sf4cmif6client6detail13CmifProxyImplINS_2am7service30IAllSystemAppletProxiesServiceENS2_19CmifDomainProxyKindINS0_4hipc6client38Hipc2ClientSessionManagedProxyKindBaseINSA_18Hipc2ProxyKindBaseILNS9_6detail11MessageTypeE6EEEEEEENS0_30MemoryResourceAllocationPolicyES7_NS3_19ProcessModifierImplINS2_21DefaultProxyFilterTagEEEE29_nn_sf_sync_GetDebugFunctionsENS0_3OutINS0_13SharedPointerINS6_15IDebugFunctionsEEEvEE = 0x0000000000056380 + __sdk_start;
_ZTIN2nn2sf6detail38ObjectImplFactoryWithStatefulAllocatorINS0_4cmif6client6detail9CmifProxyINS_2am7service11IMovieMakerENS0_4hipc6client18Hipc2ProxyKindBaseILNSA_6detail11MessageTypeE6EEENS0_30MemoryResourceAllocationPolicyENS5_19ProcessModifierImplINS4_21DefaultProxyFilterTagEEEvEESG_E6ObjectE = 0x0000000000bc9f80 + __sdk_start;
_ZN2nn2sf4cmif6client6detail13CmifProxyImplINS_5prepo6detail3ipc13IPrepoServiceENS2_19CmifDomainProxyKindINS0_4hipc6client38Hipc2ClientSessionManagedProxyKindBaseINSB_18Hipc2ProxyKindBaseILNSA_6detail11MessageTypeE6EEEEEEENS0_30MemoryResourceAllocationPolicyES8_NS3_19ProcessModifierImplINS2_21DefaultProxyFilterTagEEEE30_nn_sf_sync_GetLastUploadErrorEv = 0x000000000033bb50 + __sdk_start;
any_used_fntset_or_unshared_lfnt_table_ptrs = 0x00000000001d2270 + __sdk_start;
NvOsSharedMemAlloc = 0x00000000003c4840 + __sdk_start;
_ZNKSt3__112ctype_bynameIcE10do_toupperEc = 0x0000000000485e90 + __sdk_start;
_ZThn16_NSt3__19strstreamD1Ev = 0x000000000049d400 + __sdk_start;
_ZN2nn2sf4cmif6client6detail13CmifProxyImplINS_8settings21ISystemSettingsServerENS0_4hipc6client18Hipc2ProxyKindBaseILNS7_6detail11MessageTypeE6EEENS0_30MemoryResourceAllocationPolicyES6_NS3_19ProcessModifierImplINS2_21DefaultProxyFilterTagEEEE42_nn_sf_sync_GetExternalSteadyClockSourceIdENS0_3OutINS_4util4UuidEvEE = 0x0000000000341840 + __sdk_start;
_ZTIN2nn2sf4cmif6client6detail13CmifProxyImplINS_2am7service18IAppletProxyCommonENS0_4hipc6client18Hipc2ProxyKindBaseILNS8_6detail11MessageTypeE6EEENS0_30MemoryResourceAllocationPolicyENS6_18ISystemAppletProxyENS3_19ProcessModifierImplINS2_21DefaultProxyFilterTagEEEEE = 0x0000000000bc7660 + __sdk_start;
_ZN2nn8settings6system44SetHeadphoneVolumeWarningDisplayedEventCountEi = 0x0000000000345fc0 + __sdk_start;
_ZNK2nn3hid6detail8RingLifoINS0_16TouchScreenStateILm16EEELi16ENS1_29TouchScreenStateAtomicStorageEE8ReadImplINS3_ILm8EEEEEiPT_i = 0x000000000023eed0 + __sdk_start;
NvRmSurfaceLoadJson = 0x00000000003cd350 + __sdk_start;
_ZN2nn2sf4cmif6client34CmifDomainProxyClientCoreProcessorINS0_4hipc6client38Hipc2ClientSessionManagedProxyKindBaseINS5_18Hipc2ProxyKindBaseILNS4_6detail11MessageTypeE6EEEEENS1_6detail14CoreMethodInfoINSt3__15tupleIJNSC_18OutRawArgumentInfoILm4ELm4ELl0EEENSC_18BufferArgumentInfoILi0ELi9ELm0EEENSI_ILi1ELi6ELm0EEEEEELm0ELm4ELb0EEESL_E7ProcessEPNS2_23CmifDomainClientMessageISB_E15ProxyBaseObjectENS2_24OutRawClientArgumentTypeILm4ELm4EEENS2_24BufferClientArgumentTypeESU_j = 0x00000000001e3cd0 + __sdk_start;
_ZTIN2nn2lm7ILoggerE = 0x0000000000bdb660 + __sdk_start;
_ZN2nn3mii6detail16Ver3StoreDataRaw14SetEyebrowTypeEi = 0x00000000002f0ca0 + __sdk_start;
_ZN2nn5image6detail4jpeg14jpeg_idct_6x12EPNS2_22jpeg_decompress_structEPNS2_19jpeg_component_infoEPsPPhi = 0x000000000028f280 + __sdk_start;
_ZN2nn5audio38CreateAudioOutManagerForDebuggerByHipcEv = 0x0000000000092a60 + __sdk_start;
_ZN2nn2sf4cmif6client6detail13CmifProxyImplINS_2am7service18IAppletProxyCommonENS0_4hipc6client18Hipc2ProxyKindBaseILNS8_6detail11MessageTypeE6EEENS0_30MemoryResourceAllocationPolicyENS6_18ISystemAppletProxyENS3_19ProcessModifierImplINS2_21DefaultProxyFilterTagEEEE30_nn_sf_sync_GetAudioControllerENS0_3OutINS0_13SharedPointerINS6_16IAudioControllerEEEvEE = 0x0000000000067f80 + __sdk_start;
_ZN2nn5audio6common30DumpCommandStructSizeAndAlignsEv = 0x00000000000aeb90 + __sdk_start;
_ZN2nn2sf6detail38ObjectImplFactoryWithStatefulAllocatorINS0_4cmif6client6detail9CmifProxyINS_8settings15ISettingsServerENS0_4hipc6client18Hipc2ProxyKindBaseILNS9_6detail11MessageTypeE6EEENS0_30MemoryResourceAllocationPolicyENS5_19ProcessModifierImplINS4_21DefaultProxyFilterTagEEEvEESF_E6Object12AddReferenceEv = 0x00000000003532f0 + __sdk_start;
_ZN2nn3web14ShowWebPageArgC1Ev = 0x00000000003b4470 + __sdk_start;
_ZN2nn3kpr6detail34GetKeyCodeComposerCompositionCountERKNS1_22KeyCodeComposerStorageE = 0x00000000002b3e30 + __sdk_start;
_ZNSt3__115numpunct_bynameIcEC2ERKNS_12basic_stringIcNS_11char_traitsIcEENS_9allocatorIcEEEEm = 0x000000000048b098 + __sdk_start;
_ZN2nn2fs11RomPathTool10PathParserC2Ev = 0x00000000001e9d10 + __sdk_start;
fs__free = 0x00000000001a4410 + __sdk_start;
NvMemoryProfilerEndFree = 0x00000000003bb400 + __sdk_start;
_ZNSt3__16__sortIRNS_6__lessIffEEPfEEvT0_S5_T_ = 0x000000000044acd8 + __sdk_start;
iswalpha_l = 0x00000000004d6e70 + __sdk_start;
setlocale = 0x00000000004ba0c8 + __sdk_start;
_ZN2nn2sf4cmif6client6detail13CmifProxyImplINS_2am7service19IOverlayAppletProxyENS0_4hipc6client18Hipc2ProxyKindBaseILNS8_6detail11MessageTypeE6EEENS0_30MemoryResourceAllocationPolicyES7_NS3_19ProcessModifierImplINS2_21DefaultProxyFilterTagEEEE36_nn_sf_sync_GetAppletCommonFunctionsENS0_3OutINS0_13SharedPointerINS6_22IAppletCommonFunctionsEEEvEE = 0x00000000000738d0 + __sdk_start;
_ZN2nn2ec6detail28GetShopResultFromStorageImplERKNS_6applet13StorageHandleE = 0x000000000018e890 + __sdk_start;
NvOsConditionCreate = 0x00000000003c33b0 + __sdk_start;
nnmem_nlib_thread_exit = 0x00000000002d3390 + __sdk_start;
_ZN2nn3hid6detail14IsNfcActivatedEPbRj = 0x0000000000237840 + __sdk_start;
_ZThn8_N7android23BnGraphicBufferProducer17onGetNativeHandleEjRjRb = 0x000000000001e3a0 + __sdk_start;
_ZN2nn2sf4cmif6client6detail13CmifProxyImplINS_8settings15ISettingsServerENS0_4hipc6client18Hipc2ProxyKindBaseILNS7_6detail11MessageTypeE6EEENS0_30MemoryResourceAllocationPolicyES6_NS3_19ProcessModifierImplINS2_21DefaultProxyFilterTagEEEE25_nn_sf_sync_GetRegionCodeENS0_3OutIivEE = 0x0000000000353460 + __sdk_start;
_ZTIN2nn2sf4cmif6client6detail13CmifProxyImplINS_7timesrv6detail7service12ISteadyClockENS2_19CmifDomainProxyKindINS0_4hipc6client38Hipc2ClientSessionManagedProxyKindBaseINSB_18Hipc2ProxyKindBaseILNSA_6detail11MessageTypeE6EEEEEEENS0_30MemoryResourceAllocationPolicyES8_NS3_19ProcessModifierImplINS2_21DefaultProxyFilterTagEEEEE = 0x0000000000be4480 + __sdk_start;
_ZN2nn2sf4cmif6client6detail13CmifProxyImplINS_3hid16IHidSystemServerENS0_4hipc6client18Hipc2ProxyKindBaseILNS7_6detail11MessageTypeE6EEENS0_30MemoryResourceAllocationPolicyES6_NS3_19ProcessModifierImplINS2_21DefaultProxyFilterTagEEEE33_nn_sf_sync_SendConnectionTriggerENS_9bluetooth7AddressE = 0x000000000025ea90 + __sdk_start;
_ZN7android13GraphicBuffer14lockAsyncYCbCrEjP13android_ycbcri = 0x000000000002f030 + __sdk_start;
_ZNKSt13runtime_error4whatEv = 0x00000000004b5538 + __sdk_start;
_ZN2nn6socket8SendMMsgEiP7mmsghdrmi = 0x0000000000360810 + __sdk_start;
_ZN2nn2sf4cmif6client6detail13CmifProxyImplINS_3hid16IHidSystemServerENS0_4hipc6client18Hipc2ProxyKindBaseILNS7_6detail11MessageTypeE6EEENS0_25StatelessAllocationPolicyINS0_22ExpHeapStaticAllocatorILm16384ENS5_6detail15HidSystemServerEEEEES6_NS3_19ProcessModifierImplINS2_21DefaultProxyFilterTagEEEE36_nn_sf_sync_InitializeFirmwareUpdateEv = 0x00000000002592c0 + __sdk_start;
_ZN2nn2sf4cmif6client6detail13CmifProxyImplINS_3hid16IHidSystemServerENS0_4hipc6client18Hipc2ProxyKindBaseILNS7_6detail11MessageTypeE6EEENS0_30MemoryResourceAllocationPolicyES6_NS3_19ProcessModifierImplINS2_21DefaultProxyFilterTagEEEE40_nn_sf_sync_AcquireHomeButtonEventHandleENS0_3OutINS0_12NativeHandleEvEENS_6applet20AppletResourceUserIdE = 0x000000000025e370 + __sdk_start;
__nnmusl_TryAcquireSemaphore = 0x00000000005075f0 + __sdk_start;
_ZN2nn2sm17UnregisterServiceEPKcm = 0x000000000035f500 + __sdk_start;
_ZN2nn2sf4cmif6client6detail13CmifProxyImplINS_2am7service22IGlobalStateControllerENS0_4hipc6client18Hipc2ProxyKindBaseILNS8_6detail11MessageTypeE6EEENS0_30MemoryResourceAllocationPolicyES7_NS3_19ProcessModifierImplINS2_21DefaultProxyFilterTagEEEE33_nn_sf_sync_StartShutdownSequenceEv = 0x0000000000070670 + __sdk_start;
_ZTIN2nn2sf4cmif6client6detail13CmifProxyImplINS_2am7service25IProcessWindingControllerENS2_19CmifDomainProxyKindINS0_4hipc6client38Hipc2ClientSessionManagedProxyKindBaseINSA_18Hipc2ProxyKindBaseILNS9_6detail11MessageTypeE6EEEEEEENS0_30MemoryResourceAllocationPolicyES7_NS3_19ProcessModifierImplINS2_21DefaultProxyFilterTagEEEEE = 0x0000000000bc53d0 + __sdk_start;
_ZN2nn5prepo18GetLastUploadErrorEv = 0x00000000003399d0 + __sdk_start;
_ZN2nn5audio6server17AudioRenderSystem17GetWorkBufferSizeERKNS0_6detail30AudioRendererParameterInternalE = 0x000000000009b700 + __sdk_start;
_ZTINSt3__110ostrstreamE = 0x0000000000bef1c0 + __sdk_start;
_ZN2nn4util17MessagePackWriter18WriteArrayAutoSizeEj = 0x000000000039a350 + __sdk_start;
_ZN2nn2sf6detail38ObjectImplFactoryWithStatefulAllocatorINS0_4cmif6client6detail9CmifProxyINS_4bcat6detail3ipc12IBcatServiceENS4_19CmifDomainProxyKindINS0_4hipc6client38Hipc2ClientSessionManagedProxyKindBaseINSD_18Hipc2ProxyKindBaseILNSC_6detail11MessageTypeE6EEEEEEENS0_30MemoryResourceAllocationPolicyENS5_19ProcessModifierImplINS4_21DefaultProxyFilterTagEEEvEESL_E6Object7ReleaseEv = 0x00000000000c34e0 + __sdk_start;
_ZN2nn2sf4cmif6client6detail13CmifProxyImplINS_8settings21ISystemSettingsServerENS0_4hipc6client18Hipc2ProxyKindBaseILNS7_6detail11MessageTypeE6EEENS0_30MemoryResourceAllocationPolicyES6_NS3_19ProcessModifierImplINS2_21DefaultProxyFilterTagEEEE42_nn_sf_sync_GetAccountNotificationSettingsENS0_3OutIivEERKNS0_8OutArrayINS5_6system27AccountNotificationSettingsEEE = 0x0000000000341b00 + __sdk_start;
usleep = 0x00000000004faed8 + __sdk_start;
_ZN2nn6socket6detail7ConnectEiPK8sockaddrj = 0x0000000000367480 + __sdk_start;
_ZN2nn5audio3dsp4WakeEv = 0x00000000000b27e0 + __sdk_start;
_ZN2nn2sf4cmif6client6detail13CmifProxyImplINS_3hid16IHidSystemServerENS0_4hipc6client18Hipc2ProxyKindBaseILNS7_6detail11MessageTypeE6EEENS0_25StatelessAllocationPolicyINS0_22ExpHeapStaticAllocatorILm16384ENS5_6detail15HidSystemServerEEEEES6_NS3_19ProcessModifierImplINS2_21DefaultProxyFilterTagEEEE42_nn_sf_sync_EnableAppletToGetSixAxisSensorENS_6applet20AppletResourceUserIdEb = 0x0000000000258ba0 + __sdk_start;
_ZN2nn2sf4hipc6client24Hipc2ClientCoreProcessorILNS1_6detail11MessageTypeE6ENS0_4cmif6detail14CoreMethodInfoINSt3__15tupleIJNS7_18BufferArgumentInfoILi0ELi25ELm72EEENSB_ILi1ELi25ELm72EEEEEELm0ELm0ELb0EEESE_E7ProcessEPNS2_26Hipc2ClientProxyBaseObjectENS6_6client24BufferClientArgumentTypeESK_j = 0x00000000003408b0 + __sdk_start;
Libz_SigloMiddlewareInfo = 0x0000000000397f40 + __sdk_start;
_ZN2nn5codec21adtsRead_DecodeHeaderEPNS0_11STRUCT_ADTSEPNS0_21CSAudioSpecificConfigEPNS0_13FDK_BITSTREAMEi = 0x0000000000144bc0 + __sdk_start;
_ZN2nn2sf4hipc6client24Hipc2ClientCoreProcessorILNS1_6detail11MessageTypeE6ENS0_4cmif6detail14CoreMethodInfoINSt3__15tupleIJNS7_18BufferArgumentInfoILi0ELi22ELm256EEENSB_ILi1ELi21ELm256EEEEEELm0ELm0ELb0EEESE_E7ProcessEPNS2_26Hipc2ClientProxyBaseObjectENS6_6client24BufferClientArgumentTypeESK_j = 0x0000000000320b70 + __sdk_start;
_ZN2nn2sf4cmif6client6detail13CmifProxyImplINS_2am7service24ITransferStorageAccessorENS0_4hipc6client18Hipc2ProxyKindBaseILNS8_6detail11MessageTypeE6EEENS0_30MemoryResourceAllocationPolicyES7_NS3_19ProcessModifierImplINS2_21DefaultProxyFilterTagEEEE19_nn_sf_sync_GetSizeENS0_3OutIlvEE = 0x000000000006bb60 + __sdk_start;
_ZN2nn5swkbd12UserWordInfo25GetRequiredWorkBufferSizeEi = 0x0000000000380600 + __sdk_start;
_ZN2nn3web6detail24ShowOfflinePageArgDetail15SetDocumentPathEPhmPKc = 0x00000000003b5f10 + __sdk_start;
_ZN2nn2sf4cmif6client6detail13CmifProxyImplINS_3hid16IHidSystemServerENS0_4hipc6client18Hipc2ProxyKindBaseILNS7_6detail11MessageTypeE6EEENS0_30MemoryResourceAllocationPolicyES6_NS3_19ProcessModifierImplINS2_21DefaultProxyFilterTagEEEE41_nn_sf_sync_IsUsbFullKeyControllerEnabledENS0_3OutIbvEE = 0x000000000025ef10 + __sdk_start;
_ZN2nn2sf4cmif6client34CmifDomainProxyClientCoreProcessorINS0_4hipc6client38Hipc2ClientSessionManagedProxyKindBaseINS5_18Hipc2ProxyKindBaseILNS4_6detail11MessageTypeE6EEEEENS1_6detail14CoreMethodInfoINSt3__15tupleIJNSC_17InRawArgumentInfoILm8ELm8ELl0EEENSC_18BufferArgumentInfoILi0ELi33ELm0EEEEEELm8ELm0ELb0EEESK_E7ProcessEPNS2_23CmifDomainClientMessageISB_E15ProxyBaseObjectENS2_23InRawClientArgumentTypeILm8ELm8EvEENS2_24BufferClientArgumentTypeEj = 0x0000000000059640 + __sdk_start;
_ZTIN2nn2am7service18ISystemAppletProxyE = 0x0000000000bc3d30 + __sdk_start;
_ZNK2nn5audio6server12SinkInfoBase7GetTypeEv = 0x00000000000aaa20 + __sdk_start;
nvdcSetCsc_v2 = 0x00000000003b7c70 + __sdk_start;
_ZN2nn4nifm6detail13RequestClient23GetLibaryAppletArgumentEPNS_6applet8AppletIdEPNS3_17LibraryAppletModeEPmPvm = 0x0000000000313900 + __sdk_start;
extract_outline = 0x00000000001c59b0 + __sdk_start;
_ZNSt3__112strstreambufC2EPclS1_ = 0x000000000049c6b8 + __sdk_start;
_ZNK2nn5audio15PerformanceInfo22GetTotalProcessingTimeEv = 0x0000000000086c00 + __sdk_start;
_ZN2nn2oe22PauseGamePlayRecordingEv = 0x00000000003236a0 + __sdk_start;
_ZN2nn2sf30GetCurrentHipcClientIdOnServerEv = 0x0000000000357f70 + __sdk_start;
_ZThn16_N2nn2sf4cmif6client6detail13CmifProxyImplINS_3nim6detail24IShopServiceAccessServerENS0_4hipc6client18Hipc2ProxyKindBaseILNS8_6detail11MessageTypeE6EEENS0_30MemoryResourceAllocationPolicyES7_NS3_19ProcessModifierImplINS2_21DefaultProxyFilterTagEEEE17GetCmifBaseObjectEv = 0x000000000018bb60 + __sdk_start;
_ZN2nn2sf4cmif6client6detail13CmifProxyImplINS_4nifm6detail12IScanRequestENS2_19CmifDomainProxyKindINS0_4hipc6client38Hipc2ClientSessionManagedProxyKindBaseINSA_18Hipc2ProxyKindBaseILNS9_6detail11MessageTypeE6EEEEEEENS0_30MemoryResourceAllocationPolicyES7_NS3_19ProcessModifierImplINS2_21DefaultProxyFilterTagEEEE18_nn_sf_sync_SubmitEv = 0x0000000000315440 + __sdk_start;
_ZNSt3__112basic_stringIwNS_11char_traitsIwEENS_9allocatorIwEEE6appendEPKwm = 0x0000000000496d80 + __sdk_start;
_ZNSt3__117__widen_from_utf8ILm32EED0Ev = 0x000000000048abf0 + __sdk_start;
_ZN2nn4edid6cea86111VisitBlocksEPKNS0_4EdidEPFbPKhmPvES7_ = 0x00000000001941b0 + __sdk_start;
_ZN2nn4bcat21DeliveryCacheProgressC1Ev = 0x00000000000c1b30 + __sdk_start;
_ZN2nn3mii12GetSkinColorEiNS0_9GammaTypeE = 0x00000000002e1b80 + __sdk_start;
_ZN7android5FenceD1Ev = 0x000000000002de40 + __sdk_start;
_ZN2nn6socket8resolver10serializer13DNSSerializer10FromBufferI7in_addrEElRT_PKhm = 0x0000000000363400 + __sdk_start;
NvUHashGet = 0x00000000003bd420 + __sdk_start;
_ZNK7android13GraphicBuffer15getNativeBufferEv = 0x000000000002ecb0 + __sdk_start;
_ZNK2nn5codec11OpusEncoder17GetBitRateControlEv = 0x000000000011e5b0 + __sdk_start;
_ZNSt3__16__sortIRPFbRKN2nn6fontll15OtfKerningTable11KerningPairES6_EPS4_EEvT0_SB_T_ = 0x0000000000198f70 + __sdk_start;
_ZN2nn2am28GetLibraryAppletSelfAccessorEv = 0x0000000000051e40 + __sdk_start;
_ZN2nn2vi23SetDisplayContrastRatioEPNS0_7DisplayEf = 0x00000000003a3520 + __sdk_start;
_ZNK2nn2os6detail10TlsManager25SearchUnusedTlsSlotUnsafeEb = 0x000000000032a3c0 + __sdk_start;
_ZN2nn7friends9SetOptionEiz = 0x00000000001d7750 + __sdk_start;
nvgr_get_fence = 0x00000000003ee2e0 + __sdk_start;
_ZN2nn5image6detail4jpeg19jinit_arith_decoderEPNS2_22jpeg_decompress_structE = 0x000000000027b490 + __sdk_start;
_ZN2nn7account38ExternalNetworkServiceAccountRegistrar34RegisterNetworkServiceAccountAsyncEPNS0_12AsyncContextE = 0x000000000004a0f0 + __sdk_start;
_ZN2nn5audio22SetBiquadFilterEnabledEPNS0_16BiquadFilterTypeEb = 0x0000000000081e90 + __sdk_start;
which_script = 0x00000000001be970 + __sdk_start;
_ZN2nn3hid6system41StartSixAxisSensorAccurateUserCalibrationERKNS1_25UniqueSixAxisSensorHandleE = 0x000000000024b640 + __sdk_start;
_ZN2nn6crypto6detail7AesImplILm16EE10InitializeEPKvmb = 0x0000000000179960 + __sdk_start;
_ZN2nn5audio8SinkInfo7CleanUpEv = 0x00000000000878e0 + __sdk_start;
_ZN2nn5audio6server16UpsamplerManager4FreeEPNS0_13UpsamplerInfoE = 0x000000000008e850 + __sdk_start;
_ZN2nn2sf4hipc6detail25HipcMessageBufferAccessor13SetMoveHandleEij = 0x0000000000356dd0 + __sdk_start;
_ZNK2nn5codec11OpusEncoder13GetCodingModeEv = 0x000000000011e5d0 + __sdk_start;
_ZN2nn2sf4cmif6client6detail13CmifProxyImplINS_3mii6detail16IDatabaseServiceENS2_19CmifDomainProxyKindINS0_4hipc6client38Hipc2ClientSessionManagedProxyKindBaseINSA_18Hipc2ProxyKindBaseILNS9_6detail11MessageTypeE6EEEEEEENS0_30MemoryResourceAllocationPolicyES7_NS3_19ProcessModifierImplINS2_21DefaultProxyFilterTagEEEE20_nn_sf_sync_GetIndexENS0_3OutIivEERKNS5_8CharInfoE = 0x00000000002f5270 + __sdk_start;
_ZN2nn4npns7ReceiveEPNS0_16NotificationDataE = 0x000000000031b620 + __sdk_start;
_ZN2nn2sf4cmif6client6detail13CmifProxyImplINS_4pctl6detail3ipc23IParentalControlServiceENS2_19CmifDomainProxyKindINS0_4hipc6client38Hipc2ClientSessionManagedProxyKindBaseINSB_18Hipc2ProxyKindBaseILNSA_6detail11MessageTypeE6EEEEEEENS0_30MemoryResourceAllocationPolicyES8_NS3_19ProcessModifierImplINS2_21DefaultProxyFilterTagEEEE46_nn_sf_sync_ConfirmPlayableApplicationVideoOldERKNS0_7InArrayIaEE = 0x0000000000333b00 + __sdk_start;
_ZN2nn2sf4hipc6client24Hipc2ClientCoreProcessorILNS1_6detail11MessageTypeE6ENS0_4cmif6detail14CoreMethodInfoINSt3__15tupleIJNS7_17InRawArgumentInfoILm12ELm4ELl0EEEEEELm12ELm0ELb0EEESD_E7ProcessEPNS2_26Hipc2ClientProxyBaseObjectENS6_6client23InRawClientArgumentTypeILm12ELm4EvEEj = 0x00000000003448f0 + __sdk_start;
_ZNSt3__15stollERKNS_12basic_stringIcNS_11char_traitsIcEENS_9allocatorIcEEEEPmi = 0x0000000000499310 + __sdk_start;
fputwc_unlocked = 0x00000000004f2988 + __sdk_start;
_ZN2nn5image6detail8WriteIfdEPhtPKNS1_12ValuedIfdTagERKNS1_9IfdHeaderERKNS1_8BinaryIoE = 0x00000000002924d0 + __sdk_start;
_ZN2nn2sf4cmif6client6detail13CmifProxyImplINS_2am7service22ILibraryAppletAccessorENS2_19CmifDomainProxyKindINS0_4hipc6client38Hipc2ClientSessionManagedProxyKindBaseINSA_18Hipc2ProxyKindBaseILNS9_6detail11MessageTypeE6EEEEEEENS0_30MemoryResourceAllocationPolicyES7_NS3_19ProcessModifierImplINS2_21DefaultProxyFilterTagEEEE41_nn_sf_sync_GetPopInteractiveOutDataEventENS0_3OutINS0_12NativeHandleEvEE = 0x000000000005ce50 + __sdk_start;
_ZN2nn5audio14AddI3dl2ReverbEPNS0_19AudioRendererConfigEPNS0_15I3dl2ReverbTypeEPvmPNS0_12FinalMixTypeEi = 0x0000000000083110 + __sdk_start;
_ZNK2nn5audio6server15SplitterContext18GetDestinationDataEii = 0x00000000000ab2c0 + __sdk_start;
_ZTVN2nn5audio6server11EntryAspectE = 0x0000000000bcd198 + __sdk_start;
_ZN2nn3hid20GetTouchScreenStatesILm3EEEiPNS0_16TouchScreenStateIXT_EEEi = 0x000000000024a780 + __sdk_start;
_ZTIN2nn6socket8resolver9IResolverE = 0x0000000000be3910 + __sdk_start;
_ZN2nn2ec27DebugForShopServiceAccessor13ScopedSessionD2Ev = 0x000000000018afb0 + __sdk_start;
_ZN22nerd_gillette_internal5otete7jaimev114DecodeShapeROKERNS1_13ShapeInPacketEPKhmPmRKNS1_17IntensityInPacketE = 0x00000000002a1380 + __sdk_start;
_ZN2nn2sf4cmif6client6detail13CmifProxyImplINS_7account4http15IOAuthProcedureENS2_19CmifDomainProxyKindINS0_4hipc6client38Hipc2ClientSessionManagedProxyKindBaseINSA_18Hipc2ProxyKindBaseILNS9_6detail11MessageTypeE6EEEEEEENS0_25StatelessAllocationPolicyINS0_22ExpHeapStaticAllocatorILm2048ENS5_6detail12ObjectHolder24ObjectHolderAllocatorTagEEEEENS5_3nas29IOAuthProcedureForExternalNsaENS3_19ProcessModifierImplINS2_21DefaultProxyFilterTagEEEE30_nn_sf_sync_ApplyResponseAsyncENS0_3OutINS0_13SharedPointerINSK_13IAsyncContextEEEvEERKNS0_7InArrayIcEE = 0x0000000000048210 + __sdk_start;
_ZN2nn2sf4hipc6client24Hipc2ClientCoreProcessorILNS1_6detail11MessageTypeE6ENS0_4cmif6detail14CoreMethodInfoINSt3__15tupleIJNS7_18OutRawArgumentInfoILm32ELm8ELl0EEENS7_17InRawArgumentInfoILm8ELm8ELl8EEENS7_18BufferArgumentInfoILi0ELi5ELm0EEENSF_ILi1ELi5ELm0EEENSD_ILm4ELm4ELl0EEENSD_ILm4ELm4ELl4EEEEEELm16ELm32ELb0EEESK_E7ProcessEPNS2_26Hipc2ClientProxyBaseObjectENS6_6client24OutRawClientArgumentTypeILm32ELm8EEENSP_23InRawClientArgumentTypeILm8ELm8EvEENSP_24BufferClientArgumentTypeESU_NSS_ILm4ELm4EvEESV_j = 0x00000000000777d0 + __sdk_start;
_ZNK7android6Parcel14readWeakBinderEv = 0x000000000000a7c0 + __sdk_start;
memset_s = 0x00000000004cbec8 + __sdk_start;
_ZN2nn5audio17MemoryPoolManager17UpdateInParameterEPv = 0x0000000000085ec0 + __sdk_start;
_ZN2nn3hid22GetSixAxisSensorStatesEPNS0_18SixAxisSensorStateEiRKNS0_19SixAxisSensorHandleE = 0x0000000000249d30 + __sdk_start;
_ZN2nn2sf4cmif6client6detail13CmifProxyImplINS_3hid16IHidSystemServerENS0_4hipc6client18Hipc2ProxyKindBaseILNS7_6detail11MessageTypeE6EEENS0_25StatelessAllocationPolicyINS0_22ExpHeapStaticAllocatorILm16384ENS5_6detail15HidSystemServerEEEEES6_NS3_19ProcessModifierImplINS2_21DefaultProxyFilterTagEEEE37_nn_sf_sync_SetAruidValidForVibrationENS_6applet20AppletResourceUserIdEb = 0x0000000000258b70 + __sdk_start;
_ZN2nn3kpr6detail29GetKeyCodeComposerCompositionERKNS1_22KeyCodeComposerStorageEPti = 0x00000000002b3e40 + __sdk_start;
_ZN2nn4util38InitializeStreamingCompressZlibContextEPNS0_28StreamingCompressZlibContextEPvm = 0x000000000039aa40 + __sdk_start;
_ZN2nn5audio12CloseAudioInEPNS0_7AudioInE = 0x0000000000098aa0 + __sdk_start;
_ZN7android7String86formatEPKcz = 0x00000000000352b0 + __sdk_start;
_ZN2nn4time13ClockSnapshotC2Ev = 0x00000000003845a0 + __sdk_start;
_ZN2nn8irsensor6detail17RunIrLedProcessorERKNS0_14IrCameraHandleERKNS0_20IrLedProcessorConfigE = 0x0000000000298e80 + __sdk_start;
wctype = 0x00000000004d6fc8 + __sdk_start;
_ZNK2nn5audio6common16UpdateDataHeader12GetTotalSizeEv = 0x000000000008b710 + __sdk_start;
_ZN2nn2fs29EnsureApplicationCacheStorageEPlPNS0_23CacheStorageTargetMediaENS_3ncm13ApplicationIdERKNS_2ns26ApplicationControlPropertyE = 0x00000000002273e0 + __sdk_start;
_ZN2nn2sf4cmif6client6detail13CmifProxyImplINS_3hid10IHidServerENS0_4hipc6client18Hipc2ProxyKindBaseILNS7_6detail11MessageTypeE6EEENS0_25StatelessAllocationPolicyINS0_22ExpHeapStaticAllocatorILm16384ENS5_6detail9HidServerEEEEES6_NS3_19ProcessModifierImplINS2_21DefaultProxyFilterTagEEEE40_nn_sf_sync_WritePalmaRgbLedPatternEntryENS5_21PalmaConnectionHandleEmRKNS0_8InBufferE = 0x0000000000255930 + __sdk_start;
_ZNK2nn5image13ExifExtractor25ExtractEffectiveDimensionEPNS0_9DimensionE = 0x0000000000296770 + __sdk_start;
_ZN2nn2sf4cmif6client6detail13CmifProxyImplINS_6grcsrv11IMovieMakerENS0_4hipc6client18Hipc2ProxyKindBaseILNS7_6detail11MessageTypeE6EEENS0_30MemoryResourceAllocationPolicyES6_NS3_19ProcessModifierImplINS2_21DefaultProxyFilterTagEEEE38_nn_sf_sync_SetAlbumShimLibraryVersionEm = 0x0000000000076690 + __sdk_start;
_ZTVN2nn2sf6detail38ObjectImplFactoryWithStatefulAllocatorINS0_4cmif6client6detail9CmifProxyINS_2am7service15IStorageChannelENS0_4hipc6client18Hipc2ProxyKindBaseILNSA_6detail11MessageTypeE6EEENS0_30MemoryResourceAllocationPolicyENS5_19ProcessModifierImplINS4_21DefaultProxyFilterTagEEEvEESG_E6ObjectE = 0x0000000000bc7cb8 + __sdk_start;
_ZN2nn5audio6server17AudioRenderSystem16QuerySystemEventEPj = 0x000000000009cc90 + __sdk_start;
_ZN2nn6crypto6detail10Sha256ImplD2Ev = 0x000000000017b960 + __sdk_start;
nnmem_nlib_memalign = 0x00000000002d3d10 + __sdk_start;
_ZN2nn3err6detail15ReadMessageFileEPDsPimNS0_9ErrorCodeENS_8settings12LanguageCodeENS1_11MessageKindE = 0x0000000000197180 + __sdk_start;
_ZTVN2nn2sf6detail38ObjectImplFactoryWithStatefulAllocatorINS0_4cmif6client6detail9CmifProxyINS_2lm10ILogGetterENS0_4hipc6client18Hipc2ProxyKindBaseILNS9_6detail11MessageTypeE6EEENS0_30MemoryResourceAllocationPolicyENS5_19ProcessModifierImplINS4_21DefaultProxyFilterTagEEEvEESF_E6ObjectE = 0x0000000000bdb240 + __sdk_start;
_ZN2nn2sf4cmif6client6detail13CmifProxyImplINS_5prepo6detail3ipc13IPrepoServiceENS2_19CmifDomainProxyKindINS0_4hipc6client38Hipc2ClientSessionManagedProxyKindBaseINSB_18Hipc2ProxyKindBaseILNSA_6detail11MessageTypeE6EEEEEEENS0_30MemoryResourceAllocationPolicyES8_NS3_19ProcessModifierImplINS2_21DefaultProxyFilterTagEEEE33_nn_sf_sync_SaveReportWithUserOldERKNS_7account3UidERKNS0_7InArrayIcEERKNS0_8InBufferEm = 0x000000000033b8f0 + __sdk_start;
get_some_back = 0x00000000001d54f0 + __sdk_start;
_ZN7android14SurfaceControlD2Ev = 0x0000000000028bc0 + __sdk_start;
get_glyph_metrics = 0x00000000001be170 + __sdk_start;
_ZN2nn2sf6detail38ObjectImplFactoryWithStatefulAllocatorINS0_4cmif6client6detail9CmifProxyIN3nns9hosbinder16IHOSBinderDriverENS4_19CmifDomainProxyKindINS0_4hipc6client38Hipc2ClientSessionManagedProxyKindBaseINSC_18Hipc2ProxyKindBaseILNSB_6detail11MessageTypeE6EEEEEEENS0_30MemoryResourceAllocationPolicyENS5_19ProcessModifierImplINS4_21DefaultProxyFilterTagEEEvEESK_E6Object7ReleaseEv = 0x00000000000647c0 + __sdk_start;
_ZThn16_N2nn2sf4cmif6client6detail13CmifProxyImplINS_5visrv2sf21ISystemDisplayServiceENS0_4hipc6client18Hipc2ProxyKindBaseILNS8_6detail11MessageTypeE6EEENS0_30MemoryResourceAllocationPolicyES7_NS3_19ProcessModifierImplINS2_21DefaultProxyFilterTagEEEE17GetCmifBaseObjectEv = 0x00000000003a5e20 + __sdk_start;
_ZN7android6Parcel19ipcSetDataReferenceEPKhmPKjmPFvPS0_S2_mS4_mPvES6_ = 0x000000000000b260 + __sdk_start;
_ZN2nn2sf4cmif6client6detail13CmifProxyImplINS_3hid10IHidServerENS0_4hipc6client18Hipc2ProxyKindBaseILNS7_6detail11MessageTypeE6EEENS0_25StatelessAllocationPolicyINS0_22ExpHeapStaticAllocatorILm16384ENS5_6detail9HidServerEEEEES6_NS3_19ProcessModifierImplINS2_21DefaultProxyFilterTagEEEE25_nn_sf_sync_ActivateMouseENS_6applet20AppletResourceUserIdE = 0x00000000002547a0 + __sdk_start;
opendir = 0x00000000004b9188 + __sdk_start;
_ZN2nn2sf4cmif6client6detail13CmifProxyImplINS_7account4baas24IManagerForSystemServiceENS2_19CmifDomainProxyKindINS0_4hipc6client38Hipc2ClientSessionManagedProxyKindBaseINSA_18Hipc2ProxyKindBaseILNS9_6detail11MessageTypeE6EEEEEEENS0_25StatelessAllocationPolicyINS0_22ExpHeapStaticAllocatorILm2048ENS5_6detail12ObjectHolder24ObjectHolderAllocatorTagEEEEENS6_14IAdministratorENS3_19ProcessModifierImplINS2_21DefaultProxyFilterTagEEEE32_nn_sf_sync_GetNintendoAccountIdENS0_3OutINS5_17NintendoAccountIdEvEE = 0x0000000000046140 + __sdk_start;
_ZNSt3__16locale2id5__getEv = 0x00000000004840b8 + __sdk_start;
_ZN2nn2sf4cmif6client6detail13CmifProxyImplINS_2am7service21ILibraryAppletCreatorENS0_4hipc6client18Hipc2ProxyKindBaseILNS8_6detail11MessageTypeE6EEENS0_30MemoryResourceAllocationPolicyES7_NS3_19ProcessModifierImplINS2_21DefaultProxyFilterTagEEEE17GetCmifBaseObjectEv = 0x000000000006f740 + __sdk_start;
_ZTIN2nn2sf4cmif6client6detail9CmifProxyINS_6grcsrv11IMovieMakerENS0_4hipc6client18Hipc2ProxyKindBaseILNS7_6detail11MessageTypeE6EEENS0_30MemoryResourceAllocationPolicyENS3_19ProcessModifierImplINS2_21DefaultProxyFilterTagEEEvEE = 0x0000000000bca0d0 + __sdk_start;
_ZN2nn3web22ShowOfflineHtmlPageArgC2ERKNS_13ApplicationIdEPKc = 0x00000000003b1f90 + __sdk_start;
_ZNSt3__112basic_stringIwNS_11char_traitsIwEENS_9allocatorIwEEEC2ERKS5_mmRKS4_ = 0x0000000000496520 + __sdk_start;
_ZN2nn2os6detail39DetachReadableHandleOfInterProcessEventEPNS1_21InterProcessEventTypeE = 0x00000000003298b0 + __sdk_start;
_ZN2nn3mii6detail13GetDefaultMiiEi = 0x00000000002e7e90 + __sdk_start;
_ZN2nn2sf6detail38ObjectImplFactoryWithStatefulAllocatorINS0_4cmif6client6detail9CmifProxyINS_4npns21INotificationReceiverENS0_4hipc6client18Hipc2ProxyKindBaseILNS9_6detail11MessageTypeE6EEENS0_30MemoryResourceAllocationPolicyENS5_19ProcessModifierImplINS4_21DefaultProxyFilterTagEEEvEESF_E6Object12AddReferenceEv = 0x000000000031d0a0 + __sdk_start;
_ZN2nn2sf4cmif6client6detail13CmifProxyImplINS_5visrv2sf22IManagerDisplayServiceENS0_4hipc6client18Hipc2ProxyKindBaseILNS8_6detail11MessageTypeE6EEENS0_30MemoryResourceAllocationPolicyES7_NS3_19ProcessModifierImplINS2_21DefaultProxyFilterTagEEEE44_nn_sf_sync_CreateSharedBufferTransferMemoryENS0_3OutINS_2vi7fbshare18SharedBufferHandleEvEEONS0_12NativeHandleEmRKNSL_22SharedMemoryPoolLayoutE = 0x00000000003a7750 + __sdk_start;
_ZN2nn2sf6detail38ObjectImplFactoryWithStatefulAllocatorINS0_4cmif6client6detail9CmifProxyINS_2am7service8IStorageENS4_19CmifDomainProxyKindINS0_4hipc6client38Hipc2ClientSessionManagedProxyKindBaseINSC_18Hipc2ProxyKindBaseILNSB_6detail11MessageTypeE6EEEEEEENS0_30MemoryResourceAllocationPolicyENS5_19ProcessModifierImplINS4_21DefaultProxyFilterTagEEEvEESK_E6Object12AddReferenceEv = 0x0000000000059270 + __sdk_start;
_ZN2nn2sf4hipc6client24Hipc2ClientCoreProcessorILNS1_6detail11MessageTypeE6ENS0_4cmif6detail14CoreMethodInfoINSt3__15tupleIJNS7_17InRawArgumentInfoILm6ELm1ELl0EEENS7_18BufferArgumentInfoILi0ELi25ELm642EEEEEELm6ELm0ELb0EEESF_E7ProcessEPNS2_26Hipc2ClientProxyBaseObjectENS6_6client23InRawClientArgumentTypeILm6ELm1EvEENSK_24BufferClientArgumentTypeEj = 0x00000000000c7020 + __sdk_start;
_ZN2nn3ldn4ScanEPNS0_11NetworkInfoEPiiRKNS0_10ScanFilterEi = 0x00000000002b60c0 + __sdk_start;
apply_transMatrix = 0x00000000001be5c0 + __sdk_start;
_ZN2nn3hid6detail18SharedMemoryHolderC2EOS2_ = 0x000000000023a770 + __sdk_start;
_ZN2nn3hid6system31ApplyNpadSystemCommonPolicyFullEv = 0x0000000000247620 + __sdk_start;
_ZN2nn2sf4cmif6client6detail13CmifProxyImplINS_3hid10IHidServerENS0_4hipc6client18Hipc2ProxyKindBaseILNS7_6detail11MessageTypeE6EEENS0_25StatelessAllocationPolicyINS0_22ExpHeapStaticAllocatorILm16384ENS5_6detail9HidServerEEEEES6_NS3_19ProcessModifierImplINS2_21DefaultProxyFilterTagEEEE38_nn_sf_sync_DeactivateJoySixAxisSensorENS5_9JoyXpadIdE = 0x0000000000254a00 + __sdk_start;
_ZN2nn8irsensor6detail31CreateIrSensorSystemServerProxyEPNS_2sf13SharedPointerINS0_21IIrSensorSystemServerEEE = 0x000000000029fce0 + __sdk_start;
__nnmusl_pthread_rwlock_wrlock = 0x0000000000508988 + __sdk_start;
vswscanf = 0x00000000004f5520 + __sdk_start;
_ZN2nn4lmem6detail12InitHeapHeadEPNS1_8HeapHeadEjPvS4_i = 0x00000000002bc050 + __sdk_start;
_ZNK2nn5audio6server14MemoryPoolInfo9TranslateENS0_7CpuAddrEm = 0x00000000000a8a50 + __sdk_start;
_ZN2nn2sf4cmif6client6detail13CmifProxyImplINS_3hid15IHidDebugServerENS0_4hipc6client18Hipc2ProxyKindBaseILNS7_6detail11MessageTypeE6EEENS0_25StatelessAllocationPolicyINS0_22ExpHeapStaticAllocatorILm16384ENS5_6detail14HidDebugServerEEEEES6_NS3_19ProcessModifierImplINS2_21DefaultProxyFilterTagEEEE49_nn_sf_sync_GetShiftAccelerometerCalibrationValueENS0_3OutIfvEESO_NS5_19SixAxisSensorHandleENS_6applet20AppletResourceUserIdE = 0x0000000000251c80 + __sdk_start;
_ZN2nn2fs24HierarchicalRomFileTable8OpenFileEPNS0_11RomFileInfoEi = 0x00000000001e7de0 + __sdk_start;
_ZN2nn6socket5FcntlEiNS0_12FcntlCommandEz = 0x00000000003604c0 + __sdk_start;
_ZN7android21SurfaceComposerClient7setCropERKNS_2spINS_7IBinderEEERKNS_4RectE = 0x000000000002ae30 + __sdk_start;
_ZNK2nn2sf13SharedPointerINS_3apm8ISessionEE19FunctionForBoolTypeEv = 0x000000000007a190 + __sdk_start;
_ZNK2nn3mii6detail11CoreDataRaw15GetFacelineMakeEv = 0x00000000002e6ce0 + __sdk_start;
_ZN2nn2sf6detail38ObjectImplFactoryWithStatefulAllocatorINS0_4cmif6client6detail9CmifProxyINS_4pctl6detail3ipc23IParentalControlServiceENS4_19CmifDomainProxyKindINS0_4hipc6client38Hipc2ClientSessionManagedProxyKindBaseINSD_18Hipc2ProxyKindBaseILNSC_6detail11MessageTypeE6EEEEEEENS0_30MemoryResourceAllocationPolicyENS5_19ProcessModifierImplINS4_21DefaultProxyFilterTagEEEvEESL_E6Object7ReleaseEv = 0x00000000003338b0 + __sdk_start;
_ZN2nn8settings7factory21GetAccelerometerScaleEPNS1_18AccelerometerScaleE = 0x0000000000354030 + __sdk_start;
NvOsSemaphoreWait = 0x00000000003c3510 + __sdk_start;
longjmp = 0x00000000004b90c4 + __sdk_start;
_ZN22nerd_gillette_internal5otete7jaimev119DecodeSilhouetteROKEPNS0_11OteteFloat2ERmmPKhmPm = 0x00000000002a1ba0 + __sdk_start;
_ZNK7android10VectorImpl8capacityEv = 0x0000000000038360 + __sdk_start;
_ZN2nn2sf4cmif6client6detail13CmifProxyImplINS_2am7service15ISelfControllerENS0_4hipc6client18Hipc2ProxyKindBaseILNS8_6detail11MessageTypeE6EEENS0_30MemoryResourceAllocationPolicyES7_NS3_19ProcessModifierImplINS2_21DefaultProxyFilterTagEEEE38_nn_sf_sync_SetDesirableKeyboardLayoutEj = 0x000000000006a130 + __sdk_start;
_ZN2nn5audio3dsp13ApplyMixRamp4ILi15EEEiPiPKiiii = 0x00000000000baee0 + __sdk_start;
_ZN2nn5codec6dct_IIEPiS1_iS1_ = 0x000000000013c260 + __sdk_start;
_ZN2nn3err9ShowErrorENS0_9ErrorCodeE = 0x0000000000194ee0 + __sdk_start;
_ZN2nn2sf6detail38ObjectImplFactoryWithStatefulAllocatorINS0_4cmif6client6detail9CmifProxyINS_7timesrv6detail7service16ITimeZoneServiceENS4_19CmifDomainProxyKindINS0_4hipc6client38Hipc2ClientSessionManagedProxyKindBaseINSD_18Hipc2ProxyKindBaseILNSC_6detail11MessageTypeE6EEEEEEENS0_30MemoryResourceAllocationPolicyENS5_19ProcessModifierImplINS4_21DefaultProxyFilterTagEEEvEESL_E6Object7ReleaseEv = 0x0000000000388d40 + __sdk_start;
_ZN2nn3ngc6detail16WorkBufAllocator10InitializeEPvm = 0x0000000000306e90 + __sdk_start;
_ZN2nn3mii6detail16GetMouthRedColorENS0_11CommonColorENS0_9GammaTypeE = 0x00000000002e3840 + __sdk_start;
_ZN2nn2sf4cmif6client6detail13CmifProxyImplINS_2am7service18IAppletProxyCommonENS2_19CmifDomainProxyKindINS0_4hipc6client38Hipc2ClientSessionManagedProxyKindBaseINSA_18Hipc2ProxyKindBaseILNS9_6detail11MessageTypeE6EEEEEEENS0_30MemoryResourceAllocationPolicyENS6_17IApplicationProxyENS3_19ProcessModifierImplINS2_21DefaultProxyFilterTagEEEE32_nn_sf_sync_GetCommonStateGetterENS0_3OutINS0_13SharedPointerINS6_18ICommonStateGetterEEEvEE = 0x0000000000061920 + __sdk_start;
_ZN2nn2sf4cmif6client6detail13CmifProxyImplINS_2am7service18IDisplayControllerENS0_4hipc6client18Hipc2ProxyKindBaseILNS8_6detail11MessageTypeE6EEENS0_30MemoryResourceAllocationPolicyES7_NS3_19ProcessModifierImplINS2_21DefaultProxyFilterTagEEEE46_nn_sf_sync_AcquireLastForegroundCaptureBufferENS0_3OutINS0_12NativeHandleEvEE = 0x000000000006c9e0 + __sdk_start;
NvRmGpuDeviceZbcAddColor = 0x00000000003ee7b0 + __sdk_start;
_ZNKSt3__112ctype_bynameIcE10do_tolowerEPcPKc = 0x0000000000485f28 + __sdk_start;
_ZN2nn7account13ListOpenUsersEPiPNS0_3UidEi = 0x000000000003b8f0 + __sdk_start;
_ZNK2nn7account33ExternalNetworkServiceAccountInfo37LoadNetworkServiceAccountIdTokenCacheEPmPcm = 0x0000000000049f10 + __sdk_start;
_ZN2nn2sf4hipc6client24Hipc2ClientCoreProcessorILNS1_6detail11MessageTypeE6ENS0_4cmif6detail14CoreMethodInfoINSt3__15tupleIJNS7_18BufferArgumentInfoILi0ELi34ELm0EEEEEELm0ELm0ELb0EEESD_E7ProcessEPNS2_26Hipc2ClientProxyBaseObjectENS6_6client24BufferClientArgumentTypeEj = 0x00000000000950e0 + __sdk_start;
_ZNK2nn5audio6server12BehaviorInfo41IsVolumeMixParameterPrecisionQ23SupportedEv = 0x00000000000a7e60 + __sdk_start;
nnsslConnectionPending = 0x000000000037b400 + __sdk_start;
_ZNKSt3__117moneypunct_bynameIcLb1EE16do_decimal_pointEv = 0x00000000004749b8 + __sdk_start;
_ZN2nn2vi6native8ParcelIo10OpenParcelEPN7android6ParcelEPKvm = 0x00000000003b07e0 + __sdk_start;
_ZN2nn3hid12GetNpadStateEPNS0_16NpadJoyLeftStateERKj = 0x0000000000248350 + __sdk_start;
_ZN2nn2sf4cmif6client6detail13CmifProxyImplINS_3hid10IHidServerENS0_4hipc6client18Hipc2ProxyKindBaseILNS7_6detail11MessageTypeE6EEENS0_25StatelessAllocationPolicyINS0_22ExpHeapStaticAllocatorILm16384ENS5_6detail9HidServerEEEEES6_NS3_19ProcessModifierImplINS2_21DefaultProxyFilterTagEEEE32_nn_sf_sync_StopLrAssignmentModeENS_6applet20AppletResourceUserIdE = 0x0000000000255090 + __sdk_start;
_ZN2nn5audio20SetAudioInDeviceGainEPNS0_7AudioInEf = 0x0000000000099510 + __sdk_start;
NvUStrtol = 0x00000000003be000 + __sdk_start;
_ZN2nn2sf4cmif6server17CmifServerMessage20EndPreparingForReplyEv = 0x00000000003594c0 + __sdk_start;
_ZN2nn2sf4cmif6server6detail34CmifProcessFunctionTableGetterImplINS0_4hipc6detail12IHipcManagerEE36Process_ConvertCurrentObjectToDomainEPPNS1_13CmifOutHeaderEPS7_PNS2_17CmifServerMessageEONS0_6detail14PointerAndSizeE = 0x000000000035a3e0 + __sdk_start;
silk_NLSF_del_dec_quant = 0x00000000000f2e40 + __sdk_start;
_ZN2nn2pl8IsVrModeEv = 0x0000000000337df0 + __sdk_start;
_ZN2nn3hid22GetVibrationDeviceInfoEPNS0_19VibrationDeviceInfoERKNS0_21VibrationDeviceHandleE = 0x000000000024c4f0 + __sdk_start;
_ZNSt3__112ctype_bynameIcEC2EPKcm = 0x0000000000485ba8 + __sdk_start;
_ZN2nn2sf4cmif6client6detail13CmifProxyImplINS_6capsrv2sf29IScreenShotApplicationServiceENS0_4hipc6client18Hipc2ProxyKindBaseILNS8_6detail11MessageTypeE6EEENS0_30MemoryResourceAllocationPolicyES7_NS3_19ProcessModifierImplINS2_21DefaultProxyFilterTagEEEE29_nn_sf_sync_SaveScreenShotEx2ENS0_3OutINS5_21ApplicationAlbumEntryEvEERKNS0_8InBufferERKNS5_6detail22ScreenShotAttributeEx0ERKNS5_10UserIdListENS_6applet20AppletResourceUserIdEj = 0x00000000000d5110 + __sdk_start;
_ZN2nn3hid5debug22EnableAnalogStickPowerEbRKNS0_6system11UniquePadIdE = 0x000000000024bd00 + __sdk_start;
_ZN2nn2sf4hipc13AcceptSessionEPNS_3svc6HandleES3_ = 0x000000000035ce30 + __sdk_start;
_ZN2nn2sf4cmif6client34CmifDomainProxyClientCoreProcessorINS0_4hipc6client38Hipc2ClientSessionManagedProxyKindBaseINS5_18Hipc2ProxyKindBaseILNS4_6detail11MessageTypeE6EEEEENS1_6detail14CoreMethodInfoINSt3__15tupleIJNSC_18OutRawArgumentInfoILm8ELm8ELl0EEENSC_17InRawArgumentInfoILm8ELm8ELl0EEEEEELm8ELm8ELb0EEESK_E7ProcessEPNS2_23CmifDomainClientMessageISB_E15ProxyBaseObjectENS2_24OutRawClientArgumentTypeILm8ELm8EEENS2_23InRawClientArgumentTypeILm8ELm8EvEEj = 0x0000000000205490 + __sdk_start;
_ZN2nn4edid6detail25ModeExtensionBlockVisitorEPKhmPv = 0x0000000000193e30 + __sdk_start;
_ZN2nn3ngc6detail3Bp_C1Ev = 0x0000000000309670 + __sdk_start;
_ZN2nn7account54ProxyProcedureToIntroduceExternalNetworkServiceAccountEPNS0_49ExternalNetworkServiceAccountIntroducingProcedureERKNS0_9SessionIdE = 0x000000000003db90 + __sdk_start;
_ZN2nn2fs41EnsureApplicationBcatDeliveryCacheStorageEPlNS_3ncm13ApplicationIdERKNS_2ns26ApplicationControlPropertyE = 0x00000000002275e0 + __sdk_start;
_ZN2nn2sf4cmif6client6detail13CmifProxyImplINS_3hid16IHidSystemServerENS0_4hipc6client18Hipc2ProxyKindBaseILNS7_6detail11MessageTypeE6EEENS0_30MemoryResourceAllocationPolicyES6_NS3_19ProcessModifierImplINS2_21DefaultProxyFilterTagEEEE36_nn_sf_sync_SendKeyboardLockKeyEventENS_4util10BitFlagSetILi32ENS5_6system20KeyboardLockKeyEventEEE = 0x000000000025e340 + __sdk_start;
_ZTVNSt3__117moneypunct_bynameIcLb0EEE = 0x0000000000bec348 + __sdk_start;
_ZN2nn6socket6AcceptEiPNS0_8SockAddrEPj = 0x00000000003602e0 + __sdk_start;
_ZNK2nn5audio14MemoryPoolInfo10IsAttachedEv = 0x0000000000085aa0 + __sdk_start;
_ZN2nn8settings6detail31GetApplicationOwnKeyboardLayoutEPbPNS0_14KeyboardLayoutE = 0x000000000034d480 + __sdk_start;
_ZNKSt3__17codecvtIcc11__mbstate_tE13do_max_lengthEv = 0x0000000000486c68 + __sdk_start;
_ZN2nn2sf4cmif6client6detail13CmifProxyImplINS_2am7service21IApplicationFunctionsENS0_4hipc6client18Hipc2ProxyKindBaseILNS8_6detail11MessageTypeE6EEENS0_30MemoryResourceAllocationPolicyES7_NS3_19ProcessModifierImplINS2_21DefaultProxyFilterTagEEEE49_nn_sf_sync_EnableApplicationAllThreadDumpOnCrashEb = 0x0000000000074d10 + __sdk_start;
_ZN2nn5album22SaveAndShareScreenshotEPNS0_7ShareIdEPKvmNS0_9ImageSizeENS0_17AlbumReportOptionERKNS_7account3UidEPKc = 0x0000000000051530 + __sdk_start;
versionsort = 0x00000000004d7e38 + __sdk_start;
_ZN2nn5image11JpegDecoderD0Ev = 0x0000000000294910 + __sdk_start;
_ZN2nn2fs30RegisterSaveDataAtomicDeletionEPmi = 0x0000000000215020 + __sdk_start;
_ZN2nn2fs6detail22PathBasedFileDataCache6RemoveEPNS1_18FileSystemAccessorERKNS1_12FilePathHashEPKc = 0x00000000002248c0 + __sdk_start;
_ZN2nn2sf4cmif6client6detail13CmifProxyImplINS_2am7service16IStorageAccessorENS2_19CmifDomainProxyKindINS0_4hipc6client38Hipc2ClientSessionManagedProxyKindBaseINSA_18Hipc2ProxyKindBaseILNS9_6detail11MessageTypeE6EEEEEEENS0_30MemoryResourceAllocationPolicyES7_NS3_19ProcessModifierImplINS2_21DefaultProxyFilterTagEEEE19_nn_sf_sync_GetSizeENS0_3OutIlvEE = 0x00000000000595a0 + __sdk_start;
_ZN2nn3web38ShowApplicationLegalInformationPageArgC1ERKNS_13ApplicationIdEPKc = 0x00000000003b31f0 + __sdk_start;
_ZNKSt3__115__codecvt_utf16IDiLb0EE16do_always_noconvEv = 0x0000000000489dd8 + __sdk_start;
casinhf = 0x00000000004cc9c8 + __sdk_start;
_ZN2nn4nifm15FinalizeForTestEv = 0x00000000003187a0 + __sdk_start;
_ZN2nn2vi17SetRelayProxyNameEPKc = 0x00000000003a4a30 + __sdk_start;
getFDindex = 0x00000000001a5d80 + __sdk_start;
_ZTIN2nn3hid18VibrationConverterE = 0x0000000000bd6c48 + __sdk_start;
_ZN2nn6crypto6detail9GhashImpl22SwitchMessageSizeDigitEv = 0x0000000000178fa0 + __sdk_start;
_ZN2nn6applet15PushToInChannelENS0_19LibraryAppletHandleENS0_13StorageHandleE = 0x000000000007c2b0 + __sdk_start;
_ZN2nn9bluetooth21HidGetReportEventInfoEPNS0_12HidEventTypeEPht = 0x00000000000cafa0 + __sdk_start;
_ZN2nn2sf4cmif6client34CmifDomainProxyClientCoreProcessorINS0_4hipc6client38Hipc2ClientSessionManagedProxyKindBaseINS5_18Hipc2ProxyKindBaseILNS4_6detail11MessageTypeE6EEEEENS1_6detail14CoreMethodInfoINSt3__15tupleIJNSC_18BufferArgumentInfoILi0ELi22ELm1040EEENSC_18OutRawArgumentInfoILm4ELm4ELl0EEEEEELm0ELm4ELb0EEESK_E7ProcessEPNS2_23CmifDomainClientMessageISB_E15ProxyBaseObjectENS2_24BufferClientArgumentTypeENS2_24OutRawClientArgumentTypeILm4ELm4EEEj = 0x0000000000316270 + __sdk_start;
_ZN7android21SurfaceComposerClient15setActiveConfigERKNS_2spINS_7IBinderEEEi = 0x000000000002b980 + __sdk_start;
_ZN2nn2ec4json7adaptor37ConsumableServiceItemRightDataAdaptor11MakeEndPathEPcm = 0x00000000001925f0 + __sdk_start;
_ZN2nn3mii11AppletInput10InitializeENS0_10AppletModeEi = 0x00000000002f7840 + __sdk_start;
_ZN2nn3ssl14BuiltInManager28GetBuiltInCertificateBufSizeEPjPNS0_15CaCertificateIdEj = 0x000000000037ae80 + __sdk_start;
_ZN2nn4time38GetEphemeralNetworkClockOperationEventEPNS_2os11SystemEventE = 0x0000000000384070 + __sdk_start;
_ZThn16_N2nn2sf4cmif6client6detail13CmifProxyImplINS_3ntc6detail7service14IStaticServiceENS0_4hipc6client18Hipc2ProxyKindBaseILNS9_6detail11MessageTypeE6EEENS0_30MemoryResourceAllocationPolicyES8_NS3_19ProcessModifierImplINS2_21DefaultProxyFilterTagEEEE17GetCmifBaseObjectEv = 0x000000000038b820 + __sdk_start;
_ZTIN2nn2os6detail22MultiWaitHolderOfEventE = 0x0000000000bdf6d0 + __sdk_start;
_ZN2nn2sf4cmif6client6detail13CmifProxyImplINS_2am7service15IAppletAccessorENS0_4hipc6client18Hipc2ProxyKindBaseILNS8_6detail11MessageTypeE6EEENS0_30MemoryResourceAllocationPolicyENS6_22ILibraryAppletAccessorENS3_19ProcessModifierImplINS2_21DefaultProxyFilterTagEEEE38_nn_sf_sync_GetIntegratedAppletPointerENS0_3OutINSt3__110shared_ptrINS6_16IntegratedAppletEEEvEE = 0x000000000006ed70 + __sdk_start;
nncodecLibopus_silk_LPC_analysis_filter = 0x00000000000f1a70 + __sdk_start;
__rawmemchr = 0x00000000004cb6f0 + __sdk_start;
casinhl = 0x00000000004cc9f8 + __sdk_start;
_ZNK2nn4util10StringPool14GetStringCountEv = 0x0000000000398df0 + __sdk_start;
_ZN2nn2sf4cmif6server22CmifDomainServerObject23CmifDomainServerMessage27BeginPreparingForErrorReplyEPNS0_6detail14PointerAndSizeEm = 0x0000000000359f50 + __sdk_start;
_ZN2nn2fs15InvalidateCacheENS0_10FileHandleEll = 0x00000000001f1700 + __sdk_start;
FDKsin = 0x0000000000171260 + __sdk_start;
_ZN2nn4pctl18PairingAccountInfoC1Ev = 0x0000000000332380 + __sdk_start;
_ZNK7android5Fence16getFlattenedSizeEv = 0x000000000002e070 + __sdk_start;
_ZN2nn5codec11OpusEncoderC2Ev = 0x000000000011e4b0 + __sdk_start;
_ZZN2nn2sf40SimpleAllInOneHipcSubDomainClientManagerILm16EE27InitializeShimLibraryHolderINS_3mii6detail14IStaticServiceENS0_4cmif6client6detail19ProcessModifierImplINS8_21DefaultProxyFilterTagEEEEENS_6ResultEPNS0_23ShimLibraryObjectHolderIT_EEPKcPNS_14MemoryResourceEENUlPvE_8__invokeESM_ = 0x00000000002f6820 + __sdk_start;
_ZTVN2nn2sf6detail38ObjectImplFactoryWithStatefulAllocatorINS0_4cmif6client6detail9CmifProxyINS_3mii6detail21IImageDatabaseServiceENS0_4hipc6client18Hipc2ProxyKindBaseILNSA_6detail11MessageTypeE6EEENS0_30MemoryResourceAllocationPolicyENS5_19ProcessModifierImplINS4_21DefaultProxyFilterTagEEEvEESG_E6ObjectE = 0x0000000000bdc770 + __sdk_start;
_ZN2nn3ssl7ContextC2Ev = 0x00000000003784e0 + __sdk_start;
_ZN2nn2fs23GetAndClearMmcErrorInfoEPNS0_16StorageErrorInfoEPmPcm = 0x0000000000210a70 + __sdk_start;
_ZTIN2nn2sf4cmif6client6detail13CmifProxyImplINS_2am7service15IDebugFunctionsENS0_4hipc6client18Hipc2ProxyKindBaseILNS8_6detail11MessageTypeE6EEENS0_30MemoryResourceAllocationPolicyES7_NS3_19ProcessModifierImplINS2_21DefaultProxyFilterTagEEEEE = 0x0000000000bc86d0 + __sdk_start;
_ZN2nn3hid6detail23GetUniquePadDriverStateEPNS1_14PadDriverStateERKNS0_6system11UniquePadIdE = 0x0000000000241470 + __sdk_start;
_ZN2nn3hid24SendKeyboardLockKeyEventENS_4util10BitFlagSetILi32ENS0_20KeyboardLockKeyEventEEE = 0x00000000002451e0 + __sdk_start;
_ZN2nn2sf4cmif6client6detail13CmifProxyImplINS_3hid10IHidServerENS0_4hipc6client18Hipc2ProxyKindBaseILNS7_6detail11MessageTypeE6EEENS0_25StatelessAllocationPolicyINS0_22ExpHeapStaticAllocatorILm16384ENS5_6detail9HidServerEEEEES6_NS3_19ProcessModifierImplINS2_21DefaultProxyFilterTagEEEE41_nn_sf_sync_GetNpadLeftRightInterfaceTypeENS0_3OutIhvEESO_j = 0x0000000000255700 + __sdk_start;
NvOsSharedMemUnmap = 0x00000000003c4880 + __sdk_start;
_ZN2nn2fs6detail8RegisterEONSt3__110unique_ptrINS1_18FileSystemAccessorENS2_14default_deleteIS4_EEEE = 0x00000000001f4870 + __sdk_start;
_ZN2nn2sf4cmif6client34CmifDomainProxyClientCoreProcessorINS0_4hipc6client38Hipc2ClientSessionManagedProxyKindBaseINS5_18Hipc2ProxyKindBaseILNS4_6detail11MessageTypeE6EEEEENS1_6detail14CoreMethodInfoINSt3__15tupleIJNSC_18BufferArgumentInfoILi0ELi6ELm0EEENSC_17InRawArgumentInfoILm1ELm1ELl0EEENSI_ILm8ELm8ELl8EEEEEELm16ELm0ELb0EEESL_E7ProcessEPNS2_23CmifDomainClientMessageISB_E15ProxyBaseObjectENS2_24BufferClientArgumentTypeENS2_23InRawClientArgumentTypeILm1ELm1EvEENST_ILm8ELm8EvEEj = 0x0000000000200be0 + __sdk_start;
_ZN2nn2sf4cmif6client6detail13CmifProxyImplINS_8settings21ISystemSettingsServerENS0_4hipc6client18Hipc2ProxyKindBaseILNS7_6detail11MessageTypeE6EEENS0_30MemoryResourceAllocationPolicyES6_NS3_19ProcessModifierImplINS2_21DefaultProxyFilterTagEEEE54_nn_sf_sync_GetConsoleSixAxisSensorAngularAccelerationENS0_3OutINS5_6system39ConsoleSixAxisSensorAngularAccelerationEvEE = 0x0000000000342c20 + __sdk_start;
__absvti2 = 0x00000000004fc7e0 + __sdk_start;
_ZN2nn2sf4cmif6client6detail13CmifProxyImplINS_2am7service15ISelfControllerENS0_4hipc6client18Hipc2ProxyKindBaseILNS8_6detail11MessageTypeE6EEENS0_30MemoryResourceAllocationPolicyES7_NS3_19ProcessModifierImplINS2_21DefaultProxyFilterTagEEEE43_nn_sf_sync_GetLibraryAppletLaunchableEventENS0_3OutINS0_12NativeHandleEvEE = 0x0000000000069f40 + __sdk_start;
_ZN2nn2sf4cmif6client6detail13CmifProxyImplINS_2am7service18ICommonStateGetterENS2_19CmifDomainProxyKindINS0_4hipc6client38Hipc2ClientSessionManagedProxyKindBaseINSA_18Hipc2ProxyKindBaseILNS9_6detail11MessageTypeE6EEEEEEENS0_30MemoryResourceAllocationPolicyES7_NS3_19ProcessModifierImplINS2_21DefaultProxyFilterTagEEEE23_nn_sf_sync_GetBootModeENS0_3OutIhvEE = 0x0000000000057150 + __sdk_start;
_ZN2nn2sf4hipc6client24Hipc2ClientCoreProcessorILNS1_6detail11MessageTypeE6ENS0_4cmif6detail14CoreMethodInfoINSt3__15tupleIJNS7_17InRawArgumentInfoILm8ELm8ELl0EEENSB_ILm128ELm8ELl8EEEEEELm136ELm0ELb0EEESE_E7ProcessEPNS2_26Hipc2ClientProxyBaseObjectENS6_6client23InRawClientArgumentTypeILm8ELm8EvEENSK_ILm128ELm8EvEEj = 0x0000000000077480 + __sdk_start;
_ZN2nn2sf4cmif6client6detail13CmifProxyImplINS_3hid15IHidDebugServerENS0_4hipc6client18Hipc2ProxyKindBaseILNS7_6detail11MessageTypeE6EEENS0_25StatelessAllocationPolicyINS0_22ExpHeapStaticAllocatorILm16384ENS5_6detail14HidDebugServerEEEEES6_NS3_19ProcessModifierImplINS2_21DefaultProxyFilterTagEEEE52_nn_sf_sync_GetConsoleSixAxisSensorSamplingFrequencyENS0_3OutIlvEENS_6applet20AppletResourceUserIdE = 0x0000000000251d30 + __sdk_start;
_ZN2nn2fs26WriteSaveDataThumbnailFileEmNS0_6UserIdEPKvmS3_m = 0x0000000000219d70 + __sdk_start;
_ZTVN2nn5audio6server10EffectInfoILNS0_10EffectTypeE3ENS0_14DelayParameterEEE = 0x0000000000bcd488 + __sdk_start;
_ZN2nn2sf4hipc6client24Hipc2ClientCoreProcessorILNS1_6detail11MessageTypeE6ENS0_4cmif6detail14CoreMethodInfoINSt3__15tupleIJNS7_18OutRawArgumentInfoILm64ELm1ELl0EEEEEELm0ELm64ELb0EEESD_E7ProcessEPNS2_26Hipc2ClientProxyBaseObjectENS6_6client24OutRawClientArgumentTypeILm64ELm1EEEj = 0x0000000000343250 + __sdk_start;
_ZTIN2nn3ssl6detail10SslApiBaseE = 0x0000000000be3b70 + __sdk_start;
_ZN2nn3hid5debug12FinalizeHdlsEv = 0x0000000000244650 + __sdk_start;
_ZNKSt3__15ctypeIcE10do_tolowerEPcPKc = 0x0000000000485980 + __sdk_start;
__extendhfsf2 = 0x00000000004ff0d8 + __sdk_start;
stderr = 0x0000000000bf2558 + __sdk_start;
_ZN2nn5audio34GetAudioRendererRenderingTimeLimitENS0_19AudioRendererHandleE = 0x000000000008fef0 + __sdk_start;
_ZN2nn5audio20AppendAudioOutBufferEPNS0_8AudioOutEPNS0_14AudioOutBufferE = 0x0000000000097bf0 + __sdk_start;
_ZN2nn3hid6detail16ReadPalmaPlayLogERKNS0_21PalmaConnectionHandleERKt = 0x0000000000238b90 + __sdk_start;
NvOsTlsAlloc = 0x00000000003c3670 + __sdk_start;
_ZTVNSt3__18numpunctIcEE = 0x0000000000becac8 + __sdk_start;
_ZN2nn6crypto6detail6BigNum7SubMultEPjPKjjS5_i = 0x0000000000173cc0 + __sdk_start;
nnsocketConnect = 0x0000000000360b40 + __sdk_start;
_ZN2nn5prepo16SystemPlayReport3AddEPKcRKNS0_10Any64BitIdE = 0x000000000033aa00 + __sdk_start;
_ZN2nn2sf4cmif6client6detail13CmifProxyImplINS_3hid16IHidSystemServerENS0_4hipc6client18Hipc2ProxyKindBaseILNS7_6detail11MessageTypeE6EEENS0_25StatelessAllocationPolicyINS0_22ExpHeapStaticAllocatorILm16384ENS5_6detail15HidSystemServerEEEEES6_NS3_19ProcessModifierImplINS2_21DefaultProxyFilterTagEEEE59_nn_sf_sync_IsSixAxisSensorAccurateUserCalibrationSupportedENS0_3OutIbvEENS5_6system25UniqueSixAxisSensorHandleENS_6applet20AppletResourceUserIdE = 0x0000000000259450 + __sdk_start;
_ZN2nn8irsensor32GetPointingProcessorMarkerStatesEPNS0_28PointingProcessorMarkerStateEPiiRKNS0_14IrCameraHandleE = 0x000000000029d880 + __sdk_start;
_ZN2nn2sf6detail38ObjectImplFactoryWithStatefulAllocatorINS0_4cmif6client6detail9CmifProxyINS_3apm8ISessionENS0_4hipc6client18Hipc2ProxyKindBaseILNS9_6detail11MessageTypeE6EEENS0_30MemoryResourceAllocationPolicyENS5_19ProcessModifierImplINS4_21DefaultProxyFilterTagEEEvEESF_E6Object12AddReferenceEv = 0x0000000000079fe0 + __sdk_start;
_ZN2nn5audio6server11InfoUpdater11UpdateMixesERNS1_10MixContextEiRKNS1_13EffectContextERKNS1_15SplitterContextE = 0x00000000000a63a0 + __sdk_start;
_ZN2nn3hid19GetTouchScreenStateILm4EEEvPNS0_16TouchScreenStateIXT_EEE = 0x000000000024a2b0 + __sdk_start;
_ZN2nn2fs6detail30FileSystemServiceObjectAdapterD1Ev = 0x000000000020bca0 + __sdk_start;
_ZN2nn2sm15RegisterServiceEPNS_3svc6HandleEPKcmib = 0x000000000035f3d0 + __sdk_start;
_ZN2nn2sf4cmif6client6detail13CmifProxyImplINS_8settings21ISystemSettingsServerENS0_4hipc6client18Hipc2ProxyKindBaseILNS7_6detail11MessageTypeE6EEENS0_30MemoryResourceAllocationPolicyES6_NS3_19ProcessModifierImplINS2_21DefaultProxyFilterTagEEEE34_nn_sf_sync_SetUsb30HostEnableFlagEb = 0x0000000000342e20 + __sdk_start;
_ZN2nn2sf4cmif6client6detail13CmifProxyImplINS_8settings21ISystemSettingsServerENS0_4hipc6client18Hipc2ProxyKindBaseILNS7_6detail11MessageTypeE6EEENS0_30MemoryResourceAllocationPolicyES6_NS3_19ProcessModifierImplINS2_21DefaultProxyFilterTagEEEE48_nn_sf_sync_AcquireTelemetryDirtyFlagEventHandleENS0_3OutINS0_12NativeHandleEvEE = 0x0000000000342290 + __sdk_start;
_ZN2nn2sf4cmif6client6detail13CmifProxyImplINS_5visrv2sf22IManagerDisplayServiceENS0_4hipc6client18Hipc2ProxyKindBaseILNS8_6detail11MessageTypeE6EEENS0_30MemoryResourceAllocationPolicyES7_NS3_19ProcessModifierImplINS2_21DefaultProxyFilterTagEEEE59_nn_sf_sync_PresentDetachedSharedFrameBufferToLowLevelLayerENS_2vi7fbshare18SharedBufferHandleEml = 0x00000000003a7a20 + __sdk_start;
_ZN2nn2vi6detail17IndirectLayerImpl25RegisterIndirectLayerImplEPPNS0_13IndirectLayerEmPvmPNS1_18IndirectLayerTableE = 0x00000000003aee80 + __sdk_start;
__fixsfdi = 0x00000000004ff300 + __sdk_start;
_ZTIN2nn2os6detail36MultiWaitHolderOfMessageQueueNotFullE = 0x0000000000bdf830 + __sdk_start;
_ZN2nn5codec28FDKhybridAnalysisScaleStatesEPNS0_18FDK_ANA_HYB_FILTEREi = 0x0000000000139bd0 + __sdk_start;
_ZN2nn2sf4cmif6client6detail13CmifProxyImplINS_5visrv2sf21ISystemDisplayServiceENS0_4hipc6client18Hipc2ProxyKindBaseILNS8_6detail11MessageTypeE6EEENS0_30MemoryResourceAllocationPolicyES7_NS3_19ProcessModifierImplINS2_21DefaultProxyFilterTagEEEE29_nn_sf_sync_GetZOrderCountMaxENS0_3OutIlvEEm = 0x00000000003a57e0 + __sdk_start;
_ZN2nn4lmem17GetFrameHeapStateEPNS0_6detail8HeapHeadE = 0x00000000002bbba0 + __sdk_start;
_ZN2nn2sf4cmif6client6detail13CmifProxyImplINS_7friends6detail3ipc14IFriendServiceENS2_19CmifDomainProxyKindINS0_4hipc6client38Hipc2ClientSessionManagedProxyKindBaseINSB_18Hipc2ProxyKindBaseILNSA_6detail11MessageTypeE6EEEEEEENS0_30MemoryResourceAllocationPolicyES8_NS3_19ProcessModifierImplINS2_21DefaultProxyFilterTagEEEE23_nn_sf_sync_UnblockUserERKNS_7account3UidENSO_23NetworkServiceAccountIdE = 0x00000000001dfae0 + __sdk_start;
_ZN2nn2la27AppletToNifmArgumentsReaderD1Ev = 0x00000000002b4fc0 + __sdk_start;
_ZN2nn2sf4cmif6client6detail13CmifProxyImplINS_4pctl6detail3ipc23IParentalControlServiceENS2_19CmifDomainProxyKindINS0_4hipc6client38Hipc2ClientSessionManagedProxyKindBaseINSB_18Hipc2ProxyKindBaseILNSA_6detail11MessageTypeE6EEEEEEENS0_30MemoryResourceAllocationPolicyES8_NS3_19ProcessModifierImplINS2_21DefaultProxyFilterTagEEEE22_nn_sf_sync_InitializeEv = 0x0000000000333920 + __sdk_start;
_ZThn8_N7android23BnSurfaceComposerClient17onGetNativeHandleEjRjRb = 0x00000000000244c0 + __sdk_start;
NvRmChannelFreeClientManagedSyncPoint = 0x00000000003d4760 + __sdk_start;
_ZN2nn2sf4cmif6client6detail13CmifProxyImplINS_4bcat6detail3ipc30IDeliveryCacheDirectoryServiceENS2_19CmifDomainProxyKindINS0_4hipc6client38Hipc2ClientSessionManagedProxyKindBaseINSB_18Hipc2ProxyKindBaseILNSA_6detail11MessageTypeE6EEEEEEENS0_30MemoryResourceAllocationPolicyES8_NS3_19ProcessModifierImplINS2_21DefaultProxyFilterTagEEEE20_nn_sf_sync_GetCountENS0_3OutIivEE = 0x00000000000c4d00 + __sdk_start;
_ZN2nn2sf6detail38ObjectImplFactoryWithStatefulAllocatorINS0_4cmif6client6detail9CmifProxyINS_7friends6detail3ipc15IServiceCreatorENS4_19CmifDomainProxyKindINS0_4hipc6client38Hipc2ClientSessionManagedProxyKindBaseINSD_18Hipc2ProxyKindBaseILNSC_6detail11MessageTypeE6EEEEEEENS0_30MemoryResourceAllocationPolicyENS5_19ProcessModifierImplINS4_21DefaultProxyFilterTagEEEvEESL_E6Object7ReleaseEv = 0x00000000001deb50 + __sdk_start;
_ZN2nn5prepo16SystemPlayReport3AddEPKcPKvm = 0x000000000033aad0 + __sdk_start;
_ZN2nn3hid5debug21SetXpadAutoPilotStateERKNS0_11BasicXpadIdERKNS1_23BasicXpadAutoPilotStateE = 0x000000000024e4a0 + __sdk_start;
_ZN2nn2sf4cmif6client6detail13CmifProxyImplINS_3hid16IHidSystemServerENS0_4hipc6client18Hipc2ProxyKindBaseILNS7_6detail11MessageTypeE6EEENS0_30MemoryResourceAllocationPolicyES6_NS3_19ProcessModifierImplINS2_21DefaultProxyFilterTagEEEE38_nn_sf_sync_IsAnalogStickButtonPressedENS0_3OutIbvEENS5_6system11UniquePadIdEl = 0x000000000025ee90 + __sdk_start;
_ZN2nn2os18SetMemoryAttributeEmmNS0_15MemoryAttributeE = 0x0000000000328130 + __sdk_start;
_ZN2nn3mii6detail11GetDeviceIdEPNS1_8DeviceIdE = 0x00000000002e8360 + __sdk_start;
_ZTIN2nn2sf4cmif6client6detail13CmifProxyImplINS_7account4baas12IManagerBaseENS2_19CmifDomainProxyKindINS0_4hipc6client38Hipc2ClientSessionManagedProxyKindBaseINSA_18Hipc2ProxyKindBaseILNS9_6detail11MessageTypeE6EEEEEEENS0_25StatelessAllocationPolicyINS0_22ExpHeapStaticAllocatorILm2048ENS5_6detail12ObjectHolder24ObjectHolderAllocatorTagEEEEENS6_22IManagerForApplicationENS3_19ProcessModifierImplINS2_21DefaultProxyFilterTagEEEEE = 0x0000000000bbdb10 + __sdk_start;
_ZN2nn7account12AsyncContextD2Ev = 0x0000000000048720 + __sdk_start;
_ZN2nn7account31NintendoAccountLinkageProcedure31IsNetworkServiceAccountReplacedEPb = 0x000000000004d2b0 + __sdk_start;
_ZN2nn2sf4cmif6client6detail13CmifProxyImplINS_2am7service31ISystemAppletControllerForDebugENS0_4hipc6client18Hipc2ProxyKindBaseILNS8_6detail11MessageTypeE6EEENS0_30MemoryResourceAllocationPolicyES7_NS3_19ProcessModifierImplINS2_21DefaultProxyFilterTagEEEE33_nn_sf_sync_CreateStorageForDebugENS0_3OutINS0_13SharedPointerINS6_8IStorageEEEvEEl = 0x0000000000077f80 + __sdk_start;
_ZN2nn2sf4hipc6client24Hipc2ClientCoreProcessorILNS1_6detail11MessageTypeE6ENS0_4cmif6detail14CoreMethodInfoINSt3__15tupleIJEEELm0ELm0ELb0EEESB_E7ProcessEPNS2_26Hipc2ClientProxyBaseObjectEj = 0x0000000000069040 + __sdk_start;
_ZN2nn8settings6system21SetBlePairingSettingsEPKNS1_18BlePairingSettingsEi = 0x00000000003465c0 + __sdk_start;
_ZN2nn3hid6system41BindPlayReportRegisteredDeviceUpdateEventEPNS_2os15SystemEventTypeENS2_14EventClearModeE = 0x0000000000249200 + __sdk_start;
_ZTVSt15underflow_error = 0x0000000000bf1598 + __sdk_start;
_ZTIN2nn2sf4cmif6client6detail13CmifProxyImplINS_4bcat6detail3ipc30IDeliveryCacheDirectoryServiceENS2_19CmifDomainProxyKindINS0_4hipc6client38Hipc2ClientSessionManagedProxyKindBaseINSB_18Hipc2ProxyKindBaseILNSA_6detail11MessageTypeE6EEEEEEENS0_30MemoryResourceAllocationPolicyES8_NS3_19ProcessModifierImplINS2_21DefaultProxyFilterTagEEEEE = 0x0000000000bce260 + __sdk_start;
_ZNK2nn3mii12AppletOutput22GetAppendMiiImageIndexEv = 0x00000000002f7c60 + __sdk_start;
_ZN2nn2sf4cmif6client6detail13CmifProxyImplINS_8settings21ISystemSettingsServerENS0_4hipc6client18Hipc2ProxyKindBaseILNS7_6detail11MessageTypeE6EEENS0_30MemoryResourceAllocationPolicyES6_NS3_19ProcessModifierImplINS2_21DefaultProxyFilterTagEEEE41_nn_sf_sync_SetDeviceTimeZoneLocationNameERKNS_4time12LocationNameE = 0x0000000000341e70 + __sdk_start;
_ZN2nn2sf4cmif6client6detail13CmifProxyImplINS_8settings21ISystemSettingsServerENS0_4hipc6client18Hipc2ProxyKindBaseILNS7_6detail11MessageTypeE6EEENS0_30MemoryResourceAllocationPolicyES6_NS3_19ProcessModifierImplINS2_21DefaultProxyFilterTagEEEE51_nn_sf_sync_GetConsoleSixAxisSensorAccelerationGainENS0_3OutINS5_6system36ConsoleSixAxisSensorAccelerationGainEvEE = 0x00000000003429e0 + __sdk_start;
_ZN2nn3jit20CreateJitEnvironmentEPNS0_9JitHandleERKNS0_27JitEnvironmentConfigurationERKNS0_13JitPluginInfoEPvm = 0x00000000002b3420 + __sdk_start;
varmul_64 = 0x00000000001b1600 + __sdk_start;
_ZN2nn3hid6detail17StopSixAxisSensorERKNS0_26ConsoleSixAxisSensorHandleE = 0x000000000022c430 + __sdk_start;
nnutilZlib_deflateParams = 0x000000000038da10 + __sdk_start;
_ZN2nn5audio6server14DeviceSinkInfoC1Ev = 0x00000000000aaa90 + __sdk_start;
_ZNK2nn5codec11OpusDecoder13GetSampleRateEv = 0x000000000011e250 + __sdk_start;
iswspace_l = 0x00000000004d7488 + __sdk_start;
_ZN2nn2sf4cmif6client34CmifDomainProxyClientCoreProcessorINS0_4hipc6client38Hipc2ClientSessionManagedProxyKindBaseINS5_18Hipc2ProxyKindBaseILNS4_6detail11MessageTypeE6EEEEENS1_6detail14CoreMethodInfoINSt3__15tupleIJNSC_18OutRawArgumentInfoILm8ELm8ELl0EEENSC_18BufferArgumentInfoILi0ELi5ELm0EEEEEELm0ELm8ELb0EEESK_E7ProcessEPNS2_23CmifDomainClientMessageISB_E15ProxyBaseObjectENS2_24OutRawClientArgumentTypeILm8ELm8EEENS2_24BufferClientArgumentTypeEj = 0x0000000000057d50 + __sdk_start;
nncodecLibopus_opus_strerror = 0x00000000000dc470 + __sdk_start;
_ZN2nn3hid19GetXpadPlayerNumberERKNS0_11BasicXpadIdE = 0x000000000024e300 + __sdk_start;
_ZN2nn2sf4cmif6client6detail13CmifProxyImplINS_3hid16IHidSystemServerENS0_4hipc6client18Hipc2ProxyKindBaseILNS7_6detail11MessageTypeE6EEENS0_25StatelessAllocationPolicyINS0_22ExpHeapStaticAllocatorILm16384ENS5_6detail15HidSystemServerEEEEES6_NS3_19ProcessModifierImplINS2_21DefaultProxyFilterTagEEEE47_nn_sf_sync_ResetSixAxisSensorCalibrationValuesENS5_6system25UniqueSixAxisSensorHandleE = 0x0000000000258f20 + __sdk_start;
_ZN2nn2sf13InterfaceInfoINS0_4hipc6detail12IHipcManagerEE4_tABINS5_5_tO2NINS2_6server34HipcServerSessionManagerWithDomain15HipcManagerImplEE4typeES4_E4type33_nn_sf_sync_CopyFromCurrentDomainENS0_3OutINS0_12NativeHandleEvEENS0_4cmif18CmifDomainObjectIdE = 0x000000000035c730 + __sdk_start;
_ZN2nn2sf4hipc6client24Hipc2ClientCoreProcessorILNS1_6detail11MessageTypeE6ENS0_4cmif6detail14CoreMethodInfoINSt3__15tupleIJNS7_17InRawArgumentInfoILm8ELm4ELl0EEENSB_ILm4ELm4ELl8EEEEEELm12ELm0ELb0EEESE_E7ProcessEPNS2_26Hipc2ClientProxyBaseObjectENS6_6client23InRawClientArgumentTypeILm8ELm4EvEENSK_ILm4ELm4EvEEj = 0x00000000003439c0 + __sdk_start;
_ZN2nn2sf4cmif6client6detail13CmifProxyImplINS_3hid16IHidSystemServerENS0_4hipc6client18Hipc2ProxyKindBaseILNS7_6detail11MessageTypeE6EEENS0_30MemoryResourceAllocationPolicyES6_NS3_19ProcessModifierImplINS2_21DefaultProxyFilterTagEEEE42_nn_sf_sync_GetMaskedSupportedNpadStyleSetENS0_3OutINS_4util10BitFlagSetILi32ENS5_12NpadStyleTagEEEvEENS_6applet20AppletResourceUserIdE = 0x000000000025e6f0 + __sdk_start;
_ZNSt3__18ios_base4swapERS0_ = 0x0000000000452b20 + __sdk_start;
_ZN2nn4edid6detail23GetEstablishedTimingIIIEPFbPKNS0_15DisplayModeInfoEPKNS0_17DisplayTimingInfoEPKNS0_13ImageSizeInfoEPvESB_h = 0x0000000000193870 + __sdk_start;
_ZN2nn5album17ConvertAlbumEntry14ConvertToAlbumERKNS_6capsrv21ApplicationAlbumEntryE = 0x000000000004efd0 + __sdk_start;
_ZN2nn3ngc6detail2Bp5ResetEv = 0x000000000030ae20 + __sdk_start;
_ZN2nn3ngc6detail16NullOutputStreamD0Ev = 0x000000000030d580 + __sdk_start;
_ZN2nn2sf6detail39ObjectImplFactoryWithStatelessAllocatorINS0_4cmif6client6detail9CmifProxyINS_7account6detail13IAsyncContextENS4_19CmifDomainProxyKindINS0_4hipc6client38Hipc2ClientSessionManagedProxyKindBaseINSC_18Hipc2ProxyKindBaseILNSB_6detail11MessageTypeE6EEEEEEENS0_25StatelessAllocationPolicyINS0_22ExpHeapStaticAllocatorILm2048ENS8_12ObjectHolder24ObjectHolderAllocatorTagEEEEENS5_19ProcessModifierImplINS4_21DefaultProxyFilterTagEEEvEESP_E6Object7ReleaseEv = 0x0000000000040050 + __sdk_start;
_ZN2nn4htcs12GetLastErrorEv = 0x000000000026a260 + __sdk_start;
_ZN2nn4pctl45ClearFreeCommunicationApplicationListForDebugEv = 0x0000000000331110 + __sdk_start;
_ZTIN2nn2sf4cmif6client6detail13CmifProxyImplINS_6jitsrv15IJitEnvironmentENS0_4hipc6client18Hipc2ProxyKindBaseILNS7_6detail11MessageTypeE6EEENS0_30MemoryResourceAllocationPolicyES6_NS3_19ProcessModifierImplINS2_21DefaultProxyFilterTagEEEEE = 0x0000000000bda330 + __sdk_start;
_ZN2nn3hid6system25FinalizeUsbFirmwareUpdateEv = 0x00000000002443b0 + __sdk_start;
_ZN2nn5image6detail4jpeg14jpeg_std_errorEPNS2_14jpeg_error_mgrE = 0x0000000000288a80 + __sdk_start;
_ZN2nn4lmem27GetFrameHeapAllocatableSizeEPNS0_6detail8HeapHeadEi = 0x00000000002bbb40 + __sdk_start;
_ZN2nn3nfc6client19CreateUserInterfaceEv = 0x00000000002f9fe0 + __sdk_start;
_ZN2nn5swkbd6detail18InlineKeyboardImplD1Ev = 0x0000000000380bf0 + __sdk_start;
_ZN2nn3hid6detail7SessionD0Ev = 0x00000000002396b0 + __sdk_start;
NvOsSetFpsTarget = 0x00000000003c4900 + __sdk_start;
_ZThn16_N2nn2sf4cmif6client6detail13CmifProxyImplINS_4npns9INpnsUserENS0_4hipc6client18Hipc2ProxyKindBaseILNS7_6detail11MessageTypeE6EEENS0_30MemoryResourceAllocationPolicyES6_NS3_19ProcessModifierImplINS2_21DefaultProxyFilterTagEEEE17GetCmifBaseObjectEv = 0x000000000031c8a0 + __sdk_start;
_ZN2nn2fs24HierarchicalRomFileTable24ConvertPathToDirectoryIdEPiPKc = 0x00000000001e75c0 + __sdk_start;
_ZTVN2nn5audio6server7AuxInfoE = 0x0000000000bcd818 + __sdk_start;
NvOsGetConfigString = 0x00000000003bc7b0 + __sdk_start;
_ZN7android21SurfaceComposerClient17setConductorLayerERKNS_2spINS_7IBinderEEEb = 0x000000000002aa60 + __sdk_start;
_ZN2nn4util16BinaryFileHeader18SetRelocationTableEPNS0_15RelocationTableE = 0x0000000000398810 + __sdk_start;
_ZN2nn2sf4cmif6client6detail13CmifProxyImplINS_2am7service25IProcessWindingControllerENS2_19CmifDomainProxyKindINS0_4hipc6client38Hipc2ClientSessionManagedProxyKindBaseINSA_18Hipc2ProxyKindBaseILNS9_6detail11MessageTypeE6EEEEEEENS0_30MemoryResourceAllocationPolicyES7_NS3_19ProcessModifierImplINS2_21DefaultProxyFilterTagEEEE17GetCmifBaseObjectEv = 0x000000000005c850 + __sdk_start;
nnsslInitializeWithConcurrencyLimit = 0x000000000037af60 + __sdk_start;
_ZN2nn2sf4cmif6client6detail13CmifProxyImplINS_7timesrv6detail7service14IStaticServiceENS2_19CmifDomainProxyKindINS0_4hipc6client38Hipc2ClientSessionManagedProxyKindBaseINSB_18Hipc2ProxyKindBaseILNSA_6detail11MessageTypeE6EEEEEEENS0_30MemoryResourceAllocationPolicyES8_NS3_19ProcessModifierImplINS2_21DefaultProxyFilterTagEEEE42_nn_sf_sync_GetEphemeralNetworkSystemClockENS0_3OutINS0_13SharedPointerINS7_12ISystemClockEEEvEE = 0x0000000000388190 + __sdk_start;
_ZN2nn3hid6system21GetUniquePadsFromNpadEPNS1_11UniquePadIdEiRKj = 0x0000000000247950 + __sdk_start;
_ZN2nn2sf4cmif6client6detail13CmifProxyImplINS_3hid10IHidServerENS0_4hipc6client18Hipc2ProxyKindBaseILNS7_6detail11MessageTypeE6EEENS0_25StatelessAllocationPolicyINS0_22ExpHeapStaticAllocatorILm16384ENS5_6detail9HidServerEEEEES6_NS3_19ProcessModifierImplINS2_21DefaultProxyFilterTagEEEE39_nn_sf_sync_ReadPalmaApplicationSectionENS5_21PalmaConnectionHandleEmm = 0x0000000000255880 + __sdk_start;
_ZN7android15BufferQueueCoreC2ERKNS_2spINS_19IGraphicBufferAllocEEE = 0x0000000000016740 + __sdk_start;
_ZN2nn2fs24HierarchicalRomFileTable12FindNextFileEPcPNS1_12FindPositionEm = 0x00000000001e8410 + __sdk_start;
_ZNK2nn2sf13SharedPointerINS_3mii6detail16IDatabaseServiceEE19FunctionForBoolTypeEv = 0x00000000002f3300 + __sdk_start;
_ZNSt3__113basic_istreamIwNS_11char_traitsIwEEE5ungetEv = 0x0000000000458d68 + __sdk_start;
scalbf = 0x00000000004e3688 + __sdk_start;
nnmem_nlib_wcscpy = 0x00000000002c1810 + __sdk_start;
_ZN2nn3ngc6detail12PlainArray32IjE6ImportEPNS1_12BinaryReaderE = 0x000000000030ec20 + __sdk_start;
_ZN2nn4util17MessagePackWriter40GetRequiredSizeForWriteUnsignedInteger64Em = 0x000000000039a490 + __sdk_start;
_ZN2nn2sf4cmif6client6detail13CmifProxyImplINS_2am7service18ICommonStateGetterENS2_19CmifDomainProxyKindINS0_4hipc6client38Hipc2ClientSessionManagedProxyKindBaseINSA_18Hipc2ProxyKindBaseILNS9_6detail11MessageTypeE6EEEEEEENS0_30MemoryResourceAllocationPolicyES7_NS3_19ProcessModifierImplINS2_21DefaultProxyFilterTagEEEE38_nn_sf_sync_GetOperationModeSystemInfoENS0_3OutIjvEE = 0x00000000000576f0 + __sdk_start;
_ZN2nn9bluetooth24AddLeScanFilterConditionEPKNS0_18BleAdvertiseFilterE = 0x00000000000cb6e0 + __sdk_start;
_ZN2nn5codec39GetOpusMultiStreamDecoderWorkBufferSizeEiiii = 0x000000000011ec70 + __sdk_start;
_ZNK2nn3mii6detail16Ver3StoreDataRaw9GetGenderEv = 0x00000000002ec890 + __sdk_start;
_ZN2nn2sf4cmif6client6detail13CmifProxyImplINS_5visrv2sf22IManagerDisplayServiceENS0_4hipc6client18Hipc2ProxyKindBaseILNS8_6detail11MessageTypeE6EEENS0_30MemoryResourceAllocationPolicyES7_NS3_19ProcessModifierImplINS2_21DefaultProxyFilterTagEEEE41_nn_sf_sync_DetachLayerPresentationTracerEm = 0x00000000003a7590 + __sdk_start;
_ZN2nn3hid26IsSevenSixAxisSensorAtRestEv = 0x0000000000243ae0 + __sdk_start;
_ZN2nn2sf4cmif6client6detail13CmifProxyImplINS_3hid15IHidDebugServerENS0_4hipc6client18Hipc2ProxyKindBaseILNS7_6detail11MessageTypeE6EEENS0_25StatelessAllocationPolicyINS0_22ExpHeapStaticAllocatorILm16384ENS5_6detail14HidDebugServerEEEEES6_NS3_19ProcessModifierImplINS2_21DefaultProxyFilterTagEEEE39_nn_sf_sync_SetHomeButtonAutoPilotStateENS5_5debug24HomeButtonAutoPilotStateE = 0x0000000000251b30 + __sdk_start;
_ZN7android18BufferItemConsumer13acquireBufferEPNS_22IGraphicBufferConsumer10BufferItemElb = 0x0000000000013c70 + __sdk_start;
_ZN2nn5audio31AppendFinalOutputRecorderBufferEPNS0_19FinalOutputRecorderEPNS0_25FinalOutputRecorderBufferE = 0x0000000000099ed0 + __sdk_start;
_ZN2nn3hid20GetTouchScreenStatesILm14EEEiPNS0_16TouchScreenStateIXT_EEEi = 0x000000000024aba0 + __sdk_start;
_ZN2nn2sf6detail39ObjectImplFactoryWithStatelessAllocatorINS0_4cmif6client6detail9CmifProxyINS_3hid15IHidDebugServerENS0_4hipc6client18Hipc2ProxyKindBaseILNS9_6detail11MessageTypeE6EEENS0_25StatelessAllocationPolicyINS0_22ExpHeapStaticAllocatorILm16384ENS7_6detail14HidDebugServerEEEEENS5_19ProcessModifierImplINS4_21DefaultProxyFilterTagEEEvEESK_E6Object7ReleaseEv = 0x0000000000251850 + __sdk_start;
_ZTISt9bad_alloc = 0x0000000000bf1330 + __sdk_start;
_ZN2nn6socket8resolver3tls10InitializeEv = 0x0000000000373420 + __sdk_start;
_ZN2nn2vi11CreateLayerEPPNS0_5LayerEPNS0_7DisplayEPKNS0_21LayerCreationSettingsE = 0x00000000003addd0 + __sdk_start;
_ZN2nn7account34GetSaveDataThumbnailImageExistenceEPbRKNS0_3UidERKNS_13ApplicationIdE = 0x000000000003d570 + __sdk_start;
_ZTIN2nn2sf4cmif6client6detail9CmifProxyINS_2am7service24IApplicationProxyServiceENS2_19CmifDomainProxyKindINS0_4hipc6client38Hipc2ClientSessionManagedProxyKindBaseINSA_18Hipc2ProxyKindBaseILNS9_6detail11MessageTypeE6EEEEEEENS0_30MemoryResourceAllocationPolicyENS3_19ProcessModifierImplINS2_21DefaultProxyFilterTagEEEvEE = 0x0000000000bc72d0 + __sdk_start;
_ZThn32_N2nn2sf4cmif6client6detail13CmifProxyImplINS_7friends6detail3ipc28IDaemonSuspendSessionServiceENS2_19CmifDomainProxyKindINS0_4hipc6client38Hipc2ClientSessionManagedProxyKindBaseINSB_18Hipc2ProxyKindBaseILNSA_6detail11MessageTypeE6EEEEEEENS0_30MemoryResourceAllocationPolicyES8_NS3_19ProcessModifierImplINS2_21DefaultProxyFilterTagEEEE17GetCmifBaseObjectEv = 0x00000000001e4b80 + __sdk_start;
_ZN2nn3hid6detail26CreateHidSystemServerProxyEPNS_2sf13SharedPointerINS0_16IHidSystemServerEEE = 0x0000000000258380 + __sdk_start;
_ZN2nn3hid6detail42CancelSixAxisSensorAccurateUserCalibrationERKNS0_6system25UniqueSixAxisSensorHandleE = 0x0000000000241370 + __sdk_start;
_ZNSt3__18ios_base6xallocEv = 0x000000000045d950 + __sdk_start;
__nnmusl_WaitThread = 0x0000000000506ee0 + __sdk_start;
_ZN2nn6crypto6detail6BigNum6IsZeroEPKji = 0x0000000000175820 + __sdk_start;
_ZTIN2nn2sf4cmif6client6detail9CmifProxyINS_2am7service16IStorageAccessorENS2_19CmifDomainProxyKindINS0_4hipc6client38Hipc2ClientSessionManagedProxyKindBaseINSA_18Hipc2ProxyKindBaseILNS9_6detail11MessageTypeE6EEEEEEENS0_30MemoryResourceAllocationPolicyENS3_19ProcessModifierImplINS2_21DefaultProxyFilterTagEEEvEE = 0x0000000000bc4750 + __sdk_start;
_ZN2nn2sf4hipc6client24Hipc2ClientCoreProcessorILNS1_6detail11MessageTypeE6ENS0_4cmif6detail14CoreMethodInfoINSt3__15tupleIJNS7_18BufferArgumentInfoILi0ELi6ELm0EEENS7_18OutRawArgumentInfoILm1ELm1ELl0EEENS7_17InRawArgumentInfoILm8ELm8ELl0EEEEEELm8ELm1ELb1EEESH_E7ProcessEPNS2_26Hipc2ClientProxyBaseObjectENS6_6client24BufferClientArgumentTypeENSM_24OutRawClientArgumentTypeILm1ELm1EEENSM_23InRawClientArgumentTypeILm8ELm8EvEEj = 0x00000000000d31d0 + __sdk_start;
_ZN2nn7friends24ResendFacedFriendRequestEPNS0_12AsyncContextERKNS_7account3UidENS3_23NetworkServiceAccountIdE = 0x00000000001d8a70 + __sdk_start;
_ZN2nn2sf4cmif6client6detail13CmifProxyImplINS_8settings21ISystemSettingsServerENS0_4hipc6client18Hipc2ProxyKindBaseILNS7_6detail11MessageTypeE6EEENS0_30MemoryResourceAllocationPolicyES6_NS3_19ProcessModifierImplINS2_21DefaultProxyFilterTagEEEE33_nn_sf_sync_GetBlePairingSettingsENS0_3OutIivEERKNS0_8OutArrayINS5_6system18BlePairingSettingsEEE = 0x0000000000342bb0 + __sdk_start;
_ZN2nn4diag12GetBacktraceEPmimmm = 0x00000000001804c0 + __sdk_start;
_ZN2nn3mii6detail18GetMouthGreenColorENS0_11CommonColorENS0_9GammaTypeE = 0x00000000002e3860 + __sdk_start;
_ZN2nn2sf13SharedPointerINS_7timesrv6detail7service14IStaticServiceEED2Ev = 0x0000000000382cb0 + __sdk_start;
_ZN2nn6socket6SelectEiP6fd_setS2_S2_P7timeval = 0x0000000000360490 + __sdk_start;
nncodecLibopus_ec_encode_bin = 0x00000000000e8e60 + __sdk_start;
_ZNK2nn3err19ApplicationErrorArg15GetLanguageCodeEv = 0x00000000001963f0 + __sdk_start;
_ZN2nn8settings6system13SetNfcEnabledEb = 0x0000000000348760 + __sdk_start;
_ZN2nn3hid6detail15InitializeMouseEv = 0x00000000002321f0 + __sdk_start;
scalbn = 0x00000000004e3798 + __sdk_start;
_ZNSt3__113basic_ostreamIcNS_11char_traitsIcEEE6sentryD1Ev = 0x0000000000459508 + __sdk_start;
_ZN2nn2sf4cmif6client6detail13CmifProxyImplINS_2am7service16IAudioControllerENS0_4hipc6client18Hipc2ProxyKindBaseILNS8_6detail11MessageTypeE6EEENS0_30MemoryResourceAllocationPolicyES7_NS3_19ProcessModifierImplINS2_21DefaultProxyFilterTagEEEE45_nn_sf_sync_GetMainAppletExpectedMasterVolumeENS0_3OutIfvEE = 0x000000000006c390 + __sdk_start;
_ZNSt3__112strstreambuf6__initEPclS1_ = 0x000000000049c650 + __sdk_start;
_ZNK2nn6crypto6detail7AesImplILm16EE12DecryptBlockEPvmPKvm = 0x000000000017a2c0 + __sdk_start;
property_get = 0x0000000000010010 + __sdk_start;
_ZNKSt3__17collateIcE12do_transformEPKcS3_ = 0x000000000045e840 + __sdk_start;
_ZNKSt3__112basic_stringIcNS_11char_traitsIcEENS_9allocatorIcEEE4findEPKcmm = 0x0000000000495a48 + __sdk_start;
_ZN2nn2sf4hipc6client24Hipc2ClientCoreProcessorILNS1_6detail11MessageTypeE6ENS0_4cmif6detail14CoreMethodInfoINSt3__15tupleIJNS7_17InRawArgumentInfoILm8ELm4ELl0EEEEEELm8ELm0ELb0EEESD_E7ProcessEPNS2_26Hipc2ClientProxyBaseObjectENS6_6client23InRawClientArgumentTypeILm8ELm4EvEEj = 0x0000000000072230 + __sdk_start;
_ZN2nn5audio6server38CommandProcessingTimeEstimatorVersion28EstimateERKNS0_21ClearMixBufferCommandE = 0x00000000000a5830 + __sdk_start;
_ZN2nn3hid6detail14InitializeNpadEv = 0x0000000000233150 + __sdk_start;
_ZN2nn3kpr13GetKeyCodeMapEPNS0_10KeyCodeMapE = 0x00000000002b3a90 + __sdk_start;
_ZN2nn3ngc6detail9SparseSetC2EOS2_ = 0x00000000003101e0 + __sdk_start;
_ZN2nn5codec10AacDecoderC1Ev = 0x0000000000171600 + __sdk_start;
_ZN2nn7friends6detail17ShimLibraryGlobal16CreateIpcSessionEv = 0x00000000001ddc50 + __sdk_start;
_ZN2nn3hid21GetSixAxisSensorStateEPNS0_18SixAxisSensorStateERKNS0_19SixAxisSensorHandleE = 0x0000000000249ce0 + __sdk_start;
_ZN2nn2sf4cmif6client6detail13CmifProxyImplINS_4bcat6detail3ipc12IBcatServiceENS2_19CmifDomainProxyKindINS0_4hipc6client38Hipc2ClientSessionManagedProxyKindBaseINSB_18Hipc2ProxyKindBaseILNSA_6detail11MessageTypeE6EEEEEEENS0_30MemoryResourceAllocationPolicyES8_NS3_19ProcessModifierImplINS2_21DefaultProxyFilterTagEEEE69_nn_sf_sync_RequestSyncDeliveryCacheWithApplicationIdAndDirectoryNameENS0_3OutINS0_13SharedPointerINS7_29IDeliveryCacheProgressServiceEEEvEENS_13ApplicationIdEjRKNS5_13DirectoryNameE = 0x00000000000c3770 + __sdk_start;
FDK_ResetBitBuffer = 0x0000000000138180 + __sdk_start;
_ZN2nn2sf4cmif6client6detail13CmifProxyImplINS_8settings22IFactorySettingsServerENS0_4hipc6client18Hipc2ProxyKindBaseILNS7_6detail11MessageTypeE6EEENS0_30MemoryResourceAllocationPolicyES6_NS3_19ProcessModifierImplINS2_21DefaultProxyFilterTagEEEE48_nn_sf_sync_GetUsbTypeCPowerSourceCircuitVersionENS0_3OutIhvEE = 0x0000000000351a60 + __sdk_start;
_ZNSt11logic_errorD0Ev = 0x00000000004b5408 + __sdk_start;
_ZN2nn5audio6server9DelayInfo6UpdateEPNS0_6common17BehaviorParameter9ErrorInfoEPKNS0_10EffectInfo11InParameterERNS1_10PoolMapperE = 0x00000000000a8250 + __sdk_start;
_ZN2nn4npns13IsInitializedEv = 0x000000000031b470 + __sdk_start;
_ZNSt3__19basic_iosIwNS_11char_traitsIwEEED2Ev = 0x0000000000452c48 + __sdk_start;
atanhf = 0x00000000004dc710 + __sdk_start;
_ZN2nn4util6detail20FileOutputStreamImplD0Ev = 0x00000000003a29d0 + __sdk_start;
_ZThn32_N2nn2sf4cmif6client6detail13CmifProxyImplINS_2am7service8IStorageENS2_19CmifDomainProxyKindINS0_4hipc6client38Hipc2ClientSessionManagedProxyKindBaseINSA_18Hipc2ProxyKindBaseILNS9_6detail11MessageTypeE6EEEEEEENS0_30MemoryResourceAllocationPolicyES7_NS3_19ProcessModifierImplINS2_21DefaultProxyFilterTagEEEE17GetCmifBaseObjectEv = 0x0000000000059460 + __sdk_start;
interpolatingFilter = 0x000000000008b790 + __sdk_start;
_ZN2nn2sf4cmif6client6detail13CmifProxyImplINS_5visrv2sf22IManagerDisplayServiceENS0_4hipc6client18Hipc2ProxyKindBaseILNS8_6detail11MessageTypeE6EEENS0_30MemoryResourceAllocationPolicyES7_NS3_19ProcessModifierImplINS2_21DefaultProxyFilterTagEEEE34_nn_sf_sync_GetDisplayHotplugStateENS0_3OutIjvEEm = 0x00000000003a73a0 + __sdk_start;
__addvdi3 = 0x00000000004fd0d8 + __sdk_start;
_ZN2nn2fs18RomFsFileDataCacheD1Ev = 0x00000000001ed240 + __sdk_start;
_ZN2nn7friends18GetBlockedUserListEPiPNS_7account23NetworkServiceAccountIdEii = 0x00000000001d6f60 + __sdk_start;
_ZNKSt16bad_array_length4whatEv = 0x00000000004b5390 + __sdk_start;
_ZN2nn2sf4cmif6client6detail13CmifProxyImplINS_3nsd6detail8IManagerENS0_4hipc6client18Hipc2ProxyKindBaseILNS8_6detail11MessageTypeE6EEENS0_30MemoryResourceAllocationPolicyES7_NS3_19ProcessModifierImplINS2_21DefaultProxyFilterTagEEEE29_nn_sf_sync_GetNasRequestFqdnENS0_3OutINS5_4FqdnEvEE = 0x00000000003204d0 + __sdk_start;
_ZN2nn8irsensor30GetIrLedProcessorDefaultConfigEPNS0_20IrLedProcessorConfigE = 0x000000000029da10 + __sdk_start;
__nnmusl_pthread_attr_setschedpolicy = 0x00000000005078c8 + __sdk_start;
_ZdlPvRKSt9nothrow_t = 0x0000000000492cb8 + __sdk_start;
_ZN2nn2sf4hipc6server2v16detail29HipcAllInOneServerManagerBase18WaitAndProcessAutoEv = 0x0000000000357e30 + __sdk_start;
_ZThn16_N2nn2sf4cmif6client6detail13CmifProxyImplINS_2am7service22IGlobalStateControllerENS0_4hipc6client18Hipc2ProxyKindBaseILNS8_6detail11MessageTypeE6EEENS0_30MemoryResourceAllocationPolicyES7_NS3_19ProcessModifierImplINS2_21DefaultProxyFilterTagEEEE17GetCmifBaseObjectEv = 0x00000000000707a0 + __sdk_start;
_ZNK2nn3mii13AppletManager19IsEnabledSpecialMiiEv = 0x00000000002f7dc0 + __sdk_start;
_ZN2nn6crypto6detail11XtsModeImpl20ProcessRemainingDataEPhPKhm = 0x0000000000178d80 + __sdk_start;
_ZN2nn2fs6detail26EventNotifierObjectAdapterD2Ev = 0x00000000001f79c0 + __sdk_start;
atanhl = 0x00000000004dc7a0 + __sdk_start;
_ZN2nn2sf4cmif6client6detail13CmifProxyImplINS_7timesrv6detail7service14IStaticServiceENS2_19CmifDomainProxyKindINS0_4hipc6client38Hipc2ClientSessionManagedProxyKindBaseINSB_18Hipc2ProxyKindBaseILNSA_6detail11MessageTypeE6EEEEEEENS0_30MemoryResourceAllocationPolicyES8_NS3_19ProcessModifierImplINS2_21DefaultProxyFilterTagEEEE63_nn_sf_sync_IsStandardUserSystemClockAutomaticCorrectionEnabledENS0_3OutIbvEE = 0x00000000003882b0 + __sdk_start;
_ZN2nn3mii13ImageDatabaseD1Ev = 0x00000000002f38f0 + __sdk_start;
_ZN2nn2sf4cmif6client34CmifDomainProxyClientCoreProcessorINS0_4hipc6client38Hipc2ClientSessionManagedProxyKindBaseINS5_18Hipc2ProxyKindBaseILNS4_6detail11MessageTypeE6EEEEENS1_6detail14CoreMethodInfoINSt3__15tupleIJNSC_17InRawArgumentInfoILm16ELm8ELl0EEENSC_18BufferArgumentInfoILi0ELi9ELm0EEENSG_ILm8ELm8ELl16EEENSI_ILi1ELi5ELm0EEEEEELm24ELm0ELb0EEESM_E7ProcessEPNS2_23CmifDomainClientMessageISB_E15ProxyBaseObjectENS2_23InRawClientArgumentTypeILm16ELm8EvEENS2_24BufferClientArgumentTypeENST_ILm8ELm8EvEESV_j = 0x000000000033c240 + __sdk_start;
_ZN2nn2sf4cmif6client6detail36GetClientProcessorImplWithObjectBaseINS0_4hipc6client18Hipc2ProxyKindBaseILNS5_6detail11MessageTypeE6EEENS3_19ProcessModifierImplINS2_21DefaultProxyFilterTagEEEE14ObjectAssignerINS0_30MemoryResourceAllocationPolicyENS_14MemoryResourceEE14AllocateObjectINS_5visrv2sf21ISystemDisplayServiceEEEvi = 0x00000000003a5640 + __sdk_start;
_ZN2nn7account28NetworkServiceAccountManager20GetNintendoAccountIdEPNS0_17NintendoAccountIdE = 0x000000000004ac70 + __sdk_start;
_ZN2nn5audio3dsp24ApplyLinearEnvelopeGain2ILi23EEEvPiPKiiii = 0x00000000000bc280 + __sdk_start;
_ZN2nn3hid19GetTouchScreenStateILm16EEEvPNS0_16TouchScreenStateIXT_EEE = 0x000000000024a670 + __sdk_start;
cimagf = 0x00000000004cd7e0 + __sdk_start;
_ZN2nn2sf4cmif6client6detail13CmifProxyImplINS_4npns9INpnsUserENS0_4hipc6client18Hipc2ProxyKindBaseILNS7_6detail11MessageTypeE6EEENS0_30MemoryResourceAllocationPolicyENS5_11INpnsSystemENS3_19ProcessModifierImplINS2_21DefaultProxyFilterTagEEEE22_nn_sf_sync_ReceiveRawERKNS0_9OutBufferEt = 0x000000000031d580 + __sdk_start;
_ZN2nn8settings6detail21SetBlePairingSettingsEPKNS0_6system18BlePairingSettingsEi = 0x000000000034b910 + __sdk_start;
fsg_PrivateFontSpaceSize = 0x00000000001bb990 + __sdk_start;
_ZN2nn8settings7factory17GetBatteryVersionEPh = 0x0000000000353cf0 + __sdk_start;
_ZN2nn2fs29SetResultHandledByApplicationEb = 0x00000000001ec2a0 + __sdk_start;
_ZN2nn2sf4cmif6client34CmifDomainProxyClientCoreProcessorINS0_4hipc6client38Hipc2ClientSessionManagedProxyKindBaseINS5_18Hipc2ProxyKindBaseILNS4_6detail11MessageTypeE6EEEEENS1_6detail14CoreMethodInfoINSt3__15tupleIJNSC_18OutRawArgumentInfoILm4ELm4ELl0EEENSC_18BufferArgumentInfoILi0ELi6ELm0EEENSC_17InRawArgumentInfoILm16ELm8ELl0EEENSI_ILi1ELi5ELm0EEEEEELm16ELm4ELb0EEESN_E7ProcessEPNS2_23CmifDomainClientMessageISB_E15ProxyBaseObjectENS2_24OutRawClientArgumentTypeILm4ELm4EEENS2_24BufferClientArgumentTypeENS2_23InRawClientArgumentTypeILm16ELm8EvEESW_j = 0x0000000000063d20 + __sdk_start;
_ZN2nn3hid6detail27ReadPalmaApplicationSectionERKNS0_21PalmaConnectionHandleEim = 0x0000000000238650 + __sdk_start;
_ZN2nn2os24UnlinkAllMultiWaitHolderEPNS0_13MultiWaitTypeE = 0x0000000000326930 + __sdk_start;
cimagl = 0x00000000004cd7e8 + __sdk_start;
_ZN2nn6crypto6detail8Sha1Impl6UpdateEPKvm = 0x000000000017acc0 + __sdk_start;
_ZN2nn8settings6detail22GetAccelerometerOffsetEPNS0_7factory19AccelerometerOffsetE = 0x0000000000354670 + __sdk_start;
_ZN2nn3web14ShowWebPageArg28SetUserAgentAdditionalStringEPKc = 0x00000000003b4d60 + __sdk_start;
_ZTVN2nn2sf6detail38ObjectImplFactoryWithStatefulAllocatorINS0_4cmif6client6detail9CmifProxyINS_4bcat6detail3ipc25IDeliveryCacheFileServiceENS4_19CmifDomainProxyKindINS0_4hipc6client38Hipc2ClientSessionManagedProxyKindBaseINSD_18Hipc2ProxyKindBaseILNSC_6detail11MessageTypeE6EEEEEEENS0_30MemoryResourceAllocationPolicyENS5_19ProcessModifierImplINS4_21DefaultProxyFilterTagEEEvEESL_E6ObjectE = 0x0000000000bce098 + __sdk_start;
_ZN2nn2sf4cmif6client6detail13CmifProxyImplINS_7friends6detail3ipc14IFriendServiceENS2_19CmifDomainProxyKindINS0_4hipc6client38Hipc2ClientSessionManagedProxyKindBaseINSB_18Hipc2ProxyKindBaseILNSA_6detail11MessageTypeE6EEEEEEENS0_30MemoryResourceAllocationPolicyES8_NS3_19ProcessModifierImplINS2_21DefaultProxyFilterTagEEEE32_nn_sf_sync_GetSnsAccountProfileENS0_3OutINS5_17SnsAccountProfileEvEERKNS_7account3UidENSR_23NetworkServiceAccountIdEi = 0x00000000001df4a0 + __sdk_start;
_ZN2nn3hid6detail27DumpHdlsNpadAssignmentStateEPNS0_5debug18HdlsNpadAssignmentE = 0x000000000022ef70 + __sdk_start;
_ZN2nn6socket8resolver3tls6Client10InitializeEv = 0x0000000000375600 + __sdk_start;
_ZN2nn2oe38BeginHandlingCaptureButtonShortPressedEv = 0x0000000000321a30 + __sdk_start;
_ZN2nn8settings6detail23GetFullKeyGenericPadMapEPNS0_20FullKeyGenericPadMapENS0_12FullKeyIndexE = 0x0000000000352dc0 + __sdk_start;
_ZN2nn2os6detail26ThreadManagerImplByHorizonC1EPNS0_10ThreadTypeE = 0x000000000032de50 + __sdk_start;
_ZN2nn5audio31GetOscMessageNextArgumentAsCharEPNS0_14OscMessageTypeE = 0x00000000000868d0 + __sdk_start;
_ZN2nn8settings18GetXpadKeyboardMapEPNS0_20BasicXpadKeyboardMapEi = 0x000000000034a710 + __sdk_start;
_ZNSt3__112system_errorC1ENS_10error_codeEPKc = 0x000000000049db80 + __sdk_start;
_ZN2nn2sf4hipc6client24Hipc2ClientCoreProcessorILNS1_6detail11MessageTypeE6ENS0_4cmif6detail14CoreMethodInfoINSt3__15tupleIJNS7_18OutRawArgumentInfoILm4ELm4ELl0EEENSB_ILm4ELm4ELl4EEENS7_18BufferArgumentInfoILi0ELi33ELm0EEENSE_ILi1ELi34ELm0EEENSB_ILm4ELm4ELl8EEENSE_ILi2ELi33ELm0EEEEEELm0ELm12ELb0EEESJ_E7ProcessEPNS2_26Hipc2ClientProxyBaseObjectENS6_6client24OutRawClientArgumentTypeILm4ELm4EEESQ_NSO_24BufferClientArgumentTypeESR_SQ_SR_j = 0x000000000036ca90 + __sdk_start;
_ZN2nn5audio27IsValidMixBufferSampleCountEii = 0x000000000007ebc0 + __sdk_start;
_ZN2nn5audio8SinkInfoC1Ev = 0x00000000000878d0 + __sdk_start;
_ZNSt3__111__libcpp_db9__erase_iEPv = 0x000000000044eca0 + __sdk_start;
_ZN2nn6crypto6detail11IsSameBytesEPKvS3_m = 0x0000000000179910 + __sdk_start;
_ZN2nn2fs11FileStorage12OperateRangeEPvmNS0_11OperationIdEllPKvm = 0x00000000001ea430 + __sdk_start;
nncodecLibopus_opus_repacketizer_out = 0x0000000000115f70 + __sdk_start;
_ZN2nn8settings7factory19GetSpeakerParameterEPNS1_16SpeakerParameterE = 0x00000000003493b0 + __sdk_start;
NvOsAllocAlignLeak = 0x00000000003bc200 + __sdk_start;
_ZN7android10VectorImpl4pushEPKv = 0x0000000000038da0 + __sdk_start;
_ZNSt8bad_castD2Ev = 0x00000000004b5808 + __sdk_start;
_ZN2nn2sf4cmif6client6detail13CmifProxyImplINS_2am7service13ILockAccessorENS2_19CmifDomainProxyKindINS0_4hipc6client38Hipc2ClientSessionManagedProxyKindBaseINSA_18Hipc2ProxyKindBaseILNS9_6detail11MessageTypeE6EEEEEEENS0_30MemoryResourceAllocationPolicyES7_NS3_19ProcessModifierImplINS2_21DefaultProxyFilterTagEEEE20_nn_sf_sync_GetEventENS0_3OutINS0_12NativeHandleEvEE = 0x0000000000057a00 + __sdk_start;
nncodecLibopus_silk_autocorr = 0x00000000001032a0 + __sdk_start;
_ZN2nn8settings6detail13GetTvSettingsEPNS0_6system10TvSettingsE = 0x00000000003504b0 + __sdk_start;
_ZN2nn3hid20GetJoyXpadRightStateEPNS0_12JoyXpadStateERKNS0_9JoyXpadIdE = 0x0000000000244f30 + __sdk_start;
_ZN2nn2sf4cmif6client6detail13CmifProxyImplINS_2am7service15IAppletAccessorENS2_19CmifDomainProxyKindINS0_4hipc6client38Hipc2ClientSessionManagedProxyKindBaseINSA_18Hipc2ProxyKindBaseILNS9_6detail11MessageTypeE6EEEEEEENS0_30MemoryResourceAllocationPolicyENS6_22ILibraryAppletAccessorENS3_19ProcessModifierImplINS2_21DefaultProxyFilterTagEEEE21_nn_sf_sync_TerminateEv = 0x000000000005cb90 + __sdk_start;
_ZN2nn3web22ShowOfflineHtmlPageArg18SetBootDisplayKindENS0_22OfflineBootDisplayKindE = 0x00000000003b2250 + __sdk_start;
_ZN2nn2sf4cmif6client6detail13CmifProxyImplINS_2am7service16IStorageAccessorENS0_4hipc6client18Hipc2ProxyKindBaseILNS8_6detail11MessageTypeE6EEENS0_30MemoryResourceAllocationPolicyES7_NS3_19ProcessModifierImplINS2_21DefaultProxyFilterTagEEEE12GetProxyInfoEv = 0x000000000006b510 + __sdk_start;
_ZNK2nn5audio15PerformanceInfo17GetVoiceDropCountEv = 0x0000000000086c20 + __sdk_start;
_ZN2nn2sf4cmif6client6detail13CmifProxyImplINS_3mii6detail16IDatabaseServiceENS2_19CmifDomainProxyKindINS0_4hipc6client38Hipc2ClientSessionManagedProxyKindBaseINSA_18Hipc2ProxyKindBaseILNS9_6detail11MessageTypeE6EEEEEEENS0_30MemoryResourceAllocationPolicyES7_NS3_19ProcessModifierImplINS2_21DefaultProxyFilterTagEEEE24_nn_sf_sync_AddOrReplaceERKNS5_9StoreDataE = 0x00000000002f5150 + __sdk_start;
_ZN7android22ISurfaceComposerClientC2Ev = 0x0000000000023c70 + __sdk_start;
scalbln = 0x00000000004e3738 + __sdk_start;
_ZTIN2nn2sf6detail38ObjectImplFactoryWithStatefulAllocatorINS0_4cmif6client6detail9CmifProxyINS_2am7service18IHomeMenuFunctionsENS4_19CmifDomainProxyKindINS0_4hipc6client38Hipc2ClientSessionManagedProxyKindBaseINSC_18Hipc2ProxyKindBaseILNSB_6detail11MessageTypeE6EEEEEEENS0_30MemoryResourceAllocationPolicyENS5_19ProcessModifierImplINS4_21DefaultProxyFilterTagEEEvEESK_E6ObjectE = 0x0000000000bc58c0 + __sdk_start;
_ZN2nn9bluetooth18GattCharacteristicC1Ev = 0x00000000000d0780 + __sdk_start;
_ZN2nn2sf4cmif6client34CmifDomainProxyClientCoreProcessorINS0_4hipc6client38Hipc2ClientSessionManagedProxyKindBaseINS5_18Hipc2ProxyKindBaseILNS4_6detail11MessageTypeE6EEEEENS1_6detail14CoreMethodInfoINSt3__15tupleIJNSC_17InRawArgumentInfoILm1ELm1ELl0EEENSG_ILm4ELm4ELl4EEEEEELm8ELm0ELb0EEESJ_E7ProcessEPNS2_23CmifDomainClientMessageISB_E15ProxyBaseObjectENS2_23InRawClientArgumentTypeILm1ELm1EvEENSQ_ILm4ELm4EvEEj = 0x00000000002f96a0 + __sdk_start;
_ZNKSt3__18time_getIwNS_19istreambuf_iteratorIwNS_11char_traitsIwEEEEE16do_get_monthnameES4_S4_RNS_8ios_baseERjP2tm = 0x000000000046e7c0 + __sdk_start;
__mulvti3 = 0x00000000005011e8 + __sdk_start;
NvOsGetConfigU32 = 0x00000000003bc6f0 + __sdk_start;
_ZNK7android13GraphicBuffer10getFdCountEv = 0x000000000002f120 + __sdk_start;
_ZN2nn2os6detail13ThreadManager12CreateThreadEPNS0_10ThreadTypeEPFvPvES5_S5_mii = 0x0000000000329c00 + __sdk_start;
_ZTIN2nn2sf4hipc6server18Hipc2ServerMessageE = 0x0000000000be2a50 + __sdk_start;
_ZNK2nn5audio6server14EffectInfoBase13GetWorkBufferENS2_5IndexE = 0x00000000000a8140 + __sdk_start;
_ZN2nn2ec47GetSerializedConsumableServiceItemRightDataInfoEPNS0_44SerializedConsumableServiceItemRightDataInfoEPKvm = 0x0000000000181a00 + __sdk_start;
_ZN2nn4nifm6detail17ScanRequestClient14GetSystemEventEv = 0x0000000000313c30 + __sdk_start;
_ZN2nn5image6detail19InitializeIfdHeaderEPNS1_9IfdHeaderEPKNS1_12ValuedIfdTagEtt = 0x0000000000292400 + __sdk_start;
_ZN2nn2sf4cmif6client34CmifDomainProxyClientCoreProcessorINS0_4hipc6client38Hipc2ClientSessionManagedProxyKindBaseINS5_18Hipc2ProxyKindBaseILNS4_6detail11MessageTypeE6EEEEENS1_6detail14CoreMethodInfoINSt3__15tupleIJNSC_17InRawArgumentInfoILm16ELm8ELl0EEEEEELm16ELm0ELb0EEESI_E7ProcessEPNS2_23CmifDomainClientMessageISB_E15ProxyBaseObjectENS2_23InRawClientArgumentTypeILm16ELm8EvEEj = 0x00000000002095f0 + __sdk_start;
_ZN2nn2os16FreeUnsafeMemoryEmm = 0x0000000000328ee0 + __sdk_start;
_ZN2nn2sf4cmif6client6detail13CmifProxyImplINS_2am7service17IWindowControllerENS0_4hipc6client18Hipc2ProxyKindBaseILNS8_6detail11MessageTypeE6EEENS0_30MemoryResourceAllocationPolicyES7_NS3_19ProcessModifierImplINS2_21DefaultProxyFilterTagEEEE33_nn_sf_sync_SetAppletGpuTimeSliceEl = 0x000000000006c000 + __sdk_start;
_ZN2nn5audio34GetOscMessageNextArgumentAsTimeTagEPNS0_14OscMessageTypeE = 0x00000000000869d0 + __sdk_start;
_ZNSt3__16localeC1ERKS0_ = 0x00000000004839a0 + __sdk_start;
_ZN2nn4edid6detail18HasVsyncSerrationsEh = 0x0000000000193130 + __sdk_start;
_ZNKSt3__120__vector_base_commonILb1EE20__throw_length_errorEv = 0x000000000049f0d8 + __sdk_start;
_ZN2nn2sf4hipc16GetPortProcessorENS_3svc6HandleE = 0x000000000035d1d0 + __sdk_start;
_ZN2nn2sf4cmif6client6detail13CmifProxyImplINS_7account4baas28IFloatingRegistrationRequestENS2_19CmifDomainProxyKindINS0_4hipc6client38Hipc2ClientSessionManagedProxyKindBaseINSA_18Hipc2ProxyKindBaseILNS9_6detail11MessageTypeE6EEEEEEENS0_25StatelessAllocationPolicyINS0_22ExpHeapStaticAllocatorILm2048ENS5_6detail12ObjectHolder24ObjectHolderAllocatorTagEEEEES7_NS3_19ProcessModifierImplINS2_21DefaultProxyFilterTagEEEE46_nn_sf_sync_RegisterNetworkServiceAccountAsyncENS0_3OutINS0_13SharedPointerINSK_13IAsyncContextEEEvEE = 0x0000000000045bc0 + __sdk_start;
_ZN2nn5album27EncodeMovieMakerAudioSampleEPKvm = 0x00000000000500c0 + __sdk_start;
nvdcDisplayUnbind = 0x00000000003b81a0 + __sdk_start;
_ZN2nn2fs6detail12FileAccessorD1Ev = 0x00000000001eded0 + __sdk_start;
_ZN2nn8settings6system42SetConsoleSixAxisSensorAngularVelocityBiasERKNS1_39ConsoleSixAxisSensorAngularVelocityBiasE = 0x0000000000349040 + __sdk_start;
_ZN2nn5audio36GetAudioRendererConfigWorkBufferSizeERKNS0_22AudioRendererParameterE = 0x000000000007edb0 + __sdk_start;
_ZN2nn2sf4cmif6client6detail13CmifProxyImplINS_4bcat6detail3ipc28IDeliveryCacheStorageServiceENS2_19CmifDomainProxyKindINS0_4hipc6client38Hipc2ClientSessionManagedProxyKindBaseINSB_18Hipc2ProxyKindBaseILNSA_6detail11MessageTypeE6EEEEEEENS0_30MemoryResourceAllocationPolicyES8_NS3_19ProcessModifierImplINS2_21DefaultProxyFilterTagEEEE12GetProxyInfoEv = 0x00000000000c4470 + __sdk_start;
_ZN2nn2ec36ShowShopMembershipServiceInformationERKNS_7account3UidENS_13ApplicationIdENS0_29MembershipServiceGuidedReasonENS0_8SourceIdE = 0x0000000000189c40 + __sdk_start;
_ZN7android6Parcel13writeString16ERKNS_8String16E = 0x00000000000084b0 + __sdk_start;
_ZNSt3__114basic_iostreamIcNS_11char_traitsIcEEED1Ev = 0x000000000045d690 + __sdk_start;
_ZTINSt3__113basic_ostreamIcNS_11char_traitsIcEEEE = 0x0000000000beb890 + __sdk_start;
wcsncasecmp = 0x00000000004f91f0 + __sdk_start;
_ZN2nn4edid6detail13GetColorDepthEh = 0x0000000000193150 + __sdk_start;
_ZN2nn5audio25SetPerformanceFrameBufferEPNS0_19AudioRendererConfigEPvm = 0x0000000000086fa0 + __sdk_start;
_ZN2nn3nfp12GetAdminInfoEPNS0_9AdminInfoERKNS0_12DeviceHandleE = 0x0000000000300940 + __sdk_start;
_ZTIN2nn2sf4cmif6client6detail9CmifProxyINS_7timesrv6detail7service16ITimeZoneServiceENS2_19CmifDomainProxyKindINS0_4hipc6client38Hipc2ClientSessionManagedProxyKindBaseINSB_18Hipc2ProxyKindBaseILNSA_6detail11MessageTypeE6EEEEEEENS0_30MemoryResourceAllocationPolicyENS3_19ProcessModifierImplINS2_21DefaultProxyFilterTagEEEvEE = 0x0000000000be4640 + __sdk_start;
_ZN2nn2sf4cmif6client6detail13CmifProxyImplINS_3hid15IHidDebugServerENS0_4hipc6client18Hipc2ProxyKindBaseILNS7_6detail11MessageTypeE6EEENS0_25StatelessAllocationPolicyINS0_22ExpHeapStaticAllocatorILm16384ENS5_6detail14HidDebugServerEEEEES6_NS3_19ProcessModifierImplINS2_21DefaultProxyFilterTagEEEE28_nn_sf_sync_WriteSerialFlashEjONS0_12NativeHandleEmmNS5_6system11UniquePadIdE = 0x00000000002520f0 + __sdk_start;
__nx_pthread_detached_thread_exit = 0x0000000000508100 + __sdk_start;
_ZN2nn6crypto6detail6BigNum9GetDigitsEPKji = 0x0000000000173f40 + __sdk_start;
_ZN2nn4edid6detail21DetailedTimingVisitorEPKNS0_15DisplayModeInfoEPKNS0_17DisplayTimingInfoEPKNS0_13ImageSizeInfoEPv = 0x0000000000193e20 + __sdk_start;
_ZN2nn2sf4hipc6client24Hipc2ClientCoreProcessorILNS1_6detail11MessageTypeE6ENS0_4cmif6detail14CoreMethodInfoINSt3__15tupleIJNS7_18OutRawArgumentInfoILm4ELm4ELl0EEENSB_ILm4ELm4ELl4EEENS7_17InRawArgumentInfoILm4ELm4ELl0EEENS7_18BufferArgumentInfoILi0ELi33ELm0EEENSE_ILm4ELm4ELl4EEENSG_ILi1ELi33ELm0EEEEEELm8ELm8ELb0EEESK_E7ProcessEPNS2_26Hipc2ClientProxyBaseObjectENS6_6client24OutRawClientArgumentTypeILm4ELm4EEESR_NSP_23InRawClientArgumentTypeILm4ELm4EvEENSP_24BufferClientArgumentTypeEST_SU_j = 0x000000000036d3c0 + __sdk_start;
_ZN2nn2sf4cmif6client6detail13CmifProxyImplINS_7account4baas24IManagerForSystemServiceENS2_19CmifDomainProxyKindINS0_4hipc6client38Hipc2ClientSessionManagedProxyKindBaseINSA_18Hipc2ProxyKindBaseILNS9_6detail11MessageTypeE6EEEEEEENS0_25StatelessAllocationPolicyINS0_22ExpHeapStaticAllocatorILm2048ENS5_6detail12ObjectHolder24ObjectHolderAllocatorTagEEEEES7_NS3_19ProcessModifierImplINS2_21DefaultProxyFilterTagEEEE38_nn_sf_sync_CreateAuthorizationRequestENS0_3OutINS0_13SharedPointerINS5_3nas21IAuthorizationRequestEEEvEERKNSV_13NasClientInfoERKNS5_45NintendoAccountAuthorizationRequestParametersEONS0_12NativeHandleEj = 0x00000000000427b0 + __sdk_start;
_ZN2nn2sf4cmif6client6detail13CmifProxyImplINS_2am7service15IStorageChannelENS0_4hipc6client18Hipc2ProxyKindBaseILNS8_6detail11MessageTypeE6EEENS0_30MemoryResourceAllocationPolicyES7_NS3_19ProcessModifierImplINS2_21DefaultProxyFilterTagEEEE12GetProxyInfoEv = 0x000000000006aef0 + __sdk_start;
_ZN2nn3hid22GetNpadControllerColorEPNS0_19NpadControllerColorERKj = 0x0000000000247090 + __sdk_start;
NvOsFree = 0x00000000003bc4d0 + __sdk_start;
__isoc99_vsscanf = 0x00000000004f52a8 + __sdk_start;
_ZN2nn4nifm6detail21ServiceProviderClientC2Ev = 0x0000000000313cc0 + __sdk_start;
_ZN2nn5audio14MemoryPoolInfoD1Ev = 0x0000000000085860 + __sdk_start;
_ZNK2nn5audio6server14MemoryPoolInfo13GetCpuAddressEv = 0x00000000000a89b0 + __sdk_start;
_ZN2nn8settings6detail43IsUserSystemClockAutomaticCorrectionEnabledEPb = 0x000000000034c420 + __sdk_start;
_ZN2nn2vi18OpenDefaultDisplayEPPNS0_7DisplayE = 0x00000000003aaa20 + __sdk_start;
_ZN2nn2sf4cmif6client6detail13CmifProxyImplINS_6grcsrv11IMovieMakerENS0_4hipc6client18Hipc2ProxyKindBaseILNS7_6detail11MessageTypeE6EEENS0_30MemoryResourceAllocationPolicyES6_NS3_19ProcessModifierImplINS2_21DefaultProxyFilterTagEEEE48_nn_sf_sync_RequestOffscreenRecordingFinishReadyEm = 0x0000000000076730 + __sdk_start;
_ZN2nn2os16GetThreadContextEPNS0_24ThreadContextInfoAarch64EPKNS0_10ThreadTypeE = 0x0000000000327ec0 + __sdk_start;
_ZN2nn2sf4cmif6client34CmifDomainProxyClientCoreProcessorINS0_4hipc6client38Hipc2ClientSessionManagedProxyKindBaseINS5_18Hipc2ProxyKindBaseILNS4_6detail11MessageTypeE6EEEEENS1_6detail14CoreMethodInfoINSt3__15tupleIJNSC_18OutRawArgumentInfoILm1ELm1ELl0EEENSC_21OutHandleArgumentInfoILi0ELi1EEENSC_17InRawArgumentInfoILm1ELm1ELl0EEEEEELm1ELm1ELb0EEESM_E7ProcessEPNS2_23CmifDomainClientMessageISB_E15ProxyBaseObjectENS2_24OutRawClientArgumentTypeILm1ELm1EEENS2_27OutHandleClientArgumentTypeENS2_23InRawClientArgumentTypeILm1ELm1EvEEj = 0x0000000000057a40 + __sdk_start;
_ZN2nn3ssl10Connection13GetCipherInfoEPNS1_10CipherInfoE = 0x000000000037ab10 + __sdk_start;
_ZN2nn5audio3dsp17DumpMappedPointerEv = 0x00000000000b2800 + __sdk_start;
_ZN2nn2sf4cmif6client34CmifDomainProxyClientCoreProcessorINS0_4hipc6client38Hipc2ClientSessionManagedProxyKindBaseINS5_18Hipc2ProxyKindBaseILNS4_6detail11MessageTypeE6EEEEENS1_6detail14CoreMethodInfoINSt3__15tupleIJNSC_18OutRawArgumentInfoILm88ELm4ELl0EEENSC_17InRawArgumentInfoILm96ELm4ELl0EEEEEELm96ELm88ELb0EEESK_E7ProcessEPNS2_23CmifDomainClientMessageISB_E15ProxyBaseObjectENS2_24OutRawClientArgumentTypeILm88ELm4EEENS2_23InRawClientArgumentTypeILm96ELm4EvEEj = 0x00000000002f6330 + __sdk_start;
_ZN2nn4nifm6detail13RequestClient11SetSharableEb = 0x00000000003136d0 + __sdk_start;
_ZNKSt3__115__codecvt_utf16IDiLb1EE10do_unshiftER11__mbstate_tPcS4_RS4_ = 0x000000000048a140 + __sdk_start;
FDKfwrite = 0x0000000000171380 + __sdk_start;
_ZN2nn2sf6detail38ObjectImplFactoryWithStatefulAllocatorINS0_4cmif6client6detail9CmifProxyINS_3nim6detail24IShopServiceAccessServerENS0_4hipc6client18Hipc2ProxyKindBaseILNSA_6detail11MessageTypeE6EEENS0_30MemoryResourceAllocationPolicyENS5_19ProcessModifierImplINS4_21DefaultProxyFilterTagEEEvEESG_E6Object7ReleaseEv = 0x000000000018b9e0 + __sdk_start;
_ZN2nn2sf4cmif6client34CmifDomainProxyClientCoreProcessorINS0_4hipc6client38Hipc2ClientSessionManagedProxyKindBaseINS5_18Hipc2ProxyKindBaseILNS4_6detail11MessageTypeE6EEEEENS1_6detail14CoreMethodInfoINSt3__15tupleIJNSC_17InRawArgumentInfoILm16ELm8ELl104EEENSG_ILm64ELm1ELl0EEENSG_ILm33ELm1ELl64EEENSC_18BufferArgumentInfoILi0ELi5ELm0EEEEEELm120ELm0ELb0EEESM_E7ProcessEPNS2_23CmifDomainClientMessageISB_E15ProxyBaseObjectENS2_23InRawClientArgumentTypeILm16ELm8EvEENST_ILm64ELm1EvEENST_ILm33ELm1EvEENS2_24BufferClientArgumentTypeEj = 0x00000000001e3a50 + __sdk_start;
_ZN2nn2sf6detail38ObjectImplFactoryWithStatefulAllocatorINS0_4cmif6client6detail9CmifProxyINS_5visrv2sf21ISystemDisplayServiceENS0_4hipc6client18Hipc2ProxyKindBaseILNSA_6detail11MessageTypeE6EEENS0_30MemoryResourceAllocationPolicyENS5_19ProcessModifierImplINS4_21DefaultProxyFilterTagEEEvEESG_E6Object12AddReferenceEv = 0x00000000003a56f0 + __sdk_start;
_ZN2nn2sf4hipc6client24Hipc2ClientCoreProcessorILNS1_6detail11MessageTypeE6ENS0_4cmif6detail14CoreMethodInfoINSt3__15tupleIJNS7_17InRawArgumentInfoILm8ELm8ELl8EEENSB_ILm4ELm4ELl0EEENSB_ILm40ELm8ELl16EEEEEELm56ELm0ELb1EEESF_E7ProcessEPNS2_26Hipc2ClientProxyBaseObjectENS6_6client23InRawClientArgumentTypeILm8ELm8EvEENSL_ILm4ELm4EvEENSL_ILm40ELm8EvEEj = 0x000000000029f140 + __sdk_start;
_ZNSt3__118condition_variableD2Ev = 0x000000000044dc88 + __sdk_start;
_ZNSt3__113basic_istreamIcNS_11char_traitsIcEEErsEPFRNS_8ios_baseES5_E = 0x0000000000453f90 + __sdk_start;
__fixdfdi = 0x00000000004ff1d0 + __sdk_start;
_ZN2nn2fs15RomFsFileSystem10InitializeEONSt3__110unique_ptrINS0_8IStorageENS2_14default_deleteIS4_EEEEPvmb = 0x00000000001ec780 + __sdk_start;
_ZThn16_N2nn2sf4cmif6client6detail13CmifProxyImplINS_2am7service25IProcessWindingControllerENS0_4hipc6client18Hipc2ProxyKindBaseILNS8_6detail11MessageTypeE6EEENS0_30MemoryResourceAllocationPolicyES7_NS3_19ProcessModifierImplINS2_21DefaultProxyFilterTagEEEE17GetCmifBaseObjectEv = 0x000000000006ead0 + __sdk_start;
_ZNSt3__116__libcpp_tls_setENSt13__libcxx_shim19__libcxx_shim_ver_111__tls_key_tEPv = 0x000000000049eac0 + __sdk_start;
_ZN2nn2sf4hipc6client24Hipc2ClientCoreProcessorILNS1_6detail11MessageTypeE6ENS0_4cmif6detail14CoreMethodInfoINSt3__15tupleIJNS7_18OutRawArgumentInfoILm16ELm8ELl0EEEEEELm0ELm16ELb0EEESD_E7ProcessEPNS2_26Hipc2ClientProxyBaseObjectENS6_6client24OutRawClientArgumentTypeILm16ELm8EEEj = 0x000000000006df60 + __sdk_start;
_ZNK2nn3mii6detail12StoreDataRaw9GetGlassYEv = 0x00000000002ea020 + __sdk_start;
_ZNSt3__18ios_base34__set_failbit_and_consider_rethrowEv = 0x00000000004541f0 + __sdk_start;
_ZNK2nn2os6detail36MultiWaitHolderOfMessageQueueNotFull10IsSignaledEv = 0x000000000032bd90 + __sdk_start;
_ZN2nn2ec17GetPurchasedEventEv = 0x0000000000188db0 + __sdk_start;
_ZN2nn2la15RequestHomeMenuEv = 0x00000000002b4eb0 + __sdk_start;
_ZN2nn2oe18GetPerformanceModeEv = 0x0000000000322e00 + __sdk_start;
_ZN2nn3hid6detail37SetShiftAccelerometerCalibrationValueERKNS0_19SixAxisSensorHandleEff = 0x0000000000236c90 + __sdk_start;
_ZNKSt3__120__time_get_c_storageIwE3__cEv = 0x000000000048c468 + __sdk_start;
_ZN2nn8settings6system19SetExternalRtcResetEb = 0x0000000000348950 + __sdk_start;
_ZN2nn3hid6detail19GetTouchScreenStateILm5EEENS_6ResultEPNS0_16TouchScreenStateIXT_EEE = 0x000000000023c210 + __sdk_start;
NvRmMemReserve = 0x00000000003d0140 + __sdk_start;
_ZNKSt3__120__codecvt_utf8_utf16IwE9do_lengthER11__mbstate_tPKcS5_m = 0x000000000048a8f0 + __sdk_start;
_ZTVNSt3__117moneypunct_bynameIwLb0EEE = 0x0000000000bec428 + __sdk_start;
_ZN2nn7account42NintendoAccountAuthorizationRequestContextC1EPNS0_3nas21IAuthorizationRequestERKNS0_3UidE = 0x000000000004c7f0 + __sdk_start;
_ZN2nn3mii6detail11CoreDataRaw7SetEyeXEi = 0x00000000002e6140 + __sdk_start;
_ZN2nn2os19TrySendMessageQueueEPNS0_16MessageQueueTypeEm = 0x0000000000325e80 + __sdk_start;
_ZN2nn5audio6server16CommandGenerator21GenerateVoiceCommandsEv = 0x00000000000a2eb0 + __sdk_start;
_ZN2nn3hid15VibrationTargetC1ERKNS0_21VibrationDeviceHandleE = 0x000000000024dd90 + __sdk_start;
_ZN2nn2sf13InterfaceInfoINS_5audio6detail12IAudioDeviceEE4_tABINS5_5_tO2NINS2_6server24AudioRendererManagerImpl15AudioDeviceImplEE4typeES4_E4type45_nn_sf_sync_GetAudioSystemMasterVolumeSettingENS0_3OutIfvEERKNS0_8InBufferE = 0x000000000009de60 + __sdk_start;
_ZN2nn5audio6server18PerformanceManager12GetNextEntryEPNS1_25PerformanceEntryAddressesEPPjNS0_24PerformanceSysDetailTypeEj = 0x00000000000a6e50 + __sdk_start;
_ZNK2nn9bluetooth18GattCharacteristic8GetValueEPvm = 0x00000000000d0bc0 + __sdk_start;
_ZN2nn4edid6detail22GetEstablishedTimingIIEPFbPKNS0_15DisplayModeInfoEPKNS0_17DisplayTimingInfoEPKNS0_13ImageSizeInfoEPvESB_h = 0x0000000000193620 + __sdk_start;
_ZN2nn2sf4cmif6client6detail13CmifProxyImplINS_2am7service15ISelfControllerENS0_4hipc6client18Hipc2ProxyKindBaseILNS8_6detail11MessageTypeE6EEENS0_30MemoryResourceAllocationPolicyES7_NS3_19ProcessModifierImplINS2_21DefaultProxyFilterTagEEEE38_nn_sf_sync_SetHandlesRequestToDisplayEb = 0x000000000006a1e0 + __sdk_start;
_ZN2nn9bluetooth21EmulateBluetoothCrashENS0_20BluetoothFatalReasonE = 0x00000000000ca680 + __sdk_start;
_ZN2nn2sf4cmif6client6detail13CmifProxyImplINS_3hid16IHidSystemServerENS0_4hipc6client18Hipc2ProxyKindBaseILNS7_6detail11MessageTypeE6EEENS0_25StatelessAllocationPolicyINS0_22ExpHeapStaticAllocatorILm16384ENS5_6detail15HidSystemServerEEEEES6_NS3_19ProcessModifierImplINS2_21DefaultProxyFilterTagEEEE41_nn_sf_sync_GetAllowedBluetoothLinksCountENS0_3OutIlvEE = 0x0000000000258db0 + __sdk_start;
_ZThn32_N2nn2sf4cmif6client6detail13CmifProxyImplINS_2am7service15IAppletAccessorENS2_19CmifDomainProxyKindINS0_4hipc6client38Hipc2ClientSessionManagedProxyKindBaseINSA_18Hipc2ProxyKindBaseILNS9_6detail11MessageTypeE6EEEEEEENS0_30MemoryResourceAllocationPolicyES7_NS3_19ProcessModifierImplINS2_21DefaultProxyFilterTagEEEE17GetCmifBaseObjectEv = 0x000000000005bd70 + __sdk_start;
_ZN2nn2sf6detail38ObjectImplFactoryWithStatefulAllocatorINS0_4cmif6client6detail9CmifProxyINS_3apm18IManagerPrivilegedENS0_4hipc6client18Hipc2ProxyKindBaseILNS9_6detail11MessageTypeE6EEENS0_30MemoryResourceAllocationPolicyENS5_19ProcessModifierImplINS4_21DefaultProxyFilterTagEEEvEESF_E6Object7ReleaseEv = 0x000000000007a350 + __sdk_start;
_ZN2nn8settings12LanguageCode4MakeENS0_8LanguageE = 0x0000000000347f80 + __sdk_start;
_ZN2nn2sf4hipc6client24Hipc2ClientCoreProcessorILNS1_6detail11MessageTypeE6ENS0_4cmif6detail14CoreMethodInfoINSt3__15tupleIJNS7_17InRawArgumentInfoILm36ELm1ELl0EEEEEELm36ELm0ELb0EEESD_E7ProcessEPNS2_26Hipc2ClientProxyBaseObjectENS6_6client23InRawClientArgumentTypeILm36ELm1EvEEj = 0x00000000003445c0 + __sdk_start;
sched_setaffinity = 0x00000000004ba8d8 + __sdk_start;
_ZN2nn7account6detail18OAuthProcedureBaseaSEOS2_ = 0x000000000003a8b0 + __sdk_start;
_ZN2nn3hid6detail28SetTouchScreenAutoPilotStateILm9EEENS_6ResultERKNS0_5debug25TouchScreenAutoPilotStateIXT_EEE = 0x000000000023e290 + __sdk_start;
nvdcFreeEventFds = 0x00000000003b83f0 + __sdk_start;
_ZNSt3__121__horizon_thread_data15get_thread_typeEv = 0x0000000000452070 + __sdk_start;
__clzsi2 = 0x00000000004fd328 + __sdk_start;
_ZN2nn2sf4cmif6client6detail13CmifProxyImplINS_2am7service18ICommonStateGetterENS2_19CmifDomainProxyKindINS0_4hipc6client38Hipc2ClientSessionManagedProxyKindBaseINSA_18Hipc2ProxyKindBaseILNS9_6detail11MessageTypeE6EEEEEEENS0_30MemoryResourceAllocationPolicyES7_NS3_19ProcessModifierImplINS2_21DefaultProxyFilterTagEEEE39_nn_sf_sync_ReleaseSleepLockTransientlyEv = 0x00000000000571d0 + __sdk_start;
_ZN2nn5codec30HardwareOpusMultiStreamDecoderC1Ei = 0x000000000011dad0 + __sdk_start;
_ZN2nn2ec30ShowShopApplicationInformationERKNS_7account10UserHandleE = 0x0000000000189050 + __sdk_start;
_ZN2nn2sf6detail38ObjectImplFactoryWithStatefulAllocatorINS0_4cmif6client6detail9CmifProxyINS_5visrv2sf22IManagerDisplayServiceENS0_4hipc6client18Hipc2ProxyKindBaseILNSA_6detail11MessageTypeE6EEENS0_30MemoryResourceAllocationPolicyENS5_19ProcessModifierImplINS4_21DefaultProxyFilterTagEEEvEESG_E6Object12AddReferenceEv = 0x00000000003a70a0 + __sdk_start;
_ZN7android6Parcel20closeFileDescriptorsEv = 0x000000000000b1b0 + __sdk_start;
_ZN2nn3grc15CloseMovieLayerEPNS0_10MovieLayerE = 0x000000000022a090 + __sdk_start;
_ZN2nn3hid6system26EnableUsbFullKeyControllerEb = 0x000000000024bd90 + __sdk_start;
_ZNK7android6Parcel19readString16InplaceEPm = 0x0000000000008660 + __sdk_start;
_ZNK7android6Region3endEv = 0x00000000000309f0 + __sdk_start;
_ZN2nn7nlibsdk4heap12TlsHeapCache16ReallocFuncMode0INSt3__117integral_constantIbLb0EEEEEiPS2_PvmPS8_ = 0x00000000002d63e0 + __sdk_start;
